
lab2demo.elf:     file format elf32-avr

Sections:
Idx Name          Size      VMA       LMA       File off  Algn
  0 .data         000000da  00800100  000046f8  0000478c  2**0
                  CONTENTS, ALLOC, LOAD, DATA
  1 .text         000046f8  00000000  00000000  00000094  2**1
                  CONTENTS, ALLOC, LOAD, READONLY, CODE
  2 .bss          000000f8  008001da  008001da  00004866  2**0
                  ALLOC
  3 .comment      0000005c  00000000  00000000  00004866  2**0
                  CONTENTS, READONLY
  4 .debug_aranges 00000048  00000000  00000000  000048c2  2**0
                  CONTENTS, READONLY, DEBUGGING
  5 .debug_info   00000a7b  00000000  00000000  0000490a  2**0
                  CONTENTS, READONLY, DEBUGGING
  6 .debug_abbrev 0000023d  00000000  00000000  00005385  2**0
                  CONTENTS, READONLY, DEBUGGING
  7 .debug_line   0000024a  00000000  00000000  000055c2  2**0
                  CONTENTS, READONLY, DEBUGGING
  8 .debug_frame  00000250  00000000  00000000  0000580c  2**2
                  CONTENTS, READONLY, DEBUGGING
  9 .debug_str    000005cb  00000000  00000000  00005a5c  2**0
                  CONTENTS, READONLY, DEBUGGING
 10 .debug_loc    00000ab7  00000000  00000000  00006027  2**0
                  CONTENTS, READONLY, DEBUGGING
 11 .debug_ranges 00000038  00000000  00000000  00006ade  2**0
                  CONTENTS, READONLY, DEBUGGING

Disassembly of section .text:

00000000 <__vectors>:
       0:	0c 94 48 03 	jmp	0x690	; 0x690 <__ctors_end>
       4:	0c 94 65 03 	jmp	0x6ca	; 0x6ca <__bad_interrupt>
       8:	0c 94 65 03 	jmp	0x6ca	; 0x6ca <__bad_interrupt>
       c:	0c 94 65 03 	jmp	0x6ca	; 0x6ca <__bad_interrupt>
      10:	0c 94 27 0b 	jmp	0x164e	; 0x164e <__vector_4>
      14:	0c 94 50 0b 	jmp	0x16a0	; 0x16a0 <__vector_5>
      18:	0c 94 79 0b 	jmp	0x16f2	; 0x16f2 <__vector_6>
      1c:	0c 94 a2 0b 	jmp	0x1744	; 0x1744 <__vector_7>
      20:	0c 94 65 03 	jmp	0x6ca	; 0x6ca <__bad_interrupt>
      24:	0c 94 08 0a 	jmp	0x1410	; 0x1410 <__vector_9>
      28:	0c 94 31 0a 	jmp	0x1462	; 0x1462 <__vector_10>
      2c:	0c 94 5a 0a 	jmp	0x14b4	; 0x14b4 <__vector_11>
      30:	0c 94 d5 0a 	jmp	0x15aa	; 0x15aa <__vector_12>
      34:	0c 94 83 0a 	jmp	0x1506	; 0x1506 <__vector_13>
      38:	0c 94 ac 0a 	jmp	0x1558	; 0x1558 <__vector_14>
      3c:	0c 94 fe 0a 	jmp	0x15fc	; 0x15fc <__vector_15>
      40:	0c 94 8d 09 	jmp	0x131a	; 0x131a <__vector_16>
      44:	0c 94 b6 09 	jmp	0x136c	; 0x136c <__vector_17>
      48:	0c 94 df 09 	jmp	0x13be	; 0x13be <__vector_18>
      4c:	0c 94 65 03 	jmp	0x6ca	; 0x6ca <__bad_interrupt>
      50:	0c 94 65 03 	jmp	0x6ca	; 0x6ca <__bad_interrupt>
      54:	0c 94 65 03 	jmp	0x6ca	; 0x6ca <__bad_interrupt>
      58:	0c 94 65 03 	jmp	0x6ca	; 0x6ca <__bad_interrupt>
      5c:	0c 94 65 03 	jmp	0x6ca	; 0x6ca <__bad_interrupt>
      60:	0c 94 65 03 	jmp	0x6ca	; 0x6ca <__bad_interrupt>
      64:	0c 94 65 03 	jmp	0x6ca	; 0x6ca <__bad_interrupt>
      68:	0c 94 65 03 	jmp	0x6ca	; 0x6ca <__bad_interrupt>
      6c:	0c 94 65 03 	jmp	0x6ca	; 0x6ca <__bad_interrupt>
      70:	0c 94 65 03 	jmp	0x6ca	; 0x6ca <__bad_interrupt>
      74:	0c 94 65 03 	jmp	0x6ca	; 0x6ca <__bad_interrupt>
      78:	0c 94 65 03 	jmp	0x6ca	; 0x6ca <__bad_interrupt>
      7c:	08 4a       	sbci	r16, 0xA8	; 168
      7e:	d7 3b       	cpi	r29, 0xB7	; 183
      80:	3b ce       	rjmp	.-906    	; 0xfffffcf8 <__eeprom_end+0xff7efcf8>
      82:	01 6e       	ori	r16, 0xE1	; 225
      84:	84 bc       	out	0x24, r8	; 36
      86:	bf fd       	.word	0xfdbf	; ????
      88:	c1 2f       	mov	r28, r17
      8a:	3d 6c       	ori	r19, 0xCD	; 205
      8c:	74 31       	cpi	r23, 0x14	; 20
      8e:	9a bd       	out	0x2a, r25	; 42
      90:	56 83       	std	Z+6, r21	; 0x06
      92:	3d da       	rcall	.-2950   	; 0xfffff50e <__eeprom_end+0xff7ef50e>
      94:	3d 00       	.word	0x003d	; ????
      96:	c7 7f       	andi	r28, 0xF7	; 247
      98:	11 be       	out	0x31, r1	; 49
      9a:	d9 e4       	ldi	r29, 0x49	; 73
      9c:	bb 4c       	sbci	r27, 0xCB	; 203
      9e:	3e 91       	ld	r19, -X
      a0:	6b aa       	std	Y+51, r6	; 0x33
      a2:	aa be       	out	0x3a, r10	; 58
      a4:	00 00       	nop
      a6:	00 80       	ld	r0, Z
      a8:	3f 00       	.word	0x003f	; ????
      aa:	01 08       	sbc	r0, r1
      ac:	04 08       	sbc	r0, r4
      ae:	07 08       	sbc	r0, r7
      b0:	0a 08       	sbc	r0, r10
      b2:	13 08       	sbc	r1, r3
      b4:	0d 08       	sbc	r0, r13
      b6:	10 08       	sbc	r1, r0
      b8:	16 08       	sbc	r1, r6
      ba:	19 08       	sbc	r1, r9
      bc:	1c 08       	sbc	r1, r12
      be:	1f 08       	sbc	r1, r15
      c0:	22 08       	sbc	r2, r2
      c2:	25 08       	sbc	r2, r5
      c4:	28 08       	sbc	r2, r8
      c6:	2b 08       	sbc	r2, r11
      c8:	2e 08       	sbc	r2, r14
      ca:	31 08       	sbc	r3, r1
      cc:	34 08       	sbc	r3, r4
      ce:	37 08       	sbc	r3, r7
      d0:	48 08       	sbc	r4, r8
      d2:	4b 08       	sbc	r4, r11
      d4:	4e 08       	sbc	r4, r14
      d6:	51 08       	sbc	r5, r1
      d8:	5a 08       	sbc	r5, r10
      da:	54 08       	sbc	r5, r4
      dc:	57 08       	sbc	r5, r7
      de:	5d 08       	sbc	r5, r13
      e0:	60 08       	sbc	r6, r0
      e2:	63 08       	sbc	r6, r3
      e4:	66 08       	sbc	r6, r6
      e6:	69 08       	sbc	r6, r9
      e8:	6c 08       	sbc	r6, r12
      ea:	6f 08       	sbc	r6, r15
      ec:	72 08       	sbc	r7, r2
      ee:	75 08       	sbc	r7, r5
      f0:	78 08       	sbc	r7, r8
      f2:	7b 08       	sbc	r7, r11
      f4:	7e 08       	sbc	r7, r14
      f6:	07 63       	ori	r16, 0x37	; 55
      f8:	42 36       	cpi	r20, 0x62	; 98
      fa:	b7 9b       	sbis	0x16, 7	; 22
      fc:	d8 a7       	std	Y+40, r29	; 0x28
      fe:	1a 39       	cpi	r17, 0x9A	; 154
     100:	68 56       	subi	r22, 0x68	; 104
     102:	18 ae       	std	Y+56, r1	; 0x38
     104:	ba ab       	std	Y+50, r27	; 0x32
     106:	55 8c       	ldd	r5, Z+29	; 0x1d
     108:	1d 3c       	cpi	r17, 0xCD	; 205
     10a:	b7 cc       	rjmp	.-1682   	; 0xfffffa7a <__eeprom_end+0xff7efa7a>
     10c:	57 63       	ori	r21, 0x37	; 55
     10e:	bd 6d       	ori	r27, 0xDD	; 221
     110:	ed fd       	.word	0xfded	; ????
     112:	75 3e       	cpi	r23, 0xE5	; 229
     114:	f6 17       	cp	r31, r22
     116:	72 31       	cpi	r23, 0x12	; 18
     118:	bf 00       	.word	0x00bf	; ????
     11a:	00 00       	nop
     11c:	80 3f       	cpi	r24, 0xF0	; 240
     11e:	08 00       	.word	0x0008	; ????
     120:	00 00       	nop
     122:	be 92       	st	-X, r11
     124:	24 49       	sbci	r18, 0x94	; 148
     126:	12 3e       	cpi	r17, 0xE2	; 226
     128:	ab aa       	std	Y+51, r10	; 0x33
     12a:	aa 2a       	or	r10, r26
     12c:	be cd       	rjmp	.-1156   	; 0xfffffcaa <__eeprom_end+0xff7efcaa>
     12e:	cc cc       	rjmp	.-1640   	; 0xfffffac8 <__eeprom_end+0xff7efac8>
     130:	4c 3e       	cpi	r20, 0xEC	; 236
     132:	00 00       	nop
     134:	00 80       	ld	r0, Z
     136:	be ab       	std	Y+54, r27	; 0x36
     138:	aa aa       	std	Y+50, r10	; 0x32
     13a:	aa 3e       	cpi	r26, 0xEA	; 234
     13c:	00 00       	nop
     13e:	00 00       	nop
     140:	bf 00       	.word	0x00bf	; ????
     142:	00 00       	nop
     144:	80 3f       	cpi	r24, 0xF0	; 240
     146:	00 00       	nop
     148:	00 00       	nop
     14a:	00 08       	sbc	r0, r0
     14c:	41 78       	andi	r20, 0x81	; 129
     14e:	d3 bb       	out	0x13, r29	; 19
     150:	43 87       	std	Z+11, r20	; 0x0b
     152:	d1 13       	cpse	r29, r17
     154:	3d 19       	sub	r19, r13
     156:	0e 3c       	cpi	r16, 0xCE	; 206
     158:	c3 bd       	out	0x23, r28	; 35
     15a:	42 82       	std	Z+2, r4	; 0x02
     15c:	ad 2b       	or	r26, r29
     15e:	3e 68       	ori	r19, 0x8E	; 142
     160:	ec 82       	std	Y+4, r14	; 0x04
     162:	76 be       	out	0x36, r7	; 54
     164:	d9 8f       	std	Y+25, r29	; 0x19
     166:	e1 a9       	ldd	r30, Z+49	; 0x31
     168:	3e 4c       	sbci	r19, 0xCE	; 206
     16a:	80 ef       	ldi	r24, 0xF0	; 240
     16c:	ff be       	out	0x3f, r15	; 63
     16e:	01 c4       	rjmp	.+2050   	; 0x972 <__stack+0x73>
     170:	ff 7f       	andi	r31, 0xFF	; 255
     172:	3f 00       	.word	0x003f	; ????
     174:	00 00       	nop
	...

00000178 <__trampolines_end>:
     178:	16 05       	cpc	r17, r6
     17a:	01 00       	.word	0x0001	; ????
     17c:	00 00       	nop
     17e:	00 00       	nop
     180:	00 00       	nop
     182:	fa 00       	.word	0x00fa	; ????
     184:	00 00       	nop
     186:	e0 00       	.word	0x00e0	; ????
     188:	e0 00       	.word	0x00e0	; ????
     18a:	28 fe       	.word	0xfe28	; ????
     18c:	28 fe       	.word	0xfe28	; ????
     18e:	28 24       	eor	r2, r8
     190:	54 fe       	sbrs	r5, 4
     192:	54 48       	sbci	r21, 0x84	; 132
     194:	c4 c8       	rjmp	.-3704   	; 0xfffff31e <__eeprom_end+0xff7ef31e>
     196:	10 26       	eor	r1, r16
     198:	46 6c       	ori	r20, 0xC6	; 198
     19a:	92 aa       	std	Z+50, r9	; 0x32
     19c:	44 a0       	ldd	r4, Z+36	; 0x24
     19e:	00 a0       	ldd	r0, Z+32	; 0x20
     1a0:	c0 00       	.word	0x00c0	; ????
     1a2:	00 00       	nop
     1a4:	38 44       	sbci	r19, 0x48	; 72
     1a6:	82 00       	.word	0x0082	; ????
     1a8:	00 82       	st	Z, r0
     1aa:	44 38       	cpi	r20, 0x84	; 132
     1ac:	00 28       	or	r0, r0
     1ae:	10 7c       	andi	r17, 0xC0	; 192
     1b0:	10 28       	or	r1, r0
     1b2:	10 10       	cpse	r1, r0
     1b4:	7c 10       	cpse	r7, r12
     1b6:	10 00       	.word	0x0010	; ????
     1b8:	0a 0c       	add	r0, r10
     1ba:	00 00       	nop
     1bc:	10 10       	cpse	r1, r0
     1be:	10 10       	cpse	r1, r0
     1c0:	10 00       	.word	0x0010	; ????
     1c2:	06 06       	cpc	r0, r22
     1c4:	00 00       	nop
     1c6:	04 08       	sbc	r0, r4
     1c8:	10 20       	and	r1, r0
     1ca:	40 7c       	andi	r20, 0xC0	; 192
     1cc:	8a 92       	st	-Y, r8
     1ce:	a2 7c       	andi	r26, 0xC2	; 194
     1d0:	00 42       	sbci	r16, 0x20	; 32
     1d2:	fe 02       	muls	r31, r30
     1d4:	00 42       	sbci	r16, 0x20	; 32
     1d6:	86 8a       	std	Z+22, r8	; 0x16
     1d8:	92 62       	ori	r25, 0x22	; 34
     1da:	84 82       	std	Z+4, r8	; 0x04
     1dc:	a2 d2       	rcall	.+1348   	; 0x722 <LCD_open+0x8>
     1de:	8c 18       	sub	r8, r12
     1e0:	28 48       	sbci	r18, 0x88	; 136
     1e2:	fe 08       	sbc	r15, r14
     1e4:	e4 a2       	std	Z+36, r14	; 0x24
     1e6:	a2 a2       	std	Z+34, r10	; 0x22
     1e8:	9c 3c       	cpi	r25, 0xCC	; 204
     1ea:	52 92       	st	-Z, r5
     1ec:	92 0c       	add	r9, r2
     1ee:	80 8e       	std	Z+24, r8	; 0x18
     1f0:	90 a0       	ldd	r9, Z+32	; 0x20
     1f2:	c0 6c       	ori	r28, 0xC0	; 192
     1f4:	92 92       	st	-Z, r9
     1f6:	92 6c       	ori	r25, 0xC2	; 194
     1f8:	60 92 92 94 	sts	0x9492, r6
     1fc:	78 00       	.word	0x0078	; ????
     1fe:	6c 6c       	ori	r22, 0xCC	; 204
     200:	00 00       	nop
     202:	00 6a       	ori	r16, 0xA0	; 160
     204:	6c 00       	.word	0x006c	; ????
     206:	00 10       	cpse	r0, r0
     208:	28 44       	sbci	r18, 0x48	; 72
     20a:	82 00       	.word	0x0082	; ????
     20c:	28 28       	or	r2, r8
     20e:	28 28       	or	r2, r8
     210:	28 00       	.word	0x0028	; ????
     212:	82 44       	sbci	r24, 0x42	; 66
     214:	28 10       	cpse	r2, r8
     216:	40 80       	ld	r4, Z
     218:	8a 90       	ld	r8, -Y
     21a:	60 4c       	sbci	r22, 0xC0	; 192
     21c:	92 9e       	mul	r9, r18
     21e:	82 7c       	andi	r24, 0xC2	; 194
     220:	7e 88       	ldd	r7, Y+22	; 0x16
     222:	88 88       	ldd	r8, Y+16	; 0x10
     224:	7e fe       	.word	0xfe7e	; ????
     226:	92 92       	st	-Z, r9
     228:	92 6c       	ori	r25, 0xC2	; 194
     22a:	7c 82       	std	Y+4, r7	; 0x04
     22c:	82 82       	std	Z+2, r8	; 0x02
     22e:	44 fe       	sbrs	r4, 4
     230:	82 82       	std	Z+2, r8	; 0x02
     232:	44 38       	cpi	r20, 0x84	; 132
     234:	fe 92       	st	-X, r15
     236:	92 92       	st	-Z, r9
     238:	82 fe       	sbrs	r8, 2
     23a:	90 90 90 80 	lds	r9, 0x8090
     23e:	7c 82       	std	Y+4, r7	; 0x04
     240:	92 92       	st	-Z, r9
     242:	5e fe       	.word	0xfe5e	; ????
     244:	10 10       	cpse	r1, r0
     246:	10 fe       	sbrs	r1, 0
     248:	00 82       	st	Z, r0
     24a:	fe 82       	std	Y+6, r15	; 0x06
     24c:	00 04       	cpc	r0, r0
     24e:	02 82       	std	Z+2, r0	; 0x02
     250:	fc 80       	ldd	r15, Y+4	; 0x04
     252:	fe 10       	cpse	r15, r14
     254:	28 44       	sbci	r18, 0x48	; 72
     256:	82 fe       	sbrs	r8, 2
     258:	02 02       	muls	r16, r18
     25a:	02 02       	muls	r16, r18
     25c:	fe 40       	sbci	r31, 0x0E	; 14
     25e:	30 40       	sbci	r19, 0x00	; 0
     260:	fe fe       	.word	0xfefe	; ????
     262:	20 10       	cpse	r2, r0
     264:	08 fe       	.word	0xfe08	; ????
     266:	7c 82       	std	Y+4, r7	; 0x04
     268:	82 82       	std	Z+2, r8	; 0x02
     26a:	7c fe       	.word	0xfe7c	; ????
     26c:	90 90 90 60 	lds	r9, 0x6090
     270:	7c 82       	std	Y+4, r7	; 0x04
     272:	8a 84       	ldd	r8, Y+10	; 0x0a
     274:	7a fe       	.word	0xfe7a	; ????
     276:	90 98       	cbi	0x12, 0	; 18
     278:	94 62       	ori	r25, 0x24	; 36
     27a:	62 92       	st	-Z, r6
     27c:	92 92       	st	-Z, r9
     27e:	8c 80       	ldd	r8, Y+4	; 0x04
     280:	80 fe       	sbrs	r8, 0
     282:	80 80       	ld	r8, Z
     284:	fc 02       	muls	r31, r28
     286:	02 02       	muls	r16, r18
     288:	fc f8       	.word	0xf8fc	; ????
     28a:	04 02       	muls	r16, r20
     28c:	04 f8       	bld	r0, 4
     28e:	fc 02       	muls	r31, r28
     290:	1c 02       	muls	r17, r28
     292:	fc c6       	rjmp	.+3576   	; 0x108c <SYS_set_state+0x18>
     294:	28 10       	cpse	r2, r8
     296:	28 c6       	rjmp	.+3152   	; 0xee8 <STEPPER_step+0xb8>
     298:	e0 10       	cpse	r14, r0
     29a:	0e 10       	cpse	r0, r14
     29c:	e0 86       	std	Z+8, r14	; 0x08
     29e:	8a 92       	st	-Y, r8
     2a0:	a2 c2       	rjmp	.+1348   	; 0x7e6 <LCD_open+0xcc>
     2a2:	00 fe       	sbrs	r0, 0
     2a4:	82 82       	std	Z+2, r8	; 0x02
     2a6:	00 40       	sbci	r16, 0x00	; 0
     2a8:	20 10       	cpse	r2, r0
     2aa:	08 04       	cpc	r0, r8
     2ac:	00 82       	st	Z, r0
     2ae:	82 fe       	sbrs	r8, 2
     2b0:	00 20       	and	r0, r0
     2b2:	40 80       	ld	r4, Z
     2b4:	40 20       	and	r4, r0
     2b6:	02 02       	muls	r16, r18
     2b8:	02 02       	muls	r16, r18
     2ba:	02 00       	.word	0x0002	; ????
     2bc:	80 40       	sbci	r24, 0x00	; 0
     2be:	20 00       	.word	0x0020	; ????
     2c0:	04 2a       	or	r0, r20
     2c2:	2a 2a       	or	r2, r26
     2c4:	1e fe       	.word	0xfe1e	; ????
     2c6:	12 22       	and	r1, r18
     2c8:	22 1c       	adc	r2, r2
     2ca:	1c 22       	and	r1, r28
     2cc:	22 22       	and	r2, r18
     2ce:	04 1c       	adc	r0, r4
     2d0:	22 22       	and	r2, r18
     2d2:	12 fe       	sbrs	r1, 2
     2d4:	1c 2a       	or	r1, r28
     2d6:	2a 2a       	or	r2, r26
     2d8:	18 10       	cpse	r1, r8
     2da:	7e 90       	ld	r7, -X
     2dc:	80 40       	sbci	r24, 0x00	; 0
     2de:	30 4a       	sbci	r19, 0xA0	; 160
     2e0:	4a 4a       	sbci	r20, 0xAA	; 170
     2e2:	7c fe       	.word	0xfe7c	; ????
     2e4:	10 20       	and	r1, r0
     2e6:	20 1e       	adc	r2, r16
     2e8:	00 22       	and	r0, r16
     2ea:	be 02       	muls	r27, r30
     2ec:	00 04       	cpc	r0, r0
     2ee:	02 22       	and	r0, r18
     2f0:	bc 00       	.word	0x00bc	; ????
     2f2:	fe 08       	sbc	r15, r14
     2f4:	14 22       	and	r1, r20
     2f6:	00 00       	nop
     2f8:	82 fe       	sbrs	r8, 2
     2fa:	02 00       	.word	0x0002	; ????
     2fc:	3e 20       	and	r3, r14
     2fe:	18 20       	and	r1, r8
     300:	1e 3e       	cpi	r17, 0xEE	; 238
     302:	10 20       	and	r1, r0
     304:	20 1e       	adc	r2, r16
     306:	1c 22       	and	r1, r28
     308:	22 22       	and	r2, r18
     30a:	1c 3e       	cpi	r17, 0xEC	; 236
     30c:	28 28       	or	r2, r8
     30e:	28 10       	cpse	r2, r8
     310:	10 28       	or	r1, r0
     312:	28 18       	sub	r2, r8
     314:	3e 3e       	cpi	r19, 0xEE	; 238
     316:	10 20       	and	r1, r0
     318:	20 10       	cpse	r2, r0
     31a:	12 2a       	or	r1, r18
     31c:	2a 2a       	or	r2, r26
     31e:	04 20       	and	r0, r4
     320:	fc 22       	and	r15, r28
     322:	02 04       	cpc	r0, r2
     324:	3c 02       	muls	r19, r28
     326:	02 04       	cpc	r0, r2
     328:	3e 38       	cpi	r19, 0x8E	; 142
     32a:	04 02       	muls	r16, r20
     32c:	04 38       	cpi	r16, 0x84	; 132
     32e:	3c 02       	muls	r19, r28
     330:	0c 02       	muls	r16, r28
     332:	3c 22       	and	r3, r28
     334:	14 08       	sbc	r1, r4
     336:	14 22       	and	r1, r20
     338:	30 0a       	sbc	r3, r16
     33a:	0a 0a       	sbc	r0, r26
     33c:	3c 22       	and	r3, r28
     33e:	26 2a       	or	r2, r22
     340:	32 22       	and	r3, r18
     342:	00 10       	cpse	r0, r0
     344:	6c 82       	std	Y+4, r6	; 0x04
     346:	00 00       	nop
     348:	00 fe       	sbrs	r0, 0
     34a:	00 00       	nop
     34c:	00 82       	st	Z, r0
     34e:	6c 10       	cpse	r6, r12
     350:	00 08       	sbc	r0, r0
     352:	10 10       	cpse	r1, r0
     354:	08 10       	cpse	r0, r8
     356:	00 00       	nop
     358:	00 00       	nop
     35a:	00 7f       	andi	r16, 0xF0	; 240
     35c:	81 81       	ldd	r24, Z+1	; 0x01
     35e:	81 7f       	andi	r24, 0xF1	; 241
     360:	7f 83       	std	Y+7, r23	; 0x07
     362:	83 83       	std	Z+3, r24	; 0x03
     364:	7f 7f       	andi	r23, 0xFF	; 255
     366:	87 87       	std	Z+15, r24	; 0x0f
     368:	87 7f       	andi	r24, 0xF7	; 247
     36a:	7f 8f       	std	Y+31, r23	; 0x1f
     36c:	8f 8f       	std	Y+31, r24	; 0x1f
     36e:	7f 7f       	andi	r23, 0xFF	; 255
     370:	9f 9f       	mul	r25, r31
     372:	9f 7f       	andi	r25, 0xFF	; 255
     374:	7f bf       	out	0x3f, r23	; 63
     376:	bf bf       	out	0x3f, r27	; 63
     378:	7f 7f       	andi	r23, 0xFF	; 255
     37a:	ff ff       	.word	0xffff	; ????
     37c:	ff 7f       	andi	r31, 0xFF	; 255
     37e:	20 40       	sbci	r18, 0x00	; 0
     380:	ff 40       	sbci	r31, 0x0F	; 15
     382:	20 62       	ori	r18, 0x20	; 32
     384:	15 17       	cp	r17, r21
     386:	15 65       	ori	r17, 0x55	; 85
     388:	00 fb       	bst	r16, 0
     38a:	fb 00       	.word	0x00fb	; ????
	...

0000038d <CEENBoT_Inc_logo_bitmap>:
     38d:	00 00 00 00 00 c0 ff 03 00 e0 ff 07 00 f0 ff 0f     ................
     39d:	00 f8 ff 1f 00 78 00 1e 00 78 00 1e 00 78 00 1e     .....x...x...x..
     3ad:	00 78 00 1e 00 78 00 1e 00 78 00 1e 00 78 00 1e     .x...x...x...x..
     3bd:	00 78 00 1e 00 78 00 1e 00 00 00 00 00 00 00 00     .x...x..........
     3cd:	00 80 ff 03 00 e0 ff 07 00 f0 ff 0f 00 f8 ff 1f     ................
     3dd:	00 f8 3c 1f 00 78 3c 1e 00 78 3c 1e 00 78 3c 1e     ..<..x<..x<..x<.
     3ed:	00 78 3c 1e 00 78 3c 1e 00 78 3c 1e 00 78 3c 1e     .x<..x<..x<..x<.
     3fd:	00 78 3c 1e 00 78 3c 1e 00 78 3c 1e 00 00 00 00     .x<..x<..x<.....
     40d:	00 00 00 00 00 e0 ff 03 00 f0 ff 07 00 f8 ff 0f     ................
     41d:	00 f8 ff 1f 00 78 3c 1e 00 78 3c 1e 00 78 3c 1e     .....x<..x<..x<.
     42d:	00 78 3c 1e 00 78 3c 1e 00 78 3c 1e 00 78 3c 1e     .x<..x<..x<..x<.
     43d:	00 78 3c 1e 00 78 3c 1e 00 78 3c 1e 00 00 00 00     .x<..x<..x<.....
     44d:	00 00 00 00 00 f8 ff 03 00 f8 ff 0f 00 f8 ff 1f     ................
     45d:	00 f8 ff 1f 00 00 00 1e 00 00 00 1e 00 00 80 1f     ................
     46d:	00 00 f0 1f 00 00 ff 0f 00 e0 ff 07 00 f0 ff 00     ................
     47d:	00 f8 0f 00 00 f8 00 00 00 78 00 00 00 78 00 00     .........x...x..
     48d:	00 f8 ff 1f 00 f8 ff 1f 00 f0 ff 1f 00 e0 ff 1f     ................
	...
     4a5:	00 f8 ff 1f 00 f8 ff 1f 00 f8 ff 1f 00 f8 ff 1f     ................
     4b5:	00 78 00 1e 00 78 3c 1e 00 78 3c 1e 00 78 3c 1e     .x...x<..x<..x<.
     4c5:	00 78 3c 1e 00 78 3c 1e 00 78 3c 1e 00 f8 7e 1f     .x<..x<..x<...~.
     4d5:	00 f8 ff 1f 00 f0 ff 0f 00 e0 e7 03 00 00 00 00     ................
     4e5:	00 00 00 38 00 ee ff 6c 00 2a 80 45 00 3a 00 47     ...8...l.*.E.:.G
     4f5:	fc 03 ff 6c fc 83 ff 39 00 de ff 0b 7c d0 81 0b     ...l...9....|...
     505:	fc d0 81 0b c0 d0 81 0b fc d0 81 0b 7c de ff 0b     ............|...
     515:	00 82 ff 39 70 02 ff 6c f8 3a 00 47 dc 2a 80 45     ...9p..l.:.G.*.E
     525:	cc ee ff 6c cc 00 00 38 00 00 00 00 0c 00 00 1e     ...l...8........
     535:	0c 00 00 1e 00 00 00 1e 00 00 00 1e 00 00 00 1e     ................
     545:	00 f8 ff 1f 00 f8 ff 1f 00 f8 ff 1f 00 f8 ff 1f     ................
     555:	00 00 00 1e 00 00 00 1e 00 00 00 1e 00 00 00 1e     ................
     565:	00 00 00 5e 00 00 00 40 00 00 00 7c 00 00 00 40     ...^...@...|...@
     575:	00 00 00 40 00 00 00 7c 00 00 00 30 00 00 00 10     ...@...|...0....
     585:	00 00 00 30 00 00 00 7c                             ...0...|

0000058d <__c.2161>:
     58d:	6e 61 6e 00                                         nan.

00000591 <__c.2159>:
     591:	69 6e 66 00 00 40 7a 10 f3 5a 00 a0 72 4e 18 09     inf..@z..Z..rN..
     5a1:	00 10 a5 d4 e8 00 00 e8 76 48 17 00 00 e4 0b 54     ........vH.....T
     5b1:	02 00 00 ca 9a 3b 00 00 00 e1 f5 05 00 00 80 96     .....;..........
     5c1:	98 00 00 00 40 42 0f 00 00 00 a0 86 01 00 00 00     ....@B..........
     5d1:	10 27 00 00 00 00 e8 03 00 00 00 00 64 00 00 00     .'..........d...
     5e1:	00 00 0a 00 00 00 00 00 01 00 00 00 00 00 2c 76     ..............,v
     5f1:	d8 88 dc 67 4f 08 23 df c1 df ae 59 e1 b1 b7 96     ...gO.#....Y....
     601:	e5 e3 e4 53 c6 3a e6 51 99 76 96 e8 e6 c2 84 26     ...S.:.Q.v.....&
     611:	eb 89 8c 9b 62 ed 40 7c 6f fc ef bc 9c 9f 40 f2     ....b.@|o.....@.
     621:	ba a5 6f a5 f4 90 05 5a 2a f7 5c 93 6b 6c f9 67     ..o....Z*.\.kl.g
     631:	6d c1 1b fc e0 e4 0d 47 fe f5 20 e6 b5 00 d0 ed     m......G.. .....
     641:	90 2e 03 00 94 35 77 05 00 80 84 1e 08 00 00 20     .....5w........ 
     651:	4e 0a 00 00 00 c8 0c 33 33 33 33 0f 98 6e 12 83     N......3333..n..
     661:	11 41 ef 8d 21 14 89 3b e6 55 16 cf fe e6 db 18     .A..!..;.U......
     671:	d1 84 4b 38 1b f7 7c 1d 90 1d a4 bb e4 24 20 32     ..K8..|......$ 2
     681:	84 72 5e 22 81 00 c9 f1 24 ec a1 e5 3d 27 00        .r^"....$...='.

00000690 <__ctors_end>:
     690:	11 24       	eor	r1, r1
     692:	1f be       	out	0x3f, r1	; 63
     694:	cf ef       	ldi	r28, 0xFF	; 255
     696:	d8 e0       	ldi	r29, 0x08	; 8
     698:	de bf       	out	0x3e, r29	; 62
     69a:	cd bf       	out	0x3d, r28	; 61

0000069c <__do_copy_data>:
     69c:	11 e0       	ldi	r17, 0x01	; 1
     69e:	a0 e0       	ldi	r26, 0x00	; 0
     6a0:	b1 e0       	ldi	r27, 0x01	; 1
     6a2:	e8 ef       	ldi	r30, 0xF8	; 248
     6a4:	f6 e4       	ldi	r31, 0x46	; 70
     6a6:	02 c0       	rjmp	.+4      	; 0x6ac <__do_copy_data+0x10>
     6a8:	05 90       	lpm	r0, Z+
     6aa:	0d 92       	st	X+, r0
     6ac:	aa 3d       	cpi	r26, 0xDA	; 218
     6ae:	b1 07       	cpc	r27, r17
     6b0:	d9 f7       	brne	.-10     	; 0x6a8 <__do_copy_data+0xc>

000006b2 <__do_clear_bss>:
     6b2:	22 e0       	ldi	r18, 0x02	; 2
     6b4:	aa ed       	ldi	r26, 0xDA	; 218
     6b6:	b1 e0       	ldi	r27, 0x01	; 1
     6b8:	01 c0       	rjmp	.+2      	; 0x6bc <.do_clear_bss_start>

000006ba <.do_clear_bss_loop>:
     6ba:	1d 92       	st	X+, r1

000006bc <.do_clear_bss_start>:
     6bc:	a2 3d       	cpi	r26, 0xD2	; 210
     6be:	b2 07       	cpc	r27, r18
     6c0:	e1 f7       	brne	.-8      	; 0x6ba <.do_clear_bss_loop>
     6c2:	0e 94 67 03 	call	0x6ce	; 0x6ce <main>
     6c6:	0c 94 7a 23 	jmp	0x46f4	; 0x46f4 <_exit>

000006ca <__bad_interrupt>:
     6ca:	0c 94 00 00 	jmp	0	; 0x0 <__vectors>

000006ce <main>:
     6ce:	0e 94 8b 09 	call	0x1316	; 0x1316 <CBOT_ISR_init>
     6d2:	0e 94 7d 09 	call	0x12fa	; 0x12fa <CBOT_init>
     6d6:	0e 94 d2 16 	call	0x2da4	; 0x2da4 <CBOT_main>
     6da:	80 e0       	ldi	r24, 0x00	; 0
     6dc:	90 e0       	ldi	r25, 0x00	; 0
     6de:	08 95       	ret

000006e0 <LCD_clear>:
     6e0:	0f 93       	push	r16
     6e2:	1f 93       	push	r17
     6e4:	80 e4       	ldi	r24, 0x40	; 64
     6e6:	60 e0       	ldi	r22, 0x00	; 0
     6e8:	0e 94 4f 04 	call	0x89e	; 0x89e <LCD_write>
     6ec:	00 e0       	ldi	r16, 0x00	; 0
     6ee:	80 2f       	mov	r24, r16
     6f0:	60 e0       	ldi	r22, 0x00	; 0
     6f2:	0e 94 36 04 	call	0x86c	; 0x86c <LCD_set_PGC_addr>
     6f6:	10 e0       	ldi	r17, 0x00	; 0
     6f8:	80 e0       	ldi	r24, 0x00	; 0
     6fa:	61 e0       	ldi	r22, 0x01	; 1
     6fc:	0e 94 4f 04 	call	0x89e	; 0x89e <LCD_write>
     700:	1f 5f       	subi	r17, 0xFF	; 255
     702:	10 38       	cpi	r17, 0x80	; 128
     704:	c9 f7       	brne	.-14     	; 0x6f8 <LCD_clear+0x18>
     706:	0f 5f       	subi	r16, 0xFF	; 255
     708:	04 30       	cpi	r16, 0x04	; 4
     70a:	89 f7       	brne	.-30     	; 0x6ee <LCD_clear+0xe>
     70c:	83 e0       	ldi	r24, 0x03	; 3
     70e:	60 e0       	ldi	r22, 0x00	; 0
     710:	0e 94 2f 04 	call	0x85e	; 0x85e <LCD_set_next_PGC>
     714:	1f 91       	pop	r17
     716:	0f 91       	pop	r16
     718:	08 95       	ret

0000071a <LCD_open>:
     71a:	0f 93       	push	r16
     71c:	1f 93       	push	r17
     71e:	82 e0       	ldi	r24, 0x02	; 2
     720:	0e 94 f2 07 	call	0xfe4	; 0xfe4 <SYS_get_state>
     724:	88 23       	and	r24, r24
     726:	11 f4       	brne	.+4      	; 0x72c <LCD_open+0x12>
     728:	82 e0       	ldi	r24, 0x02	; 2
     72a:	06 c0       	rjmp	.+12     	; 0x738 <LCD_open+0x1e>
     72c:	81 e0       	ldi	r24, 0x01	; 1
     72e:	0e 94 f2 07 	call	0xfe4	; 0xfe4 <SYS_get_state>
     732:	88 23       	and	r24, r24
     734:	19 f4       	brne	.+6      	; 0x73c <LCD_open+0x22>
     736:	81 e0       	ldi	r24, 0x01	; 1
     738:	90 e0       	ldi	r25, 0x00	; 0
     73a:	6d c0       	rjmp	.+218    	; 0x816 <LCD_open+0xfc>
     73c:	0e 94 df 0b 	call	0x17be	; 0x17be <__LCD_init>
     740:	85 e0       	ldi	r24, 0x05	; 5
     742:	61 e0       	ldi	r22, 0x01	; 1
     744:	0e 94 3a 08 	call	0x1074	; 0x1074 <SYS_set_state>
     748:	8e ea       	ldi	r24, 0xAE	; 174
     74a:	60 e0       	ldi	r22, 0x00	; 0
     74c:	0e 94 4f 04 	call	0x89e	; 0x89e <LCD_write>
     750:	82 ea       	ldi	r24, 0xA2	; 162
     752:	60 e0       	ldi	r22, 0x00	; 0
     754:	0e 94 4f 04 	call	0x89e	; 0x89e <LCD_write>
     758:	80 ea       	ldi	r24, 0xA0	; 160
     75a:	60 e0       	ldi	r22, 0x00	; 0
     75c:	0e 94 4f 04 	call	0x89e	; 0x89e <LCD_write>
     760:	00 e5       	ldi	r16, 0x50	; 80
     762:	13 ec       	ldi	r17, 0xC3	; 195
     764:	c8 01       	movw	r24, r16
     766:	01 97       	sbiw	r24, 0x01	; 1
     768:	f1 f7       	brne	.-4      	; 0x766 <LCD_open+0x4c>
     76a:	80 ec       	ldi	r24, 0xC0	; 192
     76c:	60 e0       	ldi	r22, 0x00	; 0
     76e:	0e 94 4f 04 	call	0x89e	; 0x89e <LCD_write>
     772:	8f e2       	ldi	r24, 0x2F	; 47
     774:	60 e0       	ldi	r22, 0x00	; 0
     776:	0e 94 4f 04 	call	0x89e	; 0x89e <LCD_write>
     77a:	81 e8       	ldi	r24, 0x81	; 129
     77c:	60 e0       	ldi	r22, 0x00	; 0
     77e:	0e 94 4f 04 	call	0x89e	; 0x89e <LCD_write>
     782:	86 e1       	ldi	r24, 0x16	; 22
     784:	60 e0       	ldi	r22, 0x00	; 0
     786:	0e 94 4f 04 	call	0x89e	; 0x89e <LCD_write>
     78a:	82 e2       	ldi	r24, 0x22	; 34
     78c:	60 e0       	ldi	r22, 0x00	; 0
     78e:	0e 94 4f 04 	call	0x89e	; 0x89e <LCD_write>
     792:	c8 01       	movw	r24, r16
     794:	01 97       	sbiw	r24, 0x01	; 1
     796:	f1 f7       	brne	.-4      	; 0x794 <LCD_open+0x7a>
     798:	8f ea       	ldi	r24, 0xAF	; 175
     79a:	60 e0       	ldi	r22, 0x00	; 0
     79c:	0e 94 4f 04 	call	0x89e	; 0x89e <LCD_write>
     7a0:	86 ea       	ldi	r24, 0xA6	; 166
     7a2:	60 e0       	ldi	r22, 0x00	; 0
     7a4:	0e 94 4f 04 	call	0x89e	; 0x89e <LCD_write>
     7a8:	85 ea       	ldi	r24, 0xA5	; 165
     7aa:	60 e0       	ldi	r22, 0x00	; 0
     7ac:	0e 94 4f 04 	call	0x89e	; 0x89e <LCD_write>
     7b0:	80 e0       	ldi	r24, 0x00	; 0
     7b2:	90 e0       	ldi	r25, 0x00	; 0
     7b4:	28 e8       	ldi	r18, 0x88	; 136
     7b6:	33 e1       	ldi	r19, 0x13	; 19
     7b8:	f9 01       	movw	r30, r18
     7ba:	31 97       	sbiw	r30, 0x01	; 1
     7bc:	f1 f7       	brne	.-4      	; 0x7ba <LCD_open+0xa0>
     7be:	01 96       	adiw	r24, 0x01	; 1
     7c0:	43 e0       	ldi	r20, 0x03	; 3
     7c2:	88 3e       	cpi	r24, 0xE8	; 232
     7c4:	94 07       	cpc	r25, r20
     7c6:	c1 f7       	brne	.-16     	; 0x7b8 <LCD_open+0x9e>
     7c8:	83 eb       	ldi	r24, 0xB3	; 179
     7ca:	60 e0       	ldi	r22, 0x00	; 0
     7cc:	0e 94 4f 04 	call	0x89e	; 0x89e <LCD_write>
     7d0:	80 e4       	ldi	r24, 0x40	; 64
     7d2:	60 e0       	ldi	r22, 0x00	; 0
     7d4:	0e 94 4f 04 	call	0x89e	; 0x89e <LCD_write>
     7d8:	83 e0       	ldi	r24, 0x03	; 3
     7da:	60 e0       	ldi	r22, 0x00	; 0
     7dc:	0e 94 36 04 	call	0x86c	; 0x86c <LCD_set_PGC_addr>
     7e0:	83 e0       	ldi	r24, 0x03	; 3
     7e2:	60 e0       	ldi	r22, 0x00	; 0
     7e4:	0e 94 2f 04 	call	0x85e	; 0x85e <LCD_set_next_PGC>
     7e8:	10 92 a3 02 	sts	0x02A3, r1
     7ec:	10 92 a5 02 	sts	0x02A5, r1
     7f0:	10 92 a4 02 	sts	0x02A4, r1
     7f4:	8e e0       	ldi	r24, 0x0E	; 14
     7f6:	91 e0       	ldi	r25, 0x01	; 1
     7f8:	90 93 cf 02 	sts	0x02CF, r25
     7fc:	80 93 ce 02 	sts	0x02CE, r24
     800:	88 e1       	ldi	r24, 0x18	; 24
     802:	0e 94 0e 04 	call	0x81c	; 0x81c <LCD_set_backlight>
     806:	0e 94 70 03 	call	0x6e0	; 0x6e0 <LCD_clear>
     80a:	84 ea       	ldi	r24, 0xA4	; 164
     80c:	60 e0       	ldi	r22, 0x00	; 0
     80e:	0e 94 4f 04 	call	0x89e	; 0x89e <LCD_write>
     812:	85 e0       	ldi	r24, 0x05	; 5
     814:	91 e0       	ldi	r25, 0x01	; 1
     816:	1f 91       	pop	r17
     818:	0f 91       	pop	r16
     81a:	08 95       	ret

0000081c <LCD_set_backlight>:
     81c:	1f 93       	push	r17
     81e:	18 2f       	mov	r17, r24
     820:	85 e0       	ldi	r24, 0x05	; 5
     822:	0e 94 f2 07 	call	0xfe4	; 0xfe4 <SYS_get_state>
     826:	81 30       	cpi	r24, 0x01	; 1
     828:	c1 f4       	brne	.+48     	; 0x85a <LCD_set_backlight+0x3e>
     82a:	87 e0       	ldi	r24, 0x07	; 7
     82c:	0e 94 6a 04 	call	0x8d4	; 0x8d4 <SPI_set_slave_addr>
     830:	82 e0       	ldi	r24, 0x02	; 2
     832:	6a e0       	ldi	r22, 0x0A	; 10
     834:	0e 94 bb 04 	call	0x976	; 0x976 <SPI_transmit>
     838:	82 e0       	ldi	r24, 0x02	; 2
     83a:	61 eb       	ldi	r22, 0xB1	; 177
     83c:	0e 94 bb 04 	call	0x976	; 0x976 <SPI_transmit>
     840:	61 2f       	mov	r22, r17
     842:	11 32       	cpi	r17, 0x21	; 33
     844:	08 f0       	brcs	.+2      	; 0x848 <LCD_set_backlight+0x2c>
     846:	60 e2       	ldi	r22, 0x20	; 32
     848:	82 e0       	ldi	r24, 0x02	; 2
     84a:	0e 94 bb 04 	call	0x976	; 0x976 <SPI_transmit>
     84e:	89 ee       	ldi	r24, 0xE9	; 233
     850:	8a 95       	dec	r24
     852:	f1 f7       	brne	.-4      	; 0x850 <LCD_set_backlight+0x34>
     854:	87 e0       	ldi	r24, 0x07	; 7
     856:	0e 94 6a 04 	call	0x8d4	; 0x8d4 <SPI_set_slave_addr>
     85a:	1f 91       	pop	r17
     85c:	08 95       	ret

0000085e <LCD_set_next_PGC>:
     85e:	83 70       	andi	r24, 0x03	; 3
     860:	6f 77       	andi	r22, 0x7F	; 127
     862:	60 93 a1 02 	sts	0x02A1, r22
     866:	80 93 a2 02 	sts	0x02A2, r24
     86a:	08 95       	ret

0000086c <LCD_set_PGC_addr>:
     86c:	0f 93       	push	r16
     86e:	1f 93       	push	r17
     870:	06 2f       	mov	r16, r22
     872:	16 2f       	mov	r17, r22
     874:	1f 77       	andi	r17, 0x7F	; 127
     876:	83 70       	andi	r24, 0x03	; 3
     878:	80 6b       	ori	r24, 0xB0	; 176
     87a:	60 e0       	ldi	r22, 0x00	; 0
     87c:	0e 94 4f 04 	call	0x89e	; 0x89e <LCD_write>
     880:	12 95       	swap	r17
     882:	1f 70       	andi	r17, 0x0F	; 15
     884:	81 2f       	mov	r24, r17
     886:	80 61       	ori	r24, 0x10	; 16
     888:	60 e0       	ldi	r22, 0x00	; 0
     88a:	0e 94 4f 04 	call	0x89e	; 0x89e <LCD_write>
     88e:	80 2f       	mov	r24, r16
     890:	8f 70       	andi	r24, 0x0F	; 15
     892:	60 e0       	ldi	r22, 0x00	; 0
     894:	0e 94 4f 04 	call	0x89e	; 0x89e <LCD_write>
     898:	1f 91       	pop	r17
     89a:	0f 91       	pop	r16
     89c:	08 95       	ret

0000089e <LCD_write>:
     89e:	0f 93       	push	r16
     8a0:	1f 93       	push	r17
     8a2:	08 2f       	mov	r16, r24
     8a4:	16 2f       	mov	r17, r22
     8a6:	85 e0       	ldi	r24, 0x05	; 5
     8a8:	0e 94 f2 07 	call	0xfe4	; 0xfe4 <SYS_get_state>
     8ac:	81 30       	cpi	r24, 0x01	; 1
     8ae:	79 f4       	brne	.+30     	; 0x8ce <LCD_write+0x30>
     8b0:	11 23       	and	r17, r17
     8b2:	19 f0       	breq	.+6      	; 0x8ba <LCD_write+0x1c>
     8b4:	11 30       	cpi	r17, 0x01	; 1
     8b6:	21 f4       	brne	.+8      	; 0x8c0 <LCD_write+0x22>
     8b8:	02 c0       	rjmp	.+4      	; 0x8be <LCD_write+0x20>
     8ba:	2b 98       	cbi	0x05, 3	; 5
     8bc:	01 c0       	rjmp	.+2      	; 0x8c0 <LCD_write+0x22>
     8be:	2b 9a       	sbi	0x05, 3	; 5
     8c0:	86 e0       	ldi	r24, 0x06	; 6
     8c2:	8a 95       	dec	r24
     8c4:	f1 f7       	brne	.-4      	; 0x8c2 <LCD_write+0x24>
     8c6:	80 e0       	ldi	r24, 0x00	; 0
     8c8:	60 2f       	mov	r22, r16
     8ca:	0e 94 bb 04 	call	0x976	; 0x976 <SPI_transmit>
     8ce:	1f 91       	pop	r17
     8d0:	0f 91       	pop	r16
     8d2:	08 95       	ret

000008d4 <SPI_set_slave_addr>:
     8d4:	1f 93       	push	r17
     8d6:	18 2f       	mov	r17, r24
     8d8:	82 e0       	ldi	r24, 0x02	; 2
     8da:	0e 94 f2 07 	call	0xfe4	; 0xfe4 <SYS_get_state>
     8de:	81 30       	cpi	r24, 0x01	; 1
     8e0:	09 f0       	breq	.+2      	; 0x8e4 <SPI_set_slave_addr+0x10>
     8e2:	47 c0       	rjmp	.+142    	; 0x972 <__stack+0x73>
     8e4:	91 2f       	mov	r25, r17
     8e6:	97 70       	andi	r25, 0x07	; 7
     8e8:	80 91 a6 02 	lds	r24, 0x02A6
     8ec:	98 17       	cp	r25, r24
     8ee:	09 f4       	brne	.+2      	; 0x8f2 <SPI_set_slave_addr+0x1e>
     8f0:	40 c0       	rjmp	.+128    	; 0x972 <__stack+0x73>
     8f2:	90 93 a6 02 	sts	0x02A6, r25
     8f6:	85 b1       	in	r24, 0x05	; 5
     8f8:	88 7f       	andi	r24, 0xF8	; 248
     8fa:	89 2b       	or	r24, r25
     8fc:	85 b9       	out	0x05, r24	; 5
     8fe:	93 30       	cpi	r25, 0x03	; 3
     900:	11 f1       	breq	.+68     	; 0x946 <__stack+0x47>
     902:	94 30       	cpi	r25, 0x04	; 4
     904:	28 f4       	brcc	.+10     	; 0x910 <__stack+0x11>
     906:	91 30       	cpi	r25, 0x01	; 1
     908:	51 f0       	breq	.+20     	; 0x91e <__stack+0x1f>
     90a:	92 30       	cpi	r25, 0x02	; 2
     90c:	90 f4       	brcc	.+36     	; 0x932 <__stack+0x33>
     90e:	0c c0       	rjmp	.+24     	; 0x928 <__stack+0x29>
     910:	95 30       	cpi	r25, 0x05	; 5
     912:	19 f1       	breq	.+70     	; 0x95a <__stack+0x5b>
     914:	95 30       	cpi	r25, 0x05	; 5
     916:	e0 f0       	brcs	.+56     	; 0x950 <__stack+0x51>
     918:	96 30       	cpi	r25, 0x06	; 6
     91a:	21 f5       	brne	.+72     	; 0x964 <__stack+0x65>
     91c:	0f c0       	rjmp	.+30     	; 0x93c <__stack+0x3d>
     91e:	e0 91 2c 02 	lds	r30, 0x022C
     922:	f0 91 2d 02 	lds	r31, 0x022D
     926:	22 c0       	rjmp	.+68     	; 0x96c <__stack+0x6d>
     928:	e0 91 2a 02 	lds	r30, 0x022A
     92c:	f0 91 2b 02 	lds	r31, 0x022B
     930:	1d c0       	rjmp	.+58     	; 0x96c <__stack+0x6d>
     932:	e0 91 2e 02 	lds	r30, 0x022E
     936:	f0 91 2f 02 	lds	r31, 0x022F
     93a:	18 c0       	rjmp	.+48     	; 0x96c <__stack+0x6d>
     93c:	e0 91 36 02 	lds	r30, 0x0236
     940:	f0 91 37 02 	lds	r31, 0x0237
     944:	13 c0       	rjmp	.+38     	; 0x96c <__stack+0x6d>
     946:	e0 91 30 02 	lds	r30, 0x0230
     94a:	f0 91 31 02 	lds	r31, 0x0231
     94e:	0e c0       	rjmp	.+28     	; 0x96c <__stack+0x6d>
     950:	e0 91 32 02 	lds	r30, 0x0232
     954:	f0 91 33 02 	lds	r31, 0x0233
     958:	09 c0       	rjmp	.+18     	; 0x96c <__stack+0x6d>
     95a:	e0 91 34 02 	lds	r30, 0x0234
     95e:	f0 91 35 02 	lds	r31, 0x0235
     962:	04 c0       	rjmp	.+8      	; 0x96c <__stack+0x6d>
     964:	e0 91 38 02 	lds	r30, 0x0238
     968:	f0 91 39 02 	lds	r31, 0x0239
     96c:	30 97       	sbiw	r30, 0x00	; 0
     96e:	09 f0       	breq	.+2      	; 0x972 <__stack+0x73>
     970:	09 95       	icall
     972:	1f 91       	pop	r17
     974:	08 95       	ret

00000976 <SPI_transmit>:
     976:	1f 93       	push	r17
     978:	16 2f       	mov	r17, r22
     97a:	0e 94 6a 04 	call	0x8d4	; 0x8d4 <SPI_set_slave_addr>
     97e:	82 e0       	ldi	r24, 0x02	; 2
     980:	0e 94 f2 07 	call	0xfe4	; 0xfe4 <SYS_get_state>
     984:	81 30       	cpi	r24, 0x01	; 1
     986:	21 f4       	brne	.+8      	; 0x990 <SPI_transmit+0x1a>
     988:	1e bd       	out	0x2e, r17	; 46
     98a:	0d b4       	in	r0, 0x2d	; 45
     98c:	07 fe       	sbrs	r0, 7
     98e:	fd cf       	rjmp	.-6      	; 0x98a <SPI_transmit+0x14>
     990:	1f 91       	pop	r17
     992:	08 95       	ret

00000994 <STEPPER_close>:
     994:	87 e0       	ldi	r24, 0x07	; 7
     996:	0e 94 f2 07 	call	0xfe4	; 0xfe4 <SYS_get_state>
     99a:	81 30       	cpi	r24, 0x01	; 1
     99c:	41 f4       	brne	.+16     	; 0x9ae <STEPPER_close+0x1a>
     99e:	80 93 8b 02 	sts	0x028B, r24
     9a2:	0e 94 5f 0e 	call	0x1cbe	; 0x1cbe <__STEPPER_close>
     9a6:	87 e0       	ldi	r24, 0x07	; 7
     9a8:	60 e0       	ldi	r22, 0x00	; 0
     9aa:	0e 94 3a 08 	call	0x1074	; 0x1074 <SYS_set_state>
     9ae:	08 95       	ret

000009b0 <STEPPER_stepmode>:
     9b0:	2f 92       	push	r2
     9b2:	3f 92       	push	r3
     9b4:	4f 92       	push	r4
     9b6:	5f 92       	push	r5
     9b8:	6f 92       	push	r6
     9ba:	7f 92       	push	r7
     9bc:	8f 92       	push	r8
     9be:	9f 92       	push	r9
     9c0:	af 92       	push	r10
     9c2:	bf 92       	push	r11
     9c4:	cf 92       	push	r12
     9c6:	df 92       	push	r13
     9c8:	ef 92       	push	r14
     9ca:	ff 92       	push	r15
     9cc:	0f 93       	push	r16
     9ce:	1f 93       	push	r17
     9d0:	df 93       	push	r29
     9d2:	cf 93       	push	r28
     9d4:	cd b7       	in	r28, 0x3d	; 61
     9d6:	de b7       	in	r29, 0x3e	; 62
     9d8:	58 2e       	mov	r5, r24
     9da:	96 2e       	mov	r9, r22
     9dc:	44 2e       	mov	r4, r20
     9de:	39 01       	movw	r6, r18
     9e0:	3c 2c       	mov	r3, r12
     9e2:	c9 8c       	ldd	r12, Y+25	; 0x19
     9e4:	da 8c       	ldd	r13, Y+26	; 0x1a
     9e6:	2b 8c       	ldd	r2, Y+27	; 0x1b
     9e8:	81 e0       	ldi	r24, 0x01	; 1
     9ea:	68 17       	cp	r22, r24
     9ec:	39 f1       	breq	.+78     	; 0xa3c <STEPPER_stepmode+0x8c>
     9ee:	68 17       	cp	r22, r24
     9f0:	28 f0       	brcs	.+10     	; 0x9fc <STEPPER_stepmode+0x4c>
     9f2:	92 e0       	ldi	r25, 0x02	; 2
     9f4:	69 17       	cp	r22, r25
     9f6:	09 f0       	breq	.+2      	; 0x9fa <STEPPER_stepmode+0x4a>
     9f8:	85 c0       	rjmp	.+266    	; 0xb04 <STEPPER_stepmode+0x154>
     9fa:	49 c0       	rjmp	.+146    	; 0xa8e <STEPPER_stepmode+0xde>
     9fc:	80 e0       	ldi	r24, 0x00	; 0
     9fe:	61 e0       	ldi	r22, 0x01	; 1
     a00:	0e 94 e1 06 	call	0xdc2	; 0xdc2 <STEPPER_set_mode>
     a04:	80 e0       	ldi	r24, 0x00	; 0
     a06:	b7 01       	movw	r22, r14
     a08:	0e 94 aa 06 	call	0xd54	; 0xd54 <STEPPER_set_accel>
     a0c:	80 e0       	ldi	r24, 0x00	; 0
     a0e:	64 2d       	mov	r22, r4
     a10:	a3 01       	movw	r20, r6
     a12:	98 01       	movw	r18, r16
     a14:	03 2d       	mov	r16, r3
     a16:	ee 24       	eor	r14, r14
     a18:	e3 94       	inc	r14
     a1a:	ec e8       	ldi	r30, 0x8C	; 140
     a1c:	ce 2e       	mov	r12, r30
     a1e:	e2 e0       	ldi	r30, 0x02	; 2
     a20:	de 2e       	mov	r13, r30
     a22:	0e 94 18 07 	call	0xe30	; 0xe30 <STEPPER_step>
     a26:	55 20       	and	r5, r5
     a28:	09 f0       	breq	.+2      	; 0xa2c <STEPPER_stepmode+0x7c>
     a2a:	6c c0       	rjmp	.+216    	; 0xb04 <STEPPER_stepmode+0x154>
     a2c:	00 d0       	rcall	.+0      	; 0xa2e <STEPPER_stepmode+0x7e>
     a2e:	0f 92       	push	r0
     a30:	ed b7       	in	r30, 0x3d	; 61
     a32:	fe b7       	in	r31, 0x3e	; 62
     a34:	11 82       	std	Z+1, r1	; 0x01
     a36:	b3 82       	std	Z+3, r11	; 0x03
     a38:	a2 82       	std	Z+2, r10	; 0x02
     a3a:	23 c0       	rjmp	.+70     	; 0xa82 <STEPPER_stepmode+0xd2>
     a3c:	81 e0       	ldi	r24, 0x01	; 1
     a3e:	61 e0       	ldi	r22, 0x01	; 1
     a40:	0e 94 e1 06 	call	0xdc2	; 0xdc2 <STEPPER_set_mode>
     a44:	81 e0       	ldi	r24, 0x01	; 1
     a46:	b6 01       	movw	r22, r12
     a48:	0e 94 aa 06 	call	0xd54	; 0xd54 <STEPPER_set_accel>
     a4c:	81 e0       	ldi	r24, 0x01	; 1
     a4e:	68 2d       	mov	r22, r8
     a50:	4d 89       	ldd	r20, Y+21	; 0x15
     a52:	5e 89       	ldd	r21, Y+22	; 0x16
     a54:	2f 89       	ldd	r18, Y+23	; 0x17
     a56:	38 8d       	ldd	r19, Y+24	; 0x18
     a58:	02 2d       	mov	r16, r2
     a5a:	ee 24       	eor	r14, r14
     a5c:	e3 94       	inc	r14
     a5e:	7c e8       	ldi	r23, 0x8C	; 140
     a60:	c7 2e       	mov	r12, r23
     a62:	72 e0       	ldi	r23, 0x02	; 2
     a64:	d7 2e       	mov	r13, r23
     a66:	0e 94 18 07 	call	0xe30	; 0xe30 <STEPPER_step>
     a6a:	55 20       	and	r5, r5
     a6c:	09 f0       	breq	.+2      	; 0xa70 <STEPPER_stepmode+0xc0>
     a6e:	4a c0       	rjmp	.+148    	; 0xb04 <STEPPER_stepmode+0x154>
     a70:	00 d0       	rcall	.+0      	; 0xa72 <STEPPER_stepmode+0xc2>
     a72:	0f 92       	push	r0
     a74:	ed b7       	in	r30, 0x3d	; 61
     a76:	fe b7       	in	r31, 0x3e	; 62
     a78:	91 82       	std	Z+1, r9	; 0x01
     a7a:	8c 8d       	ldd	r24, Y+28	; 0x1c
     a7c:	9d 8d       	ldd	r25, Y+29	; 0x1d
     a7e:	93 83       	std	Z+3, r25	; 0x03
     a80:	82 83       	std	Z+2, r24	; 0x02
     a82:	0e 94 a4 07 	call	0xf48	; 0xf48 <STEPPER_wait_and_then>
     a86:	0f 90       	pop	r0
     a88:	0f 90       	pop	r0
     a8a:	0f 90       	pop	r0
     a8c:	3b c0       	rjmp	.+118    	; 0xb04 <STEPPER_stepmode+0x154>
     a8e:	82 e0       	ldi	r24, 0x02	; 2
     a90:	61 e0       	ldi	r22, 0x01	; 1
     a92:	0e 94 e1 06 	call	0xdc2	; 0xdc2 <STEPPER_set_mode>
     a96:	80 e0       	ldi	r24, 0x00	; 0
     a98:	b7 01       	movw	r22, r14
     a9a:	0e 94 aa 06 	call	0xd54	; 0xd54 <STEPPER_set_accel>
     a9e:	81 e0       	ldi	r24, 0x01	; 1
     aa0:	b6 01       	movw	r22, r12
     aa2:	0e 94 aa 06 	call	0xd54	; 0xd54 <STEPPER_set_accel>
     aa6:	80 e0       	ldi	r24, 0x00	; 0
     aa8:	64 2d       	mov	r22, r4
     aaa:	a3 01       	movw	r20, r6
     aac:	98 01       	movw	r18, r16
     aae:	03 2d       	mov	r16, r3
     ab0:	ee 24       	eor	r14, r14
     ab2:	e3 94       	inc	r14
     ab4:	9c e8       	ldi	r25, 0x8C	; 140
     ab6:	c9 2e       	mov	r12, r25
     ab8:	92 e0       	ldi	r25, 0x02	; 2
     aba:	d9 2e       	mov	r13, r25
     abc:	0e 94 18 07 	call	0xe30	; 0xe30 <STEPPER_step>
     ac0:	81 e0       	ldi	r24, 0x01	; 1
     ac2:	68 2d       	mov	r22, r8
     ac4:	4d 89       	ldd	r20, Y+21	; 0x15
     ac6:	5e 89       	ldd	r21, Y+22	; 0x16
     ac8:	2f 89       	ldd	r18, Y+23	; 0x17
     aca:	38 8d       	ldd	r19, Y+24	; 0x18
     acc:	02 2d       	mov	r16, r2
     ace:	0e 94 18 07 	call	0xe30	; 0xe30 <STEPPER_step>
     ad2:	55 20       	and	r5, r5
     ad4:	b9 f4       	brne	.+46     	; 0xb04 <STEPPER_stepmode+0x154>
     ad6:	00 d0       	rcall	.+0      	; 0xad8 <STEPPER_stepmode+0x128>
     ad8:	00 d0       	rcall	.+0      	; 0xada <STEPPER_stepmode+0x12a>
     ada:	0f 92       	push	r0
     adc:	ad b7       	in	r26, 0x3d	; 61
     ade:	be b7       	in	r27, 0x3e	; 62
     ae0:	11 96       	adiw	r26, 0x01	; 1
     ae2:	ed b7       	in	r30, 0x3d	; 61
     ae4:	fe b7       	in	r31, 0x3e	; 62
     ae6:	91 82       	std	Z+1, r9	; 0x01
     ae8:	fd 01       	movw	r30, r26
     aea:	b2 82       	std	Z+2, r11	; 0x02
     aec:	a1 82       	std	Z+1, r10	; 0x01
     aee:	8c 8d       	ldd	r24, Y+28	; 0x1c
     af0:	9d 8d       	ldd	r25, Y+29	; 0x1d
     af2:	94 83       	std	Z+4, r25	; 0x04
     af4:	83 83       	std	Z+3, r24	; 0x03
     af6:	0e 94 a4 07 	call	0xf48	; 0xf48 <STEPPER_wait_and_then>
     afa:	0f 90       	pop	r0
     afc:	0f 90       	pop	r0
     afe:	0f 90       	pop	r0
     b00:	0f 90       	pop	r0
     b02:	0f 90       	pop	r0
     b04:	cf 91       	pop	r28
     b06:	df 91       	pop	r29
     b08:	1f 91       	pop	r17
     b0a:	0f 91       	pop	r16
     b0c:	ff 90       	pop	r15
     b0e:	ef 90       	pop	r14
     b10:	df 90       	pop	r13
     b12:	cf 90       	pop	r12
     b14:	bf 90       	pop	r11
     b16:	af 90       	pop	r10
     b18:	9f 90       	pop	r9
     b1a:	8f 90       	pop	r8
     b1c:	7f 90       	pop	r7
     b1e:	6f 90       	pop	r6
     b20:	5f 90       	pop	r5
     b22:	4f 90       	pop	r4
     b24:	3f 90       	pop	r3
     b26:	2f 90       	pop	r2
     b28:	08 95       	ret

00000b2a <STEPPER_move>:
     b2a:	6f 92       	push	r6
     b2c:	7f 92       	push	r7
     b2e:	8f 92       	push	r8
     b30:	9f 92       	push	r9
     b32:	af 92       	push	r10
     b34:	bf 92       	push	r11
     b36:	cf 92       	push	r12
     b38:	df 92       	push	r13
     b3a:	ef 92       	push	r14
     b3c:	ff 92       	push	r15
     b3e:	0f 93       	push	r16
     b40:	1f 93       	push	r17
     b42:	df 93       	push	r29
     b44:	cf 93       	push	r28
     b46:	cd b7       	in	r28, 0x3d	; 61
     b48:	de b7       	in	r29, 0x3e	; 62
     b4a:	94 2e       	mov	r9, r20
     b4c:	7c 2d       	mov	r23, r12
     b4e:	d5 01       	movw	r26, r10
     b50:	49 89       	ldd	r20, Y+17	; 0x11
     b52:	5a 89       	ldd	r21, Y+18	; 0x12
     b54:	ab 88       	ldd	r10, Y+19	; 0x13
     b56:	bc 88       	ldd	r11, Y+20	; 0x14
     b58:	cd 88       	ldd	r12, Y+21	; 0x15
     b5a:	de 88       	ldd	r13, Y+22	; 0x16
     b5c:	9f 89       	ldd	r25, Y+23	; 0x17
     b5e:	81 30       	cpi	r24, 0x01	; 1
     b60:	09 f4       	brne	.+2      	; 0xb64 <STEPPER_move+0x3a>
     b62:	57 c0       	rjmp	.+174    	; 0xc12 <STEPPER_move+0xe8>
     b64:	81 30       	cpi	r24, 0x01	; 1
     b66:	b8 f1       	brcs	.+110    	; 0xbd6 <STEPPER_move+0xac>
     b68:	82 30       	cpi	r24, 0x02	; 2
     b6a:	09 f0       	breq	.+2      	; 0xb6e <STEPPER_move+0x44>
     b6c:	76 c0       	rjmp	.+236    	; 0xc5a <STEPPER_move+0x130>
     b6e:	61 30       	cpi	r22, 0x01	; 1
     b70:	91 f0       	breq	.+36     	; 0xb96 <STEPPER_move+0x6c>
     b72:	61 30       	cpi	r22, 0x01	; 1
     b74:	20 f0       	brcs	.+8      	; 0xb7e <STEPPER_move+0x54>
     b76:	62 30       	cpi	r22, 0x02	; 2
     b78:	09 f0       	breq	.+2      	; 0xb7c <STEPPER_move+0x52>
     b7a:	6f c0       	rjmp	.+222    	; 0xc5a <STEPPER_move+0x130>
     b7c:	15 c0       	rjmp	.+42     	; 0xba8 <STEPPER_move+0x7e>
     b7e:	80 e0       	ldi	r24, 0x00	; 0
     b80:	60 e0       	ldi	r22, 0x00	; 0
     b82:	0e 94 e1 06 	call	0xdc2	; 0xdc2 <STEPPER_set_mode>
     b86:	80 e0       	ldi	r24, 0x00	; 0
     b88:	b7 01       	movw	r22, r14
     b8a:	0e 94 aa 06 	call	0xd54	; 0xd54 <STEPPER_set_accel>
     b8e:	80 e0       	ldi	r24, 0x00	; 0
     b90:	69 2d       	mov	r22, r9
     b92:	a8 01       	movw	r20, r16
     b94:	1d c0       	rjmp	.+58     	; 0xbd0 <STEPPER_move+0xa6>
     b96:	81 e0       	ldi	r24, 0x01	; 1
     b98:	60 e0       	ldi	r22, 0x00	; 0
     b9a:	0e 94 e1 06 	call	0xdc2	; 0xdc2 <STEPPER_set_mode>
     b9e:	81 e0       	ldi	r24, 0x01	; 1
     ba0:	b6 01       	movw	r22, r12
     ba2:	0e 94 aa 06 	call	0xd54	; 0xd54 <STEPPER_set_accel>
     ba6:	11 c0       	rjmp	.+34     	; 0xbca <STEPPER_move+0xa0>
     ba8:	82 e0       	ldi	r24, 0x02	; 2
     baa:	60 e0       	ldi	r22, 0x00	; 0
     bac:	0e 94 e1 06 	call	0xdc2	; 0xdc2 <STEPPER_set_mode>
     bb0:	80 e0       	ldi	r24, 0x00	; 0
     bb2:	b7 01       	movw	r22, r14
     bb4:	0e 94 aa 06 	call	0xd54	; 0xd54 <STEPPER_set_accel>
     bb8:	81 e0       	ldi	r24, 0x01	; 1
     bba:	b6 01       	movw	r22, r12
     bbc:	0e 94 aa 06 	call	0xd54	; 0xd54 <STEPPER_set_accel>
     bc0:	80 e0       	ldi	r24, 0x00	; 0
     bc2:	69 2d       	mov	r22, r9
     bc4:	a8 01       	movw	r20, r16
     bc6:	0e 94 93 06 	call	0xd26	; 0xd26 <STEPPER_run>
     bca:	81 e0       	ldi	r24, 0x01	; 1
     bcc:	68 2d       	mov	r22, r8
     bce:	a5 01       	movw	r20, r10
     bd0:	0e 94 93 06 	call	0xd26	; 0xd26 <STEPPER_run>
     bd4:	42 c0       	rjmp	.+132    	; 0xc5a <STEPPER_move+0x130>
     bd6:	ed b7       	in	r30, 0x3d	; 61
     bd8:	fe b7       	in	r31, 0x3e	; 62
     bda:	39 97       	sbiw	r30, 0x09	; 9
     bdc:	0f b6       	in	r0, 0x3f	; 63
     bde:	f8 94       	cli
     be0:	fe bf       	out	0x3e, r31	; 62
     be2:	0f be       	out	0x3f, r0	; 63
     be4:	ed bf       	out	0x3d, r30	; 61
     be6:	6d b6       	in	r6, 0x3d	; 61
     be8:	7e b6       	in	r7, 0x3e	; 62
     bea:	08 94       	sec
     bec:	61 1c       	adc	r6, r1
     bee:	71 1c       	adc	r7, r1
     bf0:	52 83       	std	Z+2, r21	; 0x02
     bf2:	41 83       	std	Z+1, r20	; 0x01
     bf4:	f3 01       	movw	r30, r6
     bf6:	b3 82       	std	Z+3, r11	; 0x03
     bf8:	a2 82       	std	Z+2, r10	; 0x02
     bfa:	d5 82       	std	Z+5, r13	; 0x05
     bfc:	c4 82       	std	Z+4, r12	; 0x04
     bfe:	96 83       	std	Z+6, r25	; 0x06
     c00:	88 8d       	ldd	r24, Y+24	; 0x18
     c02:	99 8d       	ldd	r25, Y+25	; 0x19
     c04:	90 87       	std	Z+8, r25	; 0x08
     c06:	87 83       	std	Z+7, r24	; 0x07
     c08:	80 e0       	ldi	r24, 0x00	; 0
     c0a:	49 2d       	mov	r20, r9
     c0c:	c7 2e       	mov	r12, r23
     c0e:	5d 01       	movw	r10, r26
     c10:	1a c0       	rjmp	.+52     	; 0xc46 <STEPPER_move+0x11c>
     c12:	ed b7       	in	r30, 0x3d	; 61
     c14:	fe b7       	in	r31, 0x3e	; 62
     c16:	39 97       	sbiw	r30, 0x09	; 9
     c18:	0f b6       	in	r0, 0x3f	; 63
     c1a:	f8 94       	cli
     c1c:	fe bf       	out	0x3e, r31	; 62
     c1e:	0f be       	out	0x3f, r0	; 63
     c20:	ed bf       	out	0x3d, r30	; 61
     c22:	ad b7       	in	r26, 0x3d	; 61
     c24:	be b7       	in	r27, 0x3e	; 62
     c26:	11 96       	adiw	r26, 0x01	; 1
     c28:	52 83       	std	Z+2, r21	; 0x02
     c2a:	41 83       	std	Z+1, r20	; 0x01
     c2c:	fd 01       	movw	r30, r26
     c2e:	b3 82       	std	Z+3, r11	; 0x03
     c30:	a2 82       	std	Z+2, r10	; 0x02
     c32:	d5 82       	std	Z+5, r13	; 0x05
     c34:	c4 82       	std	Z+4, r12	; 0x04
     c36:	96 83       	std	Z+6, r25	; 0x06
     c38:	10 86       	std	Z+8, r1	; 0x08
     c3a:	17 82       	std	Z+7, r1	; 0x07
     c3c:	81 e0       	ldi	r24, 0x01	; 1
     c3e:	49 2d       	mov	r20, r9
     c40:	c7 2e       	mov	r12, r23
     c42:	aa 24       	eor	r10, r10
     c44:	bb 24       	eor	r11, r11
     c46:	0e 94 d8 04 	call	0x9b0	; 0x9b0 <STEPPER_stepmode>
     c4a:	8d b7       	in	r24, 0x3d	; 61
     c4c:	9e b7       	in	r25, 0x3e	; 62
     c4e:	09 96       	adiw	r24, 0x09	; 9
     c50:	0f b6       	in	r0, 0x3f	; 63
     c52:	f8 94       	cli
     c54:	9e bf       	out	0x3e, r25	; 62
     c56:	0f be       	out	0x3f, r0	; 63
     c58:	8d bf       	out	0x3d, r24	; 61
     c5a:	cf 91       	pop	r28
     c5c:	df 91       	pop	r29
     c5e:	1f 91       	pop	r17
     c60:	0f 91       	pop	r16
     c62:	ff 90       	pop	r15
     c64:	ef 90       	pop	r14
     c66:	df 90       	pop	r13
     c68:	cf 90       	pop	r12
     c6a:	bf 90       	pop	r11
     c6c:	af 90       	pop	r10
     c6e:	9f 90       	pop	r9
     c70:	8f 90       	pop	r8
     c72:	7f 90       	pop	r7
     c74:	6f 90       	pop	r6
     c76:	08 95       	ret

00000c78 <STEPPER_open>:
     c78:	0e 94 7e 0e 	call	0x1cfc	; 0x1cfc <__STEPPER_init>
     c7c:	81 e0       	ldi	r24, 0x01	; 1
     c7e:	80 93 8b 02 	sts	0x028B, r24
     c82:	e5 e5       	ldi	r30, 0x55	; 85
     c84:	f2 e0       	ldi	r31, 0x02	; 2
     c86:	11 92       	st	Z+, r1
     c88:	11 92       	st	Z+, r1
     c8a:	11 82       	std	Z+1, r1	; 0x01
     c8c:	10 82       	st	Z, r1
     c8e:	32 96       	adiw	r30, 0x02	; 2
     c90:	11 82       	std	Z+1, r1	; 0x01
     c92:	10 82       	st	Z, r1
     c94:	32 96       	adiw	r30, 0x02	; 2
     c96:	11 82       	std	Z+1, r1	; 0x01
     c98:	10 82       	st	Z, r1
     c9a:	32 96       	adiw	r30, 0x02	; 2
     c9c:	11 82       	std	Z+1, r1	; 0x01
     c9e:	10 82       	st	Z, r1
     ca0:	32 96       	adiw	r30, 0x02	; 2
     ca2:	11 82       	std	Z+1, r1	; 0x01
     ca4:	10 82       	st	Z, r1
     ca6:	32 96       	adiw	r30, 0x02	; 2
     ca8:	11 82       	std	Z+1, r1	; 0x01
     caa:	10 82       	st	Z, r1
     cac:	32 96       	adiw	r30, 0x02	; 2
     cae:	11 82       	std	Z+1, r1	; 0x01
     cb0:	10 82       	st	Z, r1
     cb2:	32 96       	adiw	r30, 0x02	; 2
     cb4:	11 82       	std	Z+1, r1	; 0x01
     cb6:	10 82       	st	Z, r1
     cb8:	32 96       	adiw	r30, 0x02	; 2
     cba:	11 82       	std	Z+1, r1	; 0x01
     cbc:	10 82       	st	Z, r1
     cbe:	32 96       	adiw	r30, 0x02	; 2
     cc0:	11 82       	std	Z+1, r1	; 0x01
     cc2:	10 82       	st	Z, r1
     cc4:	32 96       	adiw	r30, 0x02	; 2
     cc6:	11 82       	std	Z+1, r1	; 0x01
     cc8:	10 82       	st	Z, r1
     cca:	32 96       	adiw	r30, 0x02	; 2
     ccc:	11 82       	std	Z+1, r1	; 0x01
     cce:	10 82       	st	Z, r1
     cd0:	36 96       	adiw	r30, 0x06	; 6
     cd2:	11 92       	st	Z+, r1
     cd4:	11 92       	st	Z+, r1
     cd6:	11 92       	st	Z+, r1
     cd8:	10 82       	st	Z, r1
     cda:	32 96       	adiw	r30, 0x02	; 2
     cdc:	11 92       	st	Z+, r1
     cde:	11 92       	st	Z+, r1
     ce0:	11 92       	st	Z+, r1
     ce2:	11 92       	st	Z+, r1
     ce4:	11 92       	st	Z+, r1
     ce6:	11 92       	st	Z+, r1
     ce8:	11 92       	st	Z+, r1
     cea:	11 82       	std	Z+1, r1	; 0x01
     cec:	10 82       	st	Z, r1
     cee:	32 96       	adiw	r30, 0x02	; 2
     cf0:	11 82       	std	Z+1, r1	; 0x01
     cf2:	10 82       	st	Z, r1
     cf4:	32 96       	adiw	r30, 0x02	; 2
     cf6:	11 82       	std	Z+1, r1	; 0x01
     cf8:	10 82       	st	Z, r1
     cfa:	32 96       	adiw	r30, 0x02	; 2
     cfc:	11 82       	std	Z+1, r1	; 0x01
     cfe:	10 82       	st	Z, r1
     d00:	76 97       	sbiw	r30, 0x16	; 22
     d02:	11 82       	std	Z+1, r1	; 0x01
     d04:	10 82       	st	Z, r1
     d06:	32 96       	adiw	r30, 0x02	; 2
     d08:	11 82       	std	Z+1, r1	; 0x01
     d0a:	10 82       	st	Z, r1
     d0c:	10 92 8a 02 	sts	0x028A, r1
     d10:	10 92 89 02 	sts	0x0289, r1
     d14:	10 92 8b 02 	sts	0x028B, r1
     d18:	87 e0       	ldi	r24, 0x07	; 7
     d1a:	61 e0       	ldi	r22, 0x01	; 1
     d1c:	0e 94 3a 08 	call	0x1074	; 0x1074 <SYS_set_state>
     d20:	87 e0       	ldi	r24, 0x07	; 7
     d22:	91 e0       	ldi	r25, 0x01	; 1
     d24:	08 95       	ret

00000d26 <STEPPER_run>:
     d26:	ef 92       	push	r14
     d28:	ff 92       	push	r15
     d2a:	0f 93       	push	r16
     d2c:	1f 93       	push	r17
     d2e:	18 2f       	mov	r17, r24
     d30:	06 2f       	mov	r16, r22
     d32:	7a 01       	movw	r14, r20
     d34:	60 e0       	ldi	r22, 0x00	; 0
     d36:	0e 94 e1 06 	call	0xdc2	; 0xdc2 <STEPPER_set_mode>
     d3a:	81 2f       	mov	r24, r17
     d3c:	60 2f       	mov	r22, r16
     d3e:	0e 94 cc 06 	call	0xd98	; 0xd98 <STEPPER_set_dir>
     d42:	81 2f       	mov	r24, r17
     d44:	b7 01       	movw	r22, r14
     d46:	0e 94 f6 06 	call	0xdec	; 0xdec <STEPPER_set_speed>
     d4a:	1f 91       	pop	r17
     d4c:	0f 91       	pop	r16
     d4e:	ff 90       	pop	r15
     d50:	ef 90       	pop	r14
     d52:	08 95       	ret

00000d54 <STEPPER_set_accel>:
     d54:	48 2f       	mov	r20, r24
     d56:	81 e0       	ldi	r24, 0x01	; 1
     d58:	80 93 8b 02 	sts	0x028B, r24
     d5c:	cb 01       	movw	r24, r22
     d5e:	23 e0       	ldi	r18, 0x03	; 3
     d60:	69 3e       	cpi	r22, 0xE9	; 233
     d62:	72 07       	cpc	r23, r18
     d64:	10 f0       	brcs	.+4      	; 0xd6a <STEPPER_set_accel+0x16>
     d66:	88 ee       	ldi	r24, 0xE8	; 232
     d68:	93 e0       	ldi	r25, 0x03	; 3
     d6a:	41 30       	cpi	r20, 0x01	; 1
     d6c:	71 f0       	breq	.+28     	; 0xd8a <STEPPER_set_accel+0x36>
     d6e:	41 30       	cpi	r20, 0x01	; 1
     d70:	18 f0       	brcs	.+6      	; 0xd78 <STEPPER_set_accel+0x24>
     d72:	42 30       	cpi	r20, 0x02	; 2
     d74:	71 f4       	brne	.+28     	; 0xd92 <STEPPER_set_accel+0x3e>
     d76:	05 c0       	rjmp	.+10     	; 0xd82 <STEPPER_set_accel+0x2e>
     d78:	90 93 60 02 	sts	0x0260, r25
     d7c:	80 93 5f 02 	sts	0x025F, r24
     d80:	08 c0       	rjmp	.+16     	; 0xd92 <STEPPER_set_accel+0x3e>
     d82:	90 93 60 02 	sts	0x0260, r25
     d86:	80 93 5f 02 	sts	0x025F, r24
     d8a:	90 93 62 02 	sts	0x0262, r25
     d8e:	80 93 61 02 	sts	0x0261, r24
     d92:	10 92 8b 02 	sts	0x028B, r1
     d96:	08 95       	ret

00000d98 <STEPPER_set_dir>:
     d98:	98 2f       	mov	r25, r24
     d9a:	81 e0       	ldi	r24, 0x01	; 1
     d9c:	80 93 8b 02 	sts	0x028B, r24
     da0:	91 30       	cpi	r25, 0x01	; 1
     da2:	51 f0       	breq	.+20     	; 0xdb8 <STEPPER_set_dir+0x20>
     da4:	91 30       	cpi	r25, 0x01	; 1
     da6:	18 f0       	brcs	.+6      	; 0xdae <STEPPER_set_dir+0x16>
     da8:	92 30       	cpi	r25, 0x02	; 2
     daa:	41 f4       	brne	.+16     	; 0xdbc <STEPPER_set_dir+0x24>
     dac:	03 c0       	rjmp	.+6      	; 0xdb4 <STEPPER_set_dir+0x1c>
     dae:	60 93 78 02 	sts	0x0278, r22
     db2:	04 c0       	rjmp	.+8      	; 0xdbc <STEPPER_set_dir+0x24>
     db4:	60 93 78 02 	sts	0x0278, r22
     db8:	60 93 79 02 	sts	0x0279, r22
     dbc:	10 92 8b 02 	sts	0x028B, r1
     dc0:	08 95       	ret

00000dc2 <STEPPER_set_mode>:
     dc2:	98 2f       	mov	r25, r24
     dc4:	81 e0       	ldi	r24, 0x01	; 1
     dc6:	80 93 8b 02 	sts	0x028B, r24
     dca:	91 30       	cpi	r25, 0x01	; 1
     dcc:	51 f0       	breq	.+20     	; 0xde2 <STEPPER_set_mode+0x20>
     dce:	91 30       	cpi	r25, 0x01	; 1
     dd0:	18 f0       	brcs	.+6      	; 0xdd8 <STEPPER_set_mode+0x16>
     dd2:	92 30       	cpi	r25, 0x02	; 2
     dd4:	41 f4       	brne	.+16     	; 0xde6 <STEPPER_set_mode+0x24>
     dd6:	03 c0       	rjmp	.+6      	; 0xdde <STEPPER_set_mode+0x1c>
     dd8:	60 93 55 02 	sts	0x0255, r22
     ddc:	04 c0       	rjmp	.+8      	; 0xde6 <STEPPER_set_mode+0x24>
     dde:	60 93 55 02 	sts	0x0255, r22
     de2:	60 93 56 02 	sts	0x0256, r22
     de6:	10 92 8b 02 	sts	0x028B, r1
     dea:	08 95       	ret

00000dec <STEPPER_set_speed>:
     dec:	48 2f       	mov	r20, r24
     dee:	81 e0       	ldi	r24, 0x01	; 1
     df0:	80 93 8b 02 	sts	0x028B, r24
     df4:	cb 01       	movw	r24, r22
     df6:	21 e0       	ldi	r18, 0x01	; 1
     df8:	61 39       	cpi	r22, 0x91	; 145
     dfa:	72 07       	cpc	r23, r18
     dfc:	10 f0       	brcs	.+4      	; 0xe02 <STEPPER_set_speed+0x16>
     dfe:	80 e9       	ldi	r24, 0x90	; 144
     e00:	91 e0       	ldi	r25, 0x01	; 1
     e02:	41 30       	cpi	r20, 0x01	; 1
     e04:	71 f0       	breq	.+28     	; 0xe22 <STEPPER_set_speed+0x36>
     e06:	41 30       	cpi	r20, 0x01	; 1
     e08:	18 f0       	brcs	.+6      	; 0xe10 <STEPPER_set_speed+0x24>
     e0a:	42 30       	cpi	r20, 0x02	; 2
     e0c:	71 f4       	brne	.+28     	; 0xe2a <STEPPER_set_speed+0x3e>
     e0e:	05 c0       	rjmp	.+10     	; 0xe1a <STEPPER_set_speed+0x2e>
     e10:	90 93 58 02 	sts	0x0258, r25
     e14:	80 93 57 02 	sts	0x0257, r24
     e18:	08 c0       	rjmp	.+16     	; 0xe2a <STEPPER_set_speed+0x3e>
     e1a:	90 93 58 02 	sts	0x0258, r25
     e1e:	80 93 57 02 	sts	0x0257, r24
     e22:	90 93 5a 02 	sts	0x025A, r25
     e26:	80 93 59 02 	sts	0x0259, r24
     e2a:	10 92 8b 02 	sts	0x028B, r1
     e2e:	08 95       	ret

00000e30 <STEPPER_step>:
     e30:	8f 92       	push	r8
     e32:	9f 92       	push	r9
     e34:	af 92       	push	r10
     e36:	bf 92       	push	r11
     e38:	cf 92       	push	r12
     e3a:	df 92       	push	r13
     e3c:	ef 92       	push	r14
     e3e:	ff 92       	push	r15
     e40:	0f 93       	push	r16
     e42:	1f 93       	push	r17
     e44:	cf 93       	push	r28
     e46:	df 93       	push	r29
     e48:	18 2f       	mov	r17, r24
     e4a:	f6 2e       	mov	r15, r22
     e4c:	5a 01       	movw	r10, r20
     e4e:	49 01       	movw	r8, r18
     e50:	e6 01       	movw	r28, r12
     e52:	61 e0       	ldi	r22, 0x01	; 1
     e54:	0e 94 e1 06 	call	0xdc2	; 0xdc2 <STEPPER_set_mode>
     e58:	81 2f       	mov	r24, r17
     e5a:	b5 01       	movw	r22, r10
     e5c:	a4 01       	movw	r20, r8
     e5e:	0e 94 b8 0e 	call	0x1d70	; 0x1d70 <STEPPER_setup_decels>
     e62:	81 2f       	mov	r24, r17
     e64:	6f 2d       	mov	r22, r15
     e66:	0e 94 cc 06 	call	0xd98	; 0xd98 <STEPPER_set_dir>
     e6a:	81 2f       	mov	r24, r17
     e6c:	60 2f       	mov	r22, r16
     e6e:	0e 94 a3 0e 	call	0x1d46	; 0x1d46 <STEPPER_set_stop_mode>
     e72:	81 2f       	mov	r24, r17
     e74:	b5 01       	movw	r22, r10
     e76:	0e 94 88 0e 	call	0x1d10	; 0x1d10 <STEPPER_set_steps>
     e7a:	c1 14       	cp	r12, r1
     e7c:	d1 04       	cpc	r13, r1
     e7e:	99 f0       	breq	.+38     	; 0xea6 <STEPPER_step+0x76>
     e80:	11 30       	cpi	r17, 0x01	; 1
     e82:	49 f0       	breq	.+18     	; 0xe96 <STEPPER_step+0x66>
     e84:	11 30       	cpi	r17, 0x01	; 1
     e86:	18 f0       	brcs	.+6      	; 0xe8e <STEPPER_step+0x5e>
     e88:	12 30       	cpi	r17, 0x02	; 2
     e8a:	69 f4       	brne	.+26     	; 0xea6 <STEPPER_step+0x76>
     e8c:	06 c0       	rjmp	.+12     	; 0xe9a <STEPPER_step+0x6a>
     e8e:	18 82       	st	Y, r1
     e90:	10 92 87 02 	sts	0x0287, r1
     e94:	08 c0       	rjmp	.+16     	; 0xea6 <STEPPER_step+0x76>
     e96:	19 82       	std	Y+1, r1	; 0x01
     e98:	04 c0       	rjmp	.+8      	; 0xea2 <STEPPER_step+0x72>
     e9a:	18 82       	st	Y, r1
     e9c:	19 82       	std	Y+1, r1	; 0x01
     e9e:	10 92 87 02 	sts	0x0287, r1
     ea2:	10 92 88 02 	sts	0x0288, r1
     ea6:	d0 93 8a 02 	sts	0x028A, r29
     eaa:	c0 93 89 02 	sts	0x0289, r28
     eae:	ee 20       	and	r14, r14
     eb0:	b9 f5       	brne	.+110    	; 0xf20 <STEPPER_step+0xf0>
     eb2:	8a ed       	ldi	r24, 0xDA	; 218
     eb4:	91 e0       	ldi	r25, 0x01	; 1
     eb6:	90 93 8a 02 	sts	0x028A, r25
     eba:	80 93 89 02 	sts	0x0289, r24
     ebe:	81 2f       	mov	r24, r17
     ec0:	b4 01       	movw	r22, r8
     ec2:	0e 94 f6 06 	call	0xdec	; 0xdec <STEPPER_set_speed>
     ec6:	81 2f       	mov	r24, r17
     ec8:	0e 94 69 0e 	call	0x1cd2	; 0x1cd2 <STEPPER_go>
     ecc:	11 30       	cpi	r17, 0x01	; 1
     ece:	71 f0       	breq	.+28     	; 0xeec <STEPPER_step+0xbc>
     ed0:	11 30       	cpi	r17, 0x01	; 1
     ed2:	18 f0       	brcs	.+6      	; 0xeda <STEPPER_step+0xaa>
     ed4:	12 30       	cpi	r17, 0x02	; 2
     ed6:	59 f5       	brne	.+86     	; 0xf2e <STEPPER_step+0xfe>
     ed8:	12 c0       	rjmp	.+36     	; 0xefe <STEPPER_step+0xce>
     eda:	10 92 da 01 	sts	0x01DA, r1
     ede:	10 92 87 02 	sts	0x0287, r1
     ee2:	80 91 da 01 	lds	r24, 0x01DA
     ee6:	88 23       	and	r24, r24
     ee8:	e1 f3       	breq	.-8      	; 0xee2 <STEPPER_step+0xb2>
     eea:	21 c0       	rjmp	.+66     	; 0xf2e <STEPPER_step+0xfe>
     eec:	10 92 db 01 	sts	0x01DB, r1
     ef0:	10 92 88 02 	sts	0x0288, r1
     ef4:	80 91 db 01 	lds	r24, 0x01DB
     ef8:	88 23       	and	r24, r24
     efa:	e1 f3       	breq	.-8      	; 0xef4 <STEPPER_step+0xc4>
     efc:	18 c0       	rjmp	.+48     	; 0xf2e <STEPPER_step+0xfe>
     efe:	10 92 da 01 	sts	0x01DA, r1
     f02:	10 92 db 01 	sts	0x01DB, r1
     f06:	10 92 87 02 	sts	0x0287, r1
     f0a:	10 92 88 02 	sts	0x0288, r1
     f0e:	80 91 da 01 	lds	r24, 0x01DA
     f12:	88 23       	and	r24, r24
     f14:	e1 f3       	breq	.-8      	; 0xf0e <STEPPER_step+0xde>
     f16:	80 91 db 01 	lds	r24, 0x01DB
     f1a:	88 23       	and	r24, r24
     f1c:	c1 f3       	breq	.-16     	; 0xf0e <STEPPER_step+0xde>
     f1e:	07 c0       	rjmp	.+14     	; 0xf2e <STEPPER_step+0xfe>
     f20:	81 2f       	mov	r24, r17
     f22:	b4 01       	movw	r22, r8
     f24:	0e 94 f6 06 	call	0xdec	; 0xdec <STEPPER_set_speed>
     f28:	81 2f       	mov	r24, r17
     f2a:	0e 94 69 0e 	call	0x1cd2	; 0x1cd2 <STEPPER_go>
     f2e:	df 91       	pop	r29
     f30:	cf 91       	pop	r28
     f32:	1f 91       	pop	r17
     f34:	0f 91       	pop	r16
     f36:	ff 90       	pop	r15
     f38:	ef 90       	pop	r14
     f3a:	df 90       	pop	r13
     f3c:	cf 90       	pop	r12
     f3e:	bf 90       	pop	r11
     f40:	af 90       	pop	r10
     f42:	9f 90       	pop	r9
     f44:	8f 90       	pop	r8
     f46:	08 95       	ret

00000f48 <STEPPER_wait_and_then>:
     f48:	cf 92       	push	r12
     f4a:	df 92       	push	r13
     f4c:	ef 92       	push	r14
     f4e:	ff 92       	push	r15
     f50:	0f 93       	push	r16
     f52:	1f 93       	push	r17
     f54:	df 93       	push	r29
     f56:	cf 93       	push	r28
     f58:	cd b7       	in	r28, 0x3d	; 61
     f5a:	de b7       	in	r29, 0x3e	; 62
     f5c:	8b 85       	ldd	r24, Y+11	; 0x0b
     f5e:	81 30       	cpi	r24, 0x01	; 1
     f60:	61 f0       	breq	.+24     	; 0xf7a <STEPPER_wait_and_then+0x32>
     f62:	81 30       	cpi	r24, 0x01	; 1
     f64:	18 f0       	brcs	.+6      	; 0xf6c <STEPPER_wait_and_then+0x24>
     f66:	82 30       	cpi	r24, 0x02	; 2
     f68:	a1 f5       	brne	.+104    	; 0xfd2 <STEPPER_wait_and_then+0x8a>
     f6a:	11 c0       	rjmp	.+34     	; 0xf8e <STEPPER_wait_and_then+0x46>
     f6c:	ec 85       	ldd	r30, Y+12	; 0x0c
     f6e:	fd 85       	ldd	r31, Y+13	; 0x0d
     f70:	80 91 8c 02 	lds	r24, 0x028C
     f74:	88 23       	and	r24, r24
     f76:	e1 f3       	breq	.-8      	; 0xf70 <STEPPER_wait_and_then+0x28>
     f78:	06 c0       	rjmp	.+12     	; 0xf86 <STEPPER_wait_and_then+0x3e>
     f7a:	ec 85       	ldd	r30, Y+12	; 0x0c
     f7c:	fd 85       	ldd	r31, Y+13	; 0x0d
     f7e:	80 91 8d 02 	lds	r24, 0x028D
     f82:	88 23       	and	r24, r24
     f84:	e1 f3       	breq	.-8      	; 0xf7e <STEPPER_wait_and_then+0x36>
     f86:	30 97       	sbiw	r30, 0x00	; 0
     f88:	21 f1       	breq	.+72     	; 0xfd2 <STEPPER_wait_and_then+0x8a>
     f8a:	09 95       	icall
     f8c:	22 c0       	rjmp	.+68     	; 0xfd2 <STEPPER_wait_and_then+0x8a>
     f8e:	cc 84       	ldd	r12, Y+12	; 0x0c
     f90:	dd 84       	ldd	r13, Y+13	; 0x0d
     f92:	ee 84       	ldd	r14, Y+14	; 0x0e
     f94:	ff 84       	ldd	r15, Y+15	; 0x0f
     f96:	00 e0       	ldi	r16, 0x00	; 0
     f98:	10 e0       	ldi	r17, 0x00	; 0
     f9a:	00 23       	and	r16, r16
     f9c:	51 f4       	brne	.+20     	; 0xfb2 <STEPPER_wait_and_then+0x6a>
     f9e:	80 91 8c 02 	lds	r24, 0x028C
     fa2:	88 23       	and	r24, r24
     fa4:	31 f0       	breq	.+12     	; 0xfb2 <STEPPER_wait_and_then+0x6a>
     fa6:	c1 14       	cp	r12, r1
     fa8:	d1 04       	cpc	r13, r1
     faa:	11 f0       	breq	.+4      	; 0xfb0 <STEPPER_wait_and_then+0x68>
     fac:	f6 01       	movw	r30, r12
     fae:	09 95       	icall
     fb0:	01 e0       	ldi	r16, 0x01	; 1
     fb2:	11 23       	and	r17, r17
     fb4:	51 f4       	brne	.+20     	; 0xfca <STEPPER_wait_and_then+0x82>
     fb6:	80 91 8d 02 	lds	r24, 0x028D
     fba:	88 23       	and	r24, r24
     fbc:	31 f0       	breq	.+12     	; 0xfca <STEPPER_wait_and_then+0x82>
     fbe:	e1 14       	cp	r14, r1
     fc0:	f1 04       	cpc	r15, r1
     fc2:	11 f0       	breq	.+4      	; 0xfc8 <STEPPER_wait_and_then+0x80>
     fc4:	f7 01       	movw	r30, r14
     fc6:	09 95       	icall
     fc8:	11 e0       	ldi	r17, 0x01	; 1
     fca:	00 23       	and	r16, r16
     fcc:	31 f3       	breq	.-52     	; 0xf9a <STEPPER_wait_and_then+0x52>
     fce:	11 23       	and	r17, r17
     fd0:	21 f3       	breq	.-56     	; 0xf9a <STEPPER_wait_and_then+0x52>
     fd2:	cf 91       	pop	r28
     fd4:	df 91       	pop	r29
     fd6:	1f 91       	pop	r17
     fd8:	0f 91       	pop	r16
     fda:	ff 90       	pop	r15
     fdc:	ef 90       	pop	r14
     fde:	df 90       	pop	r13
     fe0:	cf 90       	pop	r12
     fe2:	08 95       	ret

00000fe4 <SYS_get_state>:
     fe4:	e8 2f       	mov	r30, r24
     fe6:	f0 e0       	ldi	r31, 0x00	; 0
     fe8:	e3 31       	cpi	r30, 0x13	; 19
     fea:	f1 05       	cpc	r31, r1
     fec:	40 f4       	brcc	.+16     	; 0xffe <SYS_get_state+0x1a>
     fee:	eb 5a       	subi	r30, 0xAB	; 171
     ff0:	ff 4f       	sbci	r31, 0xFF	; 255
     ff2:	ee 0f       	add	r30, r30
     ff4:	ff 1f       	adc	r31, r31
     ff6:	05 90       	lpm	r0, Z+
     ff8:	f4 91       	lpm	r31, Z
     ffa:	e0 2d       	mov	r30, r0
     ffc:	09 94       	ijmp
     ffe:	80 e0       	ldi	r24, 0x00	; 0
    1000:	08 95       	ret
    1002:	80 91 8e 02 	lds	r24, 0x028E
    1006:	08 95       	ret
    1008:	80 91 8f 02 	lds	r24, 0x028F
    100c:	08 95       	ret
    100e:	80 91 90 02 	lds	r24, 0x0290
    1012:	08 95       	ret
    1014:	80 91 91 02 	lds	r24, 0x0291
    1018:	08 95       	ret
    101a:	80 91 92 02 	lds	r24, 0x0292
    101e:	08 95       	ret
    1020:	80 91 94 02 	lds	r24, 0x0294
    1024:	08 95       	ret
    1026:	80 91 93 02 	lds	r24, 0x0293
    102a:	08 95       	ret
    102c:	80 91 95 02 	lds	r24, 0x0295
    1030:	08 95       	ret
    1032:	80 91 96 02 	lds	r24, 0x0296
    1036:	08 95       	ret
    1038:	80 91 97 02 	lds	r24, 0x0297
    103c:	08 95       	ret
    103e:	80 91 98 02 	lds	r24, 0x0298
    1042:	08 95       	ret
    1044:	80 91 99 02 	lds	r24, 0x0299
    1048:	08 95       	ret
    104a:	80 91 9a 02 	lds	r24, 0x029A
    104e:	08 95       	ret
    1050:	80 91 9b 02 	lds	r24, 0x029B
    1054:	08 95       	ret
    1056:	80 91 9c 02 	lds	r24, 0x029C
    105a:	08 95       	ret
    105c:	80 91 9d 02 	lds	r24, 0x029D
    1060:	08 95       	ret
    1062:	80 91 9e 02 	lds	r24, 0x029E
    1066:	08 95       	ret
    1068:	80 91 9f 02 	lds	r24, 0x029F
    106c:	08 95       	ret
    106e:	80 91 a0 02 	lds	r24, 0x02A0
    1072:	08 95       	ret

00001074 <SYS_set_state>:
    1074:	e8 2f       	mov	r30, r24
    1076:	f0 e0       	ldi	r31, 0x00	; 0
    1078:	e3 31       	cpi	r30, 0x13	; 19
    107a:	f1 05       	cpc	r31, r1
    107c:	08 f0       	brcs	.+2      	; 0x1080 <SYS_set_state+0xc>
    107e:	40 c0       	rjmp	.+128    	; 0x1100 <SYS_set_state+0x8c>
    1080:	e8 59       	subi	r30, 0x98	; 152
    1082:	ff 4f       	sbci	r31, 0xFF	; 255
    1084:	ee 0f       	add	r30, r30
    1086:	ff 1f       	adc	r31, r31
    1088:	05 90       	lpm	r0, Z+
    108a:	f4 91       	lpm	r31, Z
    108c:	e0 2d       	mov	r30, r0
    108e:	09 94       	ijmp
    1090:	60 93 8e 02 	sts	0x028E, r22
    1094:	08 95       	ret
    1096:	60 93 8f 02 	sts	0x028F, r22
    109a:	08 95       	ret
    109c:	60 93 90 02 	sts	0x0290, r22
    10a0:	08 95       	ret
    10a2:	60 93 91 02 	sts	0x0291, r22
    10a6:	08 95       	ret
    10a8:	60 93 92 02 	sts	0x0292, r22
    10ac:	08 95       	ret
    10ae:	60 93 94 02 	sts	0x0294, r22
    10b2:	08 95       	ret
    10b4:	60 93 93 02 	sts	0x0293, r22
    10b8:	08 95       	ret
    10ba:	60 93 95 02 	sts	0x0295, r22
    10be:	08 95       	ret
    10c0:	60 93 96 02 	sts	0x0296, r22
    10c4:	08 95       	ret
    10c6:	60 93 97 02 	sts	0x0297, r22
    10ca:	08 95       	ret
    10cc:	60 93 98 02 	sts	0x0298, r22
    10d0:	08 95       	ret
    10d2:	60 93 99 02 	sts	0x0299, r22
    10d6:	08 95       	ret
    10d8:	60 93 9a 02 	sts	0x029A, r22
    10dc:	08 95       	ret
    10de:	60 93 9b 02 	sts	0x029B, r22
    10e2:	08 95       	ret
    10e4:	60 93 9c 02 	sts	0x029C, r22
    10e8:	08 95       	ret
    10ea:	60 93 9d 02 	sts	0x029D, r22
    10ee:	08 95       	ret
    10f0:	60 93 9e 02 	sts	0x029E, r22
    10f4:	08 95       	ret
    10f6:	60 93 9f 02 	sts	0x029F, r22
    10fa:	08 95       	ret
    10fc:	60 93 9e 02 	sts	0x029E, r22
    1100:	08 95       	ret

00001102 <ATTINY_get_SW_state>:
    1102:	1f 93       	push	r17
    1104:	cf 93       	push	r28
    1106:	df 93       	push	r29
    1108:	18 2f       	mov	r17, r24
    110a:	80 91 dd 01 	lds	r24, 0x01DD
    110e:	88 23       	and	r24, r24
    1110:	41 f0       	breq	.+16     	; 0x1122 <ATTINY_get_SW_state+0x20>
    1112:	80 91 e7 01 	lds	r24, 0x01E7
    1116:	88 23       	and	r24, r24
    1118:	99 f0       	breq	.+38     	; 0x1140 <ATTINY_get_SW_state+0x3e>
    111a:	10 92 dd 01 	sts	0x01DD, r1
    111e:	10 92 e7 01 	sts	0x01E7, r1
    1122:	0e 94 18 0f 	call	0x1e30	; 0x1e30 <ATTINY_get_sensors>
    1126:	80 93 dc 01 	sts	0x01DC, r24
    112a:	81 ee       	ldi	r24, 0xE1	; 225
    112c:	91 e0       	ldi	r25, 0x01	; 1
    112e:	61 e0       	ldi	r22, 0x01	; 1
    1130:	40 e0       	ldi	r20, 0x00	; 0
    1132:	22 e3       	ldi	r18, 0x32	; 50
    1134:	30 e0       	ldi	r19, 0x00	; 0
    1136:	0e 94 3f 09 	call	0x127e	; 0x127e <TMRSRVC_new>
    113a:	81 e0       	ldi	r24, 0x01	; 1
    113c:	80 93 dd 01 	sts	0x01DD, r24
    1140:	90 91 dc 01 	lds	r25, 0x01DC
    1144:	a1 2f       	mov	r26, r17
    1146:	b0 e0       	ldi	r27, 0x00	; 0
    1148:	ed 01       	movw	r28, r26
    114a:	c8 5f       	subi	r28, 0xF8	; 248
    114c:	de 4f       	sbci	r29, 0xFE	; 254
    114e:	88 81       	ld	r24, Y
    1150:	88 23       	and	r24, r24
    1152:	69 f0       	breq	.+26     	; 0x116e <ATTINY_get_SW_state+0x6c>
    1154:	fd 01       	movw	r30, r26
    1156:	e5 5f       	subi	r30, 0xF5	; 245
    1158:	fe 4f       	sbci	r31, 0xFE	; 254
    115a:	80 81       	ld	r24, Z
    115c:	98 23       	and	r25, r24
    115e:	c1 f0       	breq	.+48     	; 0x1190 <ATTINY_get_SW_state+0x8e>
    1160:	fd 01       	movw	r30, r26
    1162:	e2 52       	subi	r30, 0x22	; 34
    1164:	fe 4f       	sbci	r31, 0xFE	; 254
    1166:	81 e0       	ldi	r24, 0x01	; 1
    1168:	80 83       	st	Z, r24
    116a:	18 82       	st	Y, r1
    116c:	11 c0       	rjmp	.+34     	; 0x1190 <ATTINY_get_SW_state+0x8e>
    116e:	fd 01       	movw	r30, r26
    1170:	e2 52       	subi	r30, 0x22	; 34
    1172:	fe 4f       	sbci	r31, 0xFE	; 254
    1174:	80 81       	ld	r24, Z
    1176:	81 11       	cpse	r24, r1
    1178:	10 82       	st	Z, r1
    117a:	fd 01       	movw	r30, r26
    117c:	e5 5f       	subi	r30, 0xF5	; 245
    117e:	fe 4f       	sbci	r31, 0xFE	; 254
    1180:	80 81       	ld	r24, Z
    1182:	98 23       	and	r25, r24
    1184:	29 f4       	brne	.+10     	; 0x1190 <ATTINY_get_SW_state+0x8e>
    1186:	fd 01       	movw	r30, r26
    1188:	e8 5f       	subi	r30, 0xF8	; 248
    118a:	fe 4f       	sbci	r31, 0xFE	; 254
    118c:	81 e0       	ldi	r24, 0x01	; 1
    118e:	80 83       	st	Z, r24
    1190:	a2 52       	subi	r26, 0x22	; 34
    1192:	be 4f       	sbci	r27, 0xFE	; 254
    1194:	8c 91       	ld	r24, X
    1196:	df 91       	pop	r29
    1198:	cf 91       	pop	r28
    119a:	1f 91       	pop	r17
    119c:	08 95       	ret

0000119e <ATTINY_open>:
    119e:	82 e0       	ldi	r24, 0x02	; 2
    11a0:	0e 94 f2 07 	call	0xfe4	; 0xfe4 <SYS_get_state>
    11a4:	88 23       	and	r24, r24
    11a6:	19 f4       	brne	.+6      	; 0x11ae <ATTINY_open+0x10>
    11a8:	90 e0       	ldi	r25, 0x00	; 0
    11aa:	82 e0       	ldi	r24, 0x02	; 2
    11ac:	08 95       	ret
    11ae:	10 92 bc 02 	sts	0x02BC, r1
    11b2:	10 92 bb 02 	sts	0x02BB, r1
    11b6:	10 92 be 02 	sts	0x02BE, r1
    11ba:	10 92 bd 02 	sts	0x02BD, r1
    11be:	10 92 c0 02 	sts	0x02C0, r1
    11c2:	10 92 bf 02 	sts	0x02BF, r1
    11c6:	10 92 c2 02 	sts	0x02C2, r1
    11ca:	10 92 c1 02 	sts	0x02C1, r1
    11ce:	10 92 c4 02 	sts	0x02C4, r1
    11d2:	10 92 c3 02 	sts	0x02C3, r1
    11d6:	80 e9       	ldi	r24, 0x90	; 144
    11d8:	91 e0       	ldi	r25, 0x01	; 1
    11da:	90 93 a8 02 	sts	0x02A8, r25
    11de:	80 93 a7 02 	sts	0x02A7, r24
    11e2:	90 93 aa 02 	sts	0x02AA, r25
    11e6:	80 93 a9 02 	sts	0x02A9, r24
    11ea:	90 93 ac 02 	sts	0x02AC, r25
    11ee:	80 93 ab 02 	sts	0x02AB, r24
    11f2:	90 93 ae 02 	sts	0x02AE, r25
    11f6:	80 93 ad 02 	sts	0x02AD, r24
    11fa:	90 93 b0 02 	sts	0x02B0, r25
    11fe:	80 93 af 02 	sts	0x02AF, r24
    1202:	84 e3       	ldi	r24, 0x34	; 52
    1204:	98 e0       	ldi	r25, 0x08	; 8
    1206:	90 93 b2 02 	sts	0x02B2, r25
    120a:	80 93 b1 02 	sts	0x02B1, r24
    120e:	90 93 b4 02 	sts	0x02B4, r25
    1212:	80 93 b3 02 	sts	0x02B3, r24
    1216:	90 93 b6 02 	sts	0x02B6, r25
    121a:	80 93 b5 02 	sts	0x02B5, r24
    121e:	90 93 b8 02 	sts	0x02B8, r25
    1222:	80 93 b7 02 	sts	0x02B7, r24
    1226:	90 93 ba 02 	sts	0x02BA, r25
    122a:	80 93 b9 02 	sts	0x02B9, r24
    122e:	81 e0       	ldi	r24, 0x01	; 1
    1230:	61 e0       	ldi	r22, 0x01	; 1
    1232:	0e 94 3a 08 	call	0x1074	; 0x1074 <SYS_set_state>
    1236:	91 e0       	ldi	r25, 0x01	; 1
    1238:	81 e0       	ldi	r24, 0x01	; 1
    123a:	08 95       	ret

0000123c <TMRSRVC_delay>:
    123c:	df 93       	push	r29
    123e:	cf 93       	push	r28
    1240:	cd b7       	in	r28, 0x3d	; 61
    1242:	de b7       	in	r29, 0x3e	; 62
    1244:	29 97       	sbiw	r28, 0x09	; 9
    1246:	0f b6       	in	r0, 0x3f	; 63
    1248:	f8 94       	cli
    124a:	de bf       	out	0x3e, r29	; 62
    124c:	0f be       	out	0x3f, r0	; 63
    124e:	cd bf       	out	0x3d, r28	; 61
    1250:	9c 01       	movw	r18, r24
    1252:	ce 01       	movw	r24, r28
    1254:	01 96       	adiw	r24, 0x01	; 1
    1256:	61 e0       	ldi	r22, 0x01	; 1
    1258:	40 e0       	ldi	r20, 0x00	; 0
    125a:	0e 94 3f 09 	call	0x127e	; 0x127e <TMRSRVC_new>
    125e:	98 2f       	mov	r25, r24
    1260:	88 23       	and	r24, r24
    1262:	19 f4       	brne	.+6      	; 0x126a <TMRSRVC_delay+0x2e>
    1264:	8f 81       	ldd	r24, Y+7	; 0x07
    1266:	88 23       	and	r24, r24
    1268:	e9 f3       	breq	.-6      	; 0x1264 <TMRSRVC_delay+0x28>
    126a:	89 2f       	mov	r24, r25
    126c:	29 96       	adiw	r28, 0x09	; 9
    126e:	0f b6       	in	r0, 0x3f	; 63
    1270:	f8 94       	cli
    1272:	de bf       	out	0x3e, r29	; 62
    1274:	0f be       	out	0x3f, r0	; 63
    1276:	cd bf       	out	0x3d, r28	; 61
    1278:	cf 91       	pop	r28
    127a:	df 91       	pop	r29
    127c:	08 95       	ret

0000127e <TMRSRVC_new>:
    127e:	ef 92       	push	r14
    1280:	ff 92       	push	r15
    1282:	0f 93       	push	r16
    1284:	1f 93       	push	r17
    1286:	cf 93       	push	r28
    1288:	df 93       	push	r29
    128a:	ec 01       	movw	r28, r24
    128c:	f6 2e       	mov	r15, r22
    128e:	e4 2e       	mov	r14, r20
    1290:	89 01       	movw	r16, r18
    1292:	88 e0       	ldi	r24, 0x08	; 8
    1294:	0e 94 f2 07 	call	0xfe4	; 0xfe4 <SYS_get_state>
    1298:	81 30       	cpi	r24, 0x01	; 1
    129a:	11 f0       	breq	.+4      	; 0x12a0 <TMRSRVC_new+0x22>
    129c:	81 e0       	ldi	r24, 0x01	; 1
    129e:	26 c0       	rjmp	.+76     	; 0x12ec <TMRSRVC_new+0x6e>
    12a0:	84 e0       	ldi	r24, 0x04	; 4
    12a2:	90 e0       	ldi	r25, 0x00	; 0
    12a4:	0e 94 c1 20 	call	0x4182	; 0x4182 <malloc>
    12a8:	fc 01       	movw	r30, r24
    12aa:	00 97       	sbiw	r24, 0x00	; 0
    12ac:	11 f4       	brne	.+4      	; 0x12b2 <TMRSRVC_new+0x34>
    12ae:	82 e0       	ldi	r24, 0x02	; 2
    12b0:	1d c0       	rjmp	.+58     	; 0x12ec <TMRSRVC_new+0x6e>
    12b2:	f9 82       	std	Y+1, r15	; 0x01
    12b4:	f0 fc       	sbrc	r15, 0
    12b6:	1e 82       	std	Y+6, r1	; 0x06
    12b8:	81 e0       	ldi	r24, 0x01	; 1
    12ba:	e8 16       	cp	r14, r24
    12bc:	19 f4       	brne	.+6      	; 0x12c4 <TMRSRVC_new+0x46>
    12be:	89 81       	ldd	r24, Y+1	; 0x01
    12c0:	84 60       	ori	r24, 0x04	; 4
    12c2:	89 83       	std	Y+1, r24	; 0x01
    12c4:	89 81       	ldd	r24, Y+1	; 0x01
    12c6:	88 60       	ori	r24, 0x08	; 8
    12c8:	89 83       	std	Y+1, r24	; 0x01
    12ca:	1b 83       	std	Y+3, r17	; 0x03
    12cc:	0a 83       	std	Y+2, r16	; 0x02
    12ce:	1d 83       	std	Y+5, r17	; 0x05
    12d0:	0c 83       	std	Y+4, r16	; 0x04
    12d2:	d1 83       	std	Z+1, r29	; 0x01
    12d4:	c0 83       	st	Z, r28
    12d6:	13 82       	std	Z+3, r1	; 0x03
    12d8:	12 82       	std	Z+2, r1	; 0x02
    12da:	81 e0       	ldi	r24, 0x01	; 1
    12dc:	80 93 4a 02 	sts	0x024A, r24
    12e0:	cf 01       	movw	r24, r30
    12e2:	0e 94 49 0f 	call	0x1e92	; 0x1e92 <TMRSRVC_insert>
    12e6:	10 92 4a 02 	sts	0x024A, r1
    12ea:	80 e0       	ldi	r24, 0x00	; 0
    12ec:	df 91       	pop	r29
    12ee:	cf 91       	pop	r28
    12f0:	1f 91       	pop	r17
    12f2:	0f 91       	pop	r16
    12f4:	ff 90       	pop	r15
    12f6:	ef 90       	pop	r14
    12f8:	08 95       	ret

000012fa <CBOT_init>:
    12fa:	0e 94 f5 0e 	call	0x1dea	; 0x1dea <SYS_init>
    12fe:	0e 94 8e 0c 	call	0x191c	; 0x191c <ATMEGA_open>
    1302:	0e 94 cb 0b 	call	0x1796	; 0x1796 <ISR_open>
    1306:	0e 94 b2 0f 	call	0x1f64	; 0x1f64 <TMRSRVC_open>
    130a:	0e 94 f3 0c 	call	0x19e6	; 0x19e6 <SPI_open>
    130e:	0e 94 cf 08 	call	0x119e	; 0x119e <ATTINY_open>
    1312:	78 94       	sei
    1314:	08 95       	ret

00001316 <CBOT_ISR_init>:
    1316:	00 00       	nop
    1318:	08 95       	ret

0000131a <__vector_16>:
    131a:	1f 92       	push	r1
    131c:	0f 92       	push	r0
    131e:	0f b6       	in	r0, 0x3f	; 63
    1320:	0f 92       	push	r0
    1322:	11 24       	eor	r1, r1
    1324:	2f 93       	push	r18
    1326:	3f 93       	push	r19
    1328:	4f 93       	push	r20
    132a:	5f 93       	push	r21
    132c:	6f 93       	push	r22
    132e:	7f 93       	push	r23
    1330:	8f 93       	push	r24
    1332:	9f 93       	push	r25
    1334:	af 93       	push	r26
    1336:	bf 93       	push	r27
    1338:	ef 93       	push	r30
    133a:	ff 93       	push	r31
    133c:	e0 91 0a 02 	lds	r30, 0x020A
    1340:	f0 91 0b 02 	lds	r31, 0x020B
    1344:	30 97       	sbiw	r30, 0x00	; 0
    1346:	09 f0       	breq	.+2      	; 0x134a <__vector_16+0x30>
    1348:	09 95       	icall
    134a:	ff 91       	pop	r31
    134c:	ef 91       	pop	r30
    134e:	bf 91       	pop	r27
    1350:	af 91       	pop	r26
    1352:	9f 91       	pop	r25
    1354:	8f 91       	pop	r24
    1356:	7f 91       	pop	r23
    1358:	6f 91       	pop	r22
    135a:	5f 91       	pop	r21
    135c:	4f 91       	pop	r20
    135e:	3f 91       	pop	r19
    1360:	2f 91       	pop	r18
    1362:	0f 90       	pop	r0
    1364:	0f be       	out	0x3f, r0	; 63
    1366:	0f 90       	pop	r0
    1368:	1f 90       	pop	r1
    136a:	18 95       	reti

0000136c <__vector_17>:
    136c:	1f 92       	push	r1
    136e:	0f 92       	push	r0
    1370:	0f b6       	in	r0, 0x3f	; 63
    1372:	0f 92       	push	r0
    1374:	11 24       	eor	r1, r1
    1376:	2f 93       	push	r18
    1378:	3f 93       	push	r19
    137a:	4f 93       	push	r20
    137c:	5f 93       	push	r21
    137e:	6f 93       	push	r22
    1380:	7f 93       	push	r23
    1382:	8f 93       	push	r24
    1384:	9f 93       	push	r25
    1386:	af 93       	push	r26
    1388:	bf 93       	push	r27
    138a:	ef 93       	push	r30
    138c:	ff 93       	push	r31
    138e:	e0 91 0c 02 	lds	r30, 0x020C
    1392:	f0 91 0d 02 	lds	r31, 0x020D
    1396:	30 97       	sbiw	r30, 0x00	; 0
    1398:	09 f0       	breq	.+2      	; 0x139c <__vector_17+0x30>
    139a:	09 95       	icall
    139c:	ff 91       	pop	r31
    139e:	ef 91       	pop	r30
    13a0:	bf 91       	pop	r27
    13a2:	af 91       	pop	r26
    13a4:	9f 91       	pop	r25
    13a6:	8f 91       	pop	r24
    13a8:	7f 91       	pop	r23
    13aa:	6f 91       	pop	r22
    13ac:	5f 91       	pop	r21
    13ae:	4f 91       	pop	r20
    13b0:	3f 91       	pop	r19
    13b2:	2f 91       	pop	r18
    13b4:	0f 90       	pop	r0
    13b6:	0f be       	out	0x3f, r0	; 63
    13b8:	0f 90       	pop	r0
    13ba:	1f 90       	pop	r1
    13bc:	18 95       	reti

000013be <__vector_18>:
    13be:	1f 92       	push	r1
    13c0:	0f 92       	push	r0
    13c2:	0f b6       	in	r0, 0x3f	; 63
    13c4:	0f 92       	push	r0
    13c6:	11 24       	eor	r1, r1
    13c8:	2f 93       	push	r18
    13ca:	3f 93       	push	r19
    13cc:	4f 93       	push	r20
    13ce:	5f 93       	push	r21
    13d0:	6f 93       	push	r22
    13d2:	7f 93       	push	r23
    13d4:	8f 93       	push	r24
    13d6:	9f 93       	push	r25
    13d8:	af 93       	push	r26
    13da:	bf 93       	push	r27
    13dc:	ef 93       	push	r30
    13de:	ff 93       	push	r31
    13e0:	e0 91 0e 02 	lds	r30, 0x020E
    13e4:	f0 91 0f 02 	lds	r31, 0x020F
    13e8:	30 97       	sbiw	r30, 0x00	; 0
    13ea:	09 f0       	breq	.+2      	; 0x13ee <__vector_18+0x30>
    13ec:	09 95       	icall
    13ee:	ff 91       	pop	r31
    13f0:	ef 91       	pop	r30
    13f2:	bf 91       	pop	r27
    13f4:	af 91       	pop	r26
    13f6:	9f 91       	pop	r25
    13f8:	8f 91       	pop	r24
    13fa:	7f 91       	pop	r23
    13fc:	6f 91       	pop	r22
    13fe:	5f 91       	pop	r21
    1400:	4f 91       	pop	r20
    1402:	3f 91       	pop	r19
    1404:	2f 91       	pop	r18
    1406:	0f 90       	pop	r0
    1408:	0f be       	out	0x3f, r0	; 63
    140a:	0f 90       	pop	r0
    140c:	1f 90       	pop	r1
    140e:	18 95       	reti

00001410 <__vector_9>:
    1410:	1f 92       	push	r1
    1412:	0f 92       	push	r0
    1414:	0f b6       	in	r0, 0x3f	; 63
    1416:	0f 92       	push	r0
    1418:	11 24       	eor	r1, r1
    141a:	2f 93       	push	r18
    141c:	3f 93       	push	r19
    141e:	4f 93       	push	r20
    1420:	5f 93       	push	r21
    1422:	6f 93       	push	r22
    1424:	7f 93       	push	r23
    1426:	8f 93       	push	r24
    1428:	9f 93       	push	r25
    142a:	af 93       	push	r26
    142c:	bf 93       	push	r27
    142e:	ef 93       	push	r30
    1430:	ff 93       	push	r31
    1432:	e0 91 fc 01 	lds	r30, 0x01FC
    1436:	f0 91 fd 01 	lds	r31, 0x01FD
    143a:	30 97       	sbiw	r30, 0x00	; 0
    143c:	09 f0       	breq	.+2      	; 0x1440 <__vector_9+0x30>
    143e:	09 95       	icall
    1440:	ff 91       	pop	r31
    1442:	ef 91       	pop	r30
    1444:	bf 91       	pop	r27
    1446:	af 91       	pop	r26
    1448:	9f 91       	pop	r25
    144a:	8f 91       	pop	r24
    144c:	7f 91       	pop	r23
    144e:	6f 91       	pop	r22
    1450:	5f 91       	pop	r21
    1452:	4f 91       	pop	r20
    1454:	3f 91       	pop	r19
    1456:	2f 91       	pop	r18
    1458:	0f 90       	pop	r0
    145a:	0f be       	out	0x3f, r0	; 63
    145c:	0f 90       	pop	r0
    145e:	1f 90       	pop	r1
    1460:	18 95       	reti

00001462 <__vector_10>:
    1462:	1f 92       	push	r1
    1464:	0f 92       	push	r0
    1466:	0f b6       	in	r0, 0x3f	; 63
    1468:	0f 92       	push	r0
    146a:	11 24       	eor	r1, r1
    146c:	2f 93       	push	r18
    146e:	3f 93       	push	r19
    1470:	4f 93       	push	r20
    1472:	5f 93       	push	r21
    1474:	6f 93       	push	r22
    1476:	7f 93       	push	r23
    1478:	8f 93       	push	r24
    147a:	9f 93       	push	r25
    147c:	af 93       	push	r26
    147e:	bf 93       	push	r27
    1480:	ef 93       	push	r30
    1482:	ff 93       	push	r31
    1484:	e0 91 fe 01 	lds	r30, 0x01FE
    1488:	f0 91 ff 01 	lds	r31, 0x01FF
    148c:	30 97       	sbiw	r30, 0x00	; 0
    148e:	09 f0       	breq	.+2      	; 0x1492 <__vector_10+0x30>
    1490:	09 95       	icall
    1492:	ff 91       	pop	r31
    1494:	ef 91       	pop	r30
    1496:	bf 91       	pop	r27
    1498:	af 91       	pop	r26
    149a:	9f 91       	pop	r25
    149c:	8f 91       	pop	r24
    149e:	7f 91       	pop	r23
    14a0:	6f 91       	pop	r22
    14a2:	5f 91       	pop	r21
    14a4:	4f 91       	pop	r20
    14a6:	3f 91       	pop	r19
    14a8:	2f 91       	pop	r18
    14aa:	0f 90       	pop	r0
    14ac:	0f be       	out	0x3f, r0	; 63
    14ae:	0f 90       	pop	r0
    14b0:	1f 90       	pop	r1
    14b2:	18 95       	reti

000014b4 <__vector_11>:
    14b4:	1f 92       	push	r1
    14b6:	0f 92       	push	r0
    14b8:	0f b6       	in	r0, 0x3f	; 63
    14ba:	0f 92       	push	r0
    14bc:	11 24       	eor	r1, r1
    14be:	2f 93       	push	r18
    14c0:	3f 93       	push	r19
    14c2:	4f 93       	push	r20
    14c4:	5f 93       	push	r21
    14c6:	6f 93       	push	r22
    14c8:	7f 93       	push	r23
    14ca:	8f 93       	push	r24
    14cc:	9f 93       	push	r25
    14ce:	af 93       	push	r26
    14d0:	bf 93       	push	r27
    14d2:	ef 93       	push	r30
    14d4:	ff 93       	push	r31
    14d6:	e0 91 00 02 	lds	r30, 0x0200
    14da:	f0 91 01 02 	lds	r31, 0x0201
    14de:	30 97       	sbiw	r30, 0x00	; 0
    14e0:	09 f0       	breq	.+2      	; 0x14e4 <__vector_11+0x30>
    14e2:	09 95       	icall
    14e4:	ff 91       	pop	r31
    14e6:	ef 91       	pop	r30
    14e8:	bf 91       	pop	r27
    14ea:	af 91       	pop	r26
    14ec:	9f 91       	pop	r25
    14ee:	8f 91       	pop	r24
    14f0:	7f 91       	pop	r23
    14f2:	6f 91       	pop	r22
    14f4:	5f 91       	pop	r21
    14f6:	4f 91       	pop	r20
    14f8:	3f 91       	pop	r19
    14fa:	2f 91       	pop	r18
    14fc:	0f 90       	pop	r0
    14fe:	0f be       	out	0x3f, r0	; 63
    1500:	0f 90       	pop	r0
    1502:	1f 90       	pop	r1
    1504:	18 95       	reti

00001506 <__vector_13>:
    1506:	1f 92       	push	r1
    1508:	0f 92       	push	r0
    150a:	0f b6       	in	r0, 0x3f	; 63
    150c:	0f 92       	push	r0
    150e:	11 24       	eor	r1, r1
    1510:	2f 93       	push	r18
    1512:	3f 93       	push	r19
    1514:	4f 93       	push	r20
    1516:	5f 93       	push	r21
    1518:	6f 93       	push	r22
    151a:	7f 93       	push	r23
    151c:	8f 93       	push	r24
    151e:	9f 93       	push	r25
    1520:	af 93       	push	r26
    1522:	bf 93       	push	r27
    1524:	ef 93       	push	r30
    1526:	ff 93       	push	r31
    1528:	e0 91 04 02 	lds	r30, 0x0204
    152c:	f0 91 05 02 	lds	r31, 0x0205
    1530:	30 97       	sbiw	r30, 0x00	; 0
    1532:	09 f0       	breq	.+2      	; 0x1536 <__vector_13+0x30>
    1534:	09 95       	icall
    1536:	ff 91       	pop	r31
    1538:	ef 91       	pop	r30
    153a:	bf 91       	pop	r27
    153c:	af 91       	pop	r26
    153e:	9f 91       	pop	r25
    1540:	8f 91       	pop	r24
    1542:	7f 91       	pop	r23
    1544:	6f 91       	pop	r22
    1546:	5f 91       	pop	r21
    1548:	4f 91       	pop	r20
    154a:	3f 91       	pop	r19
    154c:	2f 91       	pop	r18
    154e:	0f 90       	pop	r0
    1550:	0f be       	out	0x3f, r0	; 63
    1552:	0f 90       	pop	r0
    1554:	1f 90       	pop	r1
    1556:	18 95       	reti

00001558 <__vector_14>:
    1558:	1f 92       	push	r1
    155a:	0f 92       	push	r0
    155c:	0f b6       	in	r0, 0x3f	; 63
    155e:	0f 92       	push	r0
    1560:	11 24       	eor	r1, r1
    1562:	2f 93       	push	r18
    1564:	3f 93       	push	r19
    1566:	4f 93       	push	r20
    1568:	5f 93       	push	r21
    156a:	6f 93       	push	r22
    156c:	7f 93       	push	r23
    156e:	8f 93       	push	r24
    1570:	9f 93       	push	r25
    1572:	af 93       	push	r26
    1574:	bf 93       	push	r27
    1576:	ef 93       	push	r30
    1578:	ff 93       	push	r31
    157a:	e0 91 06 02 	lds	r30, 0x0206
    157e:	f0 91 07 02 	lds	r31, 0x0207
    1582:	30 97       	sbiw	r30, 0x00	; 0
    1584:	09 f0       	breq	.+2      	; 0x1588 <__vector_14+0x30>
    1586:	09 95       	icall
    1588:	ff 91       	pop	r31
    158a:	ef 91       	pop	r30
    158c:	bf 91       	pop	r27
    158e:	af 91       	pop	r26
    1590:	9f 91       	pop	r25
    1592:	8f 91       	pop	r24
    1594:	7f 91       	pop	r23
    1596:	6f 91       	pop	r22
    1598:	5f 91       	pop	r21
    159a:	4f 91       	pop	r20
    159c:	3f 91       	pop	r19
    159e:	2f 91       	pop	r18
    15a0:	0f 90       	pop	r0
    15a2:	0f be       	out	0x3f, r0	; 63
    15a4:	0f 90       	pop	r0
    15a6:	1f 90       	pop	r1
    15a8:	18 95       	reti

000015aa <__vector_12>:
    15aa:	1f 92       	push	r1
    15ac:	0f 92       	push	r0
    15ae:	0f b6       	in	r0, 0x3f	; 63
    15b0:	0f 92       	push	r0
    15b2:	11 24       	eor	r1, r1
    15b4:	2f 93       	push	r18
    15b6:	3f 93       	push	r19
    15b8:	4f 93       	push	r20
    15ba:	5f 93       	push	r21
    15bc:	6f 93       	push	r22
    15be:	7f 93       	push	r23
    15c0:	8f 93       	push	r24
    15c2:	9f 93       	push	r25
    15c4:	af 93       	push	r26
    15c6:	bf 93       	push	r27
    15c8:	ef 93       	push	r30
    15ca:	ff 93       	push	r31
    15cc:	e0 91 02 02 	lds	r30, 0x0202
    15d0:	f0 91 03 02 	lds	r31, 0x0203
    15d4:	30 97       	sbiw	r30, 0x00	; 0
    15d6:	09 f0       	breq	.+2      	; 0x15da <__vector_12+0x30>
    15d8:	09 95       	icall
    15da:	ff 91       	pop	r31
    15dc:	ef 91       	pop	r30
    15de:	bf 91       	pop	r27
    15e0:	af 91       	pop	r26
    15e2:	9f 91       	pop	r25
    15e4:	8f 91       	pop	r24
    15e6:	7f 91       	pop	r23
    15e8:	6f 91       	pop	r22
    15ea:	5f 91       	pop	r21
    15ec:	4f 91       	pop	r20
    15ee:	3f 91       	pop	r19
    15f0:	2f 91       	pop	r18
    15f2:	0f 90       	pop	r0
    15f4:	0f be       	out	0x3f, r0	; 63
    15f6:	0f 90       	pop	r0
    15f8:	1f 90       	pop	r1
    15fa:	18 95       	reti

000015fc <__vector_15>:
    15fc:	1f 92       	push	r1
    15fe:	0f 92       	push	r0
    1600:	0f b6       	in	r0, 0x3f	; 63
    1602:	0f 92       	push	r0
    1604:	11 24       	eor	r1, r1
    1606:	2f 93       	push	r18
    1608:	3f 93       	push	r19
    160a:	4f 93       	push	r20
    160c:	5f 93       	push	r21
    160e:	6f 93       	push	r22
    1610:	7f 93       	push	r23
    1612:	8f 93       	push	r24
    1614:	9f 93       	push	r25
    1616:	af 93       	push	r26
    1618:	bf 93       	push	r27
    161a:	ef 93       	push	r30
    161c:	ff 93       	push	r31
    161e:	e0 91 08 02 	lds	r30, 0x0208
    1622:	f0 91 09 02 	lds	r31, 0x0209
    1626:	30 97       	sbiw	r30, 0x00	; 0
    1628:	09 f0       	breq	.+2      	; 0x162c <__vector_15+0x30>
    162a:	09 95       	icall
    162c:	ff 91       	pop	r31
    162e:	ef 91       	pop	r30
    1630:	bf 91       	pop	r27
    1632:	af 91       	pop	r26
    1634:	9f 91       	pop	r25
    1636:	8f 91       	pop	r24
    1638:	7f 91       	pop	r23
    163a:	6f 91       	pop	r22
    163c:	5f 91       	pop	r21
    163e:	4f 91       	pop	r20
    1640:	3f 91       	pop	r19
    1642:	2f 91       	pop	r18
    1644:	0f 90       	pop	r0
    1646:	0f be       	out	0x3f, r0	; 63
    1648:	0f 90       	pop	r0
    164a:	1f 90       	pop	r1
    164c:	18 95       	reti

0000164e <__vector_4>:
    164e:	1f 92       	push	r1
    1650:	0f 92       	push	r0
    1652:	0f b6       	in	r0, 0x3f	; 63
    1654:	0f 92       	push	r0
    1656:	11 24       	eor	r1, r1
    1658:	2f 93       	push	r18
    165a:	3f 93       	push	r19
    165c:	4f 93       	push	r20
    165e:	5f 93       	push	r21
    1660:	6f 93       	push	r22
    1662:	7f 93       	push	r23
    1664:	8f 93       	push	r24
    1666:	9f 93       	push	r25
    1668:	af 93       	push	r26
    166a:	bf 93       	push	r27
    166c:	ef 93       	push	r30
    166e:	ff 93       	push	r31
    1670:	e0 91 f2 01 	lds	r30, 0x01F2
    1674:	f0 91 f3 01 	lds	r31, 0x01F3
    1678:	30 97       	sbiw	r30, 0x00	; 0
    167a:	09 f0       	breq	.+2      	; 0x167e <__vector_4+0x30>
    167c:	09 95       	icall
    167e:	ff 91       	pop	r31
    1680:	ef 91       	pop	r30
    1682:	bf 91       	pop	r27
    1684:	af 91       	pop	r26
    1686:	9f 91       	pop	r25
    1688:	8f 91       	pop	r24
    168a:	7f 91       	pop	r23
    168c:	6f 91       	pop	r22
    168e:	5f 91       	pop	r21
    1690:	4f 91       	pop	r20
    1692:	3f 91       	pop	r19
    1694:	2f 91       	pop	r18
    1696:	0f 90       	pop	r0
    1698:	0f be       	out	0x3f, r0	; 63
    169a:	0f 90       	pop	r0
    169c:	1f 90       	pop	r1
    169e:	18 95       	reti

000016a0 <__vector_5>:
    16a0:	1f 92       	push	r1
    16a2:	0f 92       	push	r0
    16a4:	0f b6       	in	r0, 0x3f	; 63
    16a6:	0f 92       	push	r0
    16a8:	11 24       	eor	r1, r1
    16aa:	2f 93       	push	r18
    16ac:	3f 93       	push	r19
    16ae:	4f 93       	push	r20
    16b0:	5f 93       	push	r21
    16b2:	6f 93       	push	r22
    16b4:	7f 93       	push	r23
    16b6:	8f 93       	push	r24
    16b8:	9f 93       	push	r25
    16ba:	af 93       	push	r26
    16bc:	bf 93       	push	r27
    16be:	ef 93       	push	r30
    16c0:	ff 93       	push	r31
    16c2:	e0 91 f4 01 	lds	r30, 0x01F4
    16c6:	f0 91 f5 01 	lds	r31, 0x01F5
    16ca:	30 97       	sbiw	r30, 0x00	; 0
    16cc:	09 f0       	breq	.+2      	; 0x16d0 <__vector_5+0x30>
    16ce:	09 95       	icall
    16d0:	ff 91       	pop	r31
    16d2:	ef 91       	pop	r30
    16d4:	bf 91       	pop	r27
    16d6:	af 91       	pop	r26
    16d8:	9f 91       	pop	r25
    16da:	8f 91       	pop	r24
    16dc:	7f 91       	pop	r23
    16de:	6f 91       	pop	r22
    16e0:	5f 91       	pop	r21
    16e2:	4f 91       	pop	r20
    16e4:	3f 91       	pop	r19
    16e6:	2f 91       	pop	r18
    16e8:	0f 90       	pop	r0
    16ea:	0f be       	out	0x3f, r0	; 63
    16ec:	0f 90       	pop	r0
    16ee:	1f 90       	pop	r1
    16f0:	18 95       	reti

000016f2 <__vector_6>:
    16f2:	1f 92       	push	r1
    16f4:	0f 92       	push	r0
    16f6:	0f b6       	in	r0, 0x3f	; 63
    16f8:	0f 92       	push	r0
    16fa:	11 24       	eor	r1, r1
    16fc:	2f 93       	push	r18
    16fe:	3f 93       	push	r19
    1700:	4f 93       	push	r20
    1702:	5f 93       	push	r21
    1704:	6f 93       	push	r22
    1706:	7f 93       	push	r23
    1708:	8f 93       	push	r24
    170a:	9f 93       	push	r25
    170c:	af 93       	push	r26
    170e:	bf 93       	push	r27
    1710:	ef 93       	push	r30
    1712:	ff 93       	push	r31
    1714:	e0 91 f6 01 	lds	r30, 0x01F6
    1718:	f0 91 f7 01 	lds	r31, 0x01F7
    171c:	30 97       	sbiw	r30, 0x00	; 0
    171e:	09 f0       	breq	.+2      	; 0x1722 <__vector_6+0x30>
    1720:	09 95       	icall
    1722:	ff 91       	pop	r31
    1724:	ef 91       	pop	r30
    1726:	bf 91       	pop	r27
    1728:	af 91       	pop	r26
    172a:	9f 91       	pop	r25
    172c:	8f 91       	pop	r24
    172e:	7f 91       	pop	r23
    1730:	6f 91       	pop	r22
    1732:	5f 91       	pop	r21
    1734:	4f 91       	pop	r20
    1736:	3f 91       	pop	r19
    1738:	2f 91       	pop	r18
    173a:	0f 90       	pop	r0
    173c:	0f be       	out	0x3f, r0	; 63
    173e:	0f 90       	pop	r0
    1740:	1f 90       	pop	r1
    1742:	18 95       	reti

00001744 <__vector_7>:
    1744:	1f 92       	push	r1
    1746:	0f 92       	push	r0
    1748:	0f b6       	in	r0, 0x3f	; 63
    174a:	0f 92       	push	r0
    174c:	11 24       	eor	r1, r1
    174e:	2f 93       	push	r18
    1750:	3f 93       	push	r19
    1752:	4f 93       	push	r20
    1754:	5f 93       	push	r21
    1756:	6f 93       	push	r22
    1758:	7f 93       	push	r23
    175a:	8f 93       	push	r24
    175c:	9f 93       	push	r25
    175e:	af 93       	push	r26
    1760:	bf 93       	push	r27
    1762:	ef 93       	push	r30
    1764:	ff 93       	push	r31
    1766:	e0 91 f8 01 	lds	r30, 0x01F8
    176a:	f0 91 f9 01 	lds	r31, 0x01F9
    176e:	30 97       	sbiw	r30, 0x00	; 0
    1770:	09 f0       	breq	.+2      	; 0x1774 <__vector_7+0x30>
    1772:	09 95       	icall
    1774:	ff 91       	pop	r31
    1776:	ef 91       	pop	r30
    1778:	bf 91       	pop	r27
    177a:	af 91       	pop	r26
    177c:	9f 91       	pop	r25
    177e:	8f 91       	pop	r24
    1780:	7f 91       	pop	r23
    1782:	6f 91       	pop	r22
    1784:	5f 91       	pop	r21
    1786:	4f 91       	pop	r20
    1788:	3f 91       	pop	r19
    178a:	2f 91       	pop	r18
    178c:	0f 90       	pop	r0
    178e:	0f be       	out	0x3f, r0	; 63
    1790:	0f 90       	pop	r0
    1792:	1f 90       	pop	r1
    1794:	18 95       	reti

00001796 <ISR_open>:
    1796:	80 e1       	ldi	r24, 0x10	; 16
    1798:	0e 94 f2 07 	call	0xfe4	; 0xfe4 <SYS_get_state>
    179c:	88 23       	and	r24, r24
    179e:	61 f4       	brne	.+24     	; 0x17b8 <ISR_open+0x22>
    17a0:	ea ee       	ldi	r30, 0xEA	; 234
    17a2:	f1 e0       	ldi	r31, 0x01	; 1
    17a4:	11 92       	st	Z+, r1
    17a6:	11 92       	st	Z+, r1
    17a8:	82 e0       	ldi	r24, 0x02	; 2
    17aa:	ea 32       	cpi	r30, 0x2A	; 42
    17ac:	f8 07       	cpc	r31, r24
    17ae:	d1 f7       	brne	.-12     	; 0x17a4 <ISR_open+0xe>
    17b0:	80 e1       	ldi	r24, 0x10	; 16
    17b2:	61 e0       	ldi	r22, 0x01	; 1
    17b4:	0e 94 3a 08 	call	0x1074	; 0x1074 <SYS_set_state>
    17b8:	80 e1       	ldi	r24, 0x10	; 16
    17ba:	91 e0       	ldi	r25, 0x01	; 1
    17bc:	08 95       	ret

000017be <__LCD_init>:
    17be:	23 9a       	sbi	0x04, 3	; 4
    17c0:	08 95       	ret

000017c2 <__LCD_putchar>:
    17c2:	ff 92       	push	r15
    17c4:	0f 93       	push	r16
    17c6:	1f 93       	push	r17
    17c8:	cf 93       	push	r28
    17ca:	df 93       	push	r29
    17cc:	f8 2e       	mov	r15, r24
    17ce:	8a e0       	ldi	r24, 0x0A	; 10
    17d0:	f8 16       	cp	r15, r24
    17d2:	b1 f0       	breq	.+44     	; 0x1800 <__LCD_putchar+0x3e>
    17d4:	8f 15       	cp	r24, r15
    17d6:	48 f0       	brcs	.+18     	; 0x17ea <__LCD_putchar+0x28>
    17d8:	e8 e0       	ldi	r30, 0x08	; 8
    17da:	fe 16       	cp	r15, r30
    17dc:	b9 f1       	breq	.+110    	; 0x184c <__LCD_putchar+0x8a>
    17de:	ef 15       	cp	r30, r15
    17e0:	38 f1       	brcs	.+78     	; 0x1830 <__LCD_putchar+0x6e>
    17e2:	f7 e0       	ldi	r31, 0x07	; 7
    17e4:	ff 16       	cp	r15, r31
    17e6:	51 f4       	brne	.+20     	; 0x17fc <__LCD_putchar+0x3a>
    17e8:	3b c0       	rjmp	.+118    	; 0x1860 <__LCD_putchar+0x9e>
    17ea:	8d e0       	ldi	r24, 0x0D	; 13
    17ec:	f8 16       	cp	r15, r24
    17ee:	59 f0       	breq	.+22     	; 0x1806 <__LCD_putchar+0x44>
    17f0:	eb e1       	ldi	r30, 0x1B	; 27
    17f2:	fe 16       	cp	r15, r30
    17f4:	89 f0       	breq	.+34     	; 0x1818 <__LCD_putchar+0x56>
    17f6:	fc e0       	ldi	r31, 0x0C	; 12
    17f8:	ff 16       	cp	r15, r31
    17fa:	41 f0       	breq	.+16     	; 0x180c <__LCD_putchar+0x4a>
    17fc:	01 e0       	ldi	r16, 0x01	; 1
    17fe:	41 c0       	rjmp	.+130    	; 0x1882 <__LCD_putchar+0xc0>
    1800:	10 92 a1 02 	sts	0x02A1, r1
    1804:	03 c0       	rjmp	.+6      	; 0x180c <__LCD_putchar+0x4a>
    1806:	10 92 a1 02 	sts	0x02A1, r1
    180a:	3a c0       	rjmp	.+116    	; 0x1880 <__LCD_putchar+0xbe>
    180c:	80 91 a2 02 	lds	r24, 0x02A2
    1810:	81 50       	subi	r24, 0x01	; 1
    1812:	80 93 a2 02 	sts	0x02A2, r24
    1816:	34 c0       	rjmp	.+104    	; 0x1880 <__LCD_putchar+0xbe>
    1818:	0e 94 70 03 	call	0x6e0	; 0x6e0 <LCD_clear>
    181c:	14 c0       	rjmp	.+40     	; 0x1846 <__LCD_putchar+0x84>
    181e:	80 e0       	ldi	r24, 0x00	; 0
    1820:	61 e0       	ldi	r22, 0x01	; 1
    1822:	0e 94 4f 04 	call	0x89e	; 0x89e <LCD_write>
    1826:	80 91 a1 02 	lds	r24, 0x02A1
    182a:	8f 5f       	subi	r24, 0xFF	; 255
    182c:	80 93 a1 02 	sts	0x02A1, r24
    1830:	80 91 a1 02 	lds	r24, 0x02A1
    1834:	87 ff       	sbrs	r24, 7
    1836:	f3 cf       	rjmp	.-26     	; 0x181e <__LCD_putchar+0x5c>
    1838:	10 92 a1 02 	sts	0x02A1, r1
    183c:	80 91 a2 02 	lds	r24, 0x02A2
    1840:	81 50       	subi	r24, 0x01	; 1
    1842:	80 93 a2 02 	sts	0x02A2, r24
    1846:	00 e0       	ldi	r16, 0x00	; 0
    1848:	11 e0       	ldi	r17, 0x01	; 1
    184a:	1c c0       	rjmp	.+56     	; 0x1884 <__LCD_putchar+0xc2>
    184c:	80 91 a1 02 	lds	r24, 0x02A1
    1850:	88 23       	and	r24, r24
    1852:	b1 f0       	breq	.+44     	; 0x1880 <__LCD_putchar+0xbe>
    1854:	80 91 a1 02 	lds	r24, 0x02A1
    1858:	86 50       	subi	r24, 0x06	; 6
    185a:	80 93 a1 02 	sts	0x02A1, r24
    185e:	10 c0       	rjmp	.+32     	; 0x1880 <__LCD_putchar+0xbe>
    1860:	81 e0       	ldi	r24, 0x01	; 1
    1862:	0e 94 ff 0d 	call	0x1bfe	; 0x1bfe <SPKR_open>
    1866:	64 ef       	ldi	r22, 0xF4	; 244
    1868:	71 e0       	ldi	r23, 0x01	; 1
    186a:	80 e0       	ldi	r24, 0x00	; 0
    186c:	90 e0       	ldi	r25, 0x00	; 0
    186e:	4d e7       	ldi	r20, 0x7D	; 125
    1870:	50 e0       	ldi	r21, 0x00	; 0
    1872:	24 e6       	ldi	r18, 0x64	; 100
    1874:	30 e0       	ldi	r19, 0x00	; 0
    1876:	0e 94 0c 0e 	call	0x1c18	; 0x1c18 <SPKR_play_beep>
    187a:	81 e0       	ldi	r24, 0x01	; 1
    187c:	0e 94 64 0d 	call	0x1ac8	; 0x1ac8 <SPKR_close>
    1880:	00 e0       	ldi	r16, 0x00	; 0
    1882:	10 e0       	ldi	r17, 0x00	; 0
    1884:	80 91 a2 02 	lds	r24, 0x02A2
    1888:	60 91 a1 02 	lds	r22, 0x02A1
    188c:	0e 94 36 04 	call	0x86c	; 0x86c <LCD_set_PGC_addr>
    1890:	00 23       	and	r16, r16
    1892:	51 f1       	breq	.+84     	; 0x18e8 <__LCD_putchar+0x126>
    1894:	85 e0       	ldi	r24, 0x05	; 5
    1896:	f8 9e       	mul	r15, r24
    1898:	c0 01       	movw	r24, r0
    189a:	11 24       	eor	r1, r1
    189c:	ec 01       	movw	r28, r24
    189e:	c5 52       	subi	r28, 0x25	; 37
    18a0:	df 4f       	sbci	r29, 0xFF	; 255
    18a2:	8c 01       	movw	r16, r24
    18a4:	00 52       	subi	r16, 0x20	; 32
    18a6:	1f 4f       	sbci	r17, 0xFF	; 255
    18a8:	fe 01       	movw	r30, r28
    18aa:	84 91       	lpm	r24, Z
    18ac:	61 e0       	ldi	r22, 0x01	; 1
    18ae:	0e 94 4f 04 	call	0x89e	; 0x89e <LCD_write>
    18b2:	21 96       	adiw	r28, 0x01	; 1
    18b4:	c0 17       	cp	r28, r16
    18b6:	d1 07       	cpc	r29, r17
    18b8:	b9 f7       	brne	.-18     	; 0x18a8 <__LCD_putchar+0xe6>
    18ba:	80 e0       	ldi	r24, 0x00	; 0
    18bc:	61 e0       	ldi	r22, 0x01	; 1
    18be:	0e 94 4f 04 	call	0x89e	; 0x89e <LCD_write>
    18c2:	80 91 a1 02 	lds	r24, 0x02A1
    18c6:	8a 5f       	subi	r24, 0xFA	; 250
    18c8:	80 93 a1 02 	sts	0x02A1, r24
    18cc:	80 91 a1 02 	lds	r24, 0x02A1
    18d0:	90 e0       	ldi	r25, 0x00	; 0
    18d2:	8c 37       	cpi	r24, 0x7C	; 124
    18d4:	91 05       	cpc	r25, r1
    18d6:	3c f0       	brlt	.+14     	; 0x18e6 <__LCD_putchar+0x124>
    18d8:	10 92 a1 02 	sts	0x02A1, r1
    18dc:	80 91 a2 02 	lds	r24, 0x02A2
    18e0:	81 50       	subi	r24, 0x01	; 1
    18e2:	80 93 a2 02 	sts	0x02A2, r24
    18e6:	11 e0       	ldi	r17, 0x01	; 1
    18e8:	80 91 a2 02 	lds	r24, 0x02A2
    18ec:	83 70       	andi	r24, 0x03	; 3
    18ee:	80 93 a2 02 	sts	0x02A2, r24
    18f2:	11 30       	cpi	r17, 0x01	; 1
    18f4:	59 f4       	brne	.+22     	; 0x190c <__LCD_putchar+0x14a>
    18f6:	80 91 a3 02 	lds	r24, 0x02A3
    18fa:	81 30       	cpi	r24, 0x01	; 1
    18fc:	39 f4       	brne	.+14     	; 0x190c <__LCD_putchar+0x14a>
    18fe:	e0 91 a4 02 	lds	r30, 0x02A4
    1902:	f0 91 a5 02 	lds	r31, 0x02A5
    1906:	30 97       	sbiw	r30, 0x00	; 0
    1908:	09 f0       	breq	.+2      	; 0x190c <__LCD_putchar+0x14a>
    190a:	09 95       	icall
    190c:	80 e0       	ldi	r24, 0x00	; 0
    190e:	90 e0       	ldi	r25, 0x00	; 0
    1910:	df 91       	pop	r29
    1912:	cf 91       	pop	r28
    1914:	1f 91       	pop	r17
    1916:	0f 91       	pop	r16
    1918:	ff 90       	pop	r15
    191a:	08 95       	ret

0000191c <ATMEGA_open>:
    191c:	80 e0       	ldi	r24, 0x00	; 0
    191e:	0e 94 f2 07 	call	0xfe4	; 0xfe4 <SYS_get_state>
    1922:	88 23       	and	r24, r24
    1924:	51 f4       	brne	.+20     	; 0x193a <ATMEGA_open+0x1e>
    1926:	f8 94       	cli
    1928:	0e 94 00 10 	call	0x2000	; 0x2000 <__ATMEGA_init>
    192c:	81 e0       	ldi	r24, 0x01	; 1
    192e:	0e 94 a0 0c 	call	0x1940	; 0x1940 <ATMEGA_set_clk_mode>
    1932:	80 e0       	ldi	r24, 0x00	; 0
    1934:	61 e0       	ldi	r22, 0x01	; 1
    1936:	0e 94 3a 08 	call	0x1074	; 0x1074 <SYS_set_state>
    193a:	80 e0       	ldi	r24, 0x00	; 0
    193c:	91 e0       	ldi	r25, 0x01	; 1
    193e:	08 95       	ret

00001940 <ATMEGA_set_clk_mode>:
    1940:	81 30       	cpi	r24, 0x01	; 1
    1942:	49 f0       	breq	.+18     	; 0x1956 <ATMEGA_set_clk_mode+0x16>
    1944:	f8 94       	cli
    1946:	81 30       	cpi	r24, 0x01	; 1
    1948:	20 f1       	brcs	.+72     	; 0x1992 <ATMEGA_set_clk_mode+0x52>
    194a:	82 30       	cpi	r24, 0x02	; 2
    194c:	b1 f0       	breq	.+44     	; 0x197a <ATMEGA_set_clk_mode+0x3a>
    194e:	83 30       	cpi	r24, 0x03	; 3
    1950:	09 f0       	breq	.+2      	; 0x1954 <ATMEGA_set_clk_mode+0x14>
    1952:	45 c0       	rjmp	.+138    	; 0x19de <ATMEGA_set_clk_mode+0x9e>
    1954:	17 c0       	rjmp	.+46     	; 0x1984 <ATMEGA_set_clk_mode+0x44>
    1956:	2c 9a       	sbi	0x05, 4	; 5
    1958:	80 e8       	ldi	r24, 0x80	; 128
    195a:	80 93 61 00 	sts	0x0061, r24
    195e:	10 92 61 00 	sts	0x0061, r1
    1962:	80 e0       	ldi	r24, 0x00	; 0
    1964:	90 e0       	ldi	r25, 0x00	; 0
    1966:	00 00       	nop
    1968:	01 96       	adiw	r24, 0x01	; 1
    196a:	88 32       	cpi	r24, 0x28	; 40
    196c:	91 05       	cpc	r25, r1
    196e:	d9 f7       	brne	.-10     	; 0x1966 <ATMEGA_set_clk_mode+0x26>
    1970:	10 92 68 00 	sts	0x0068, r1
    1974:	10 92 6b 00 	sts	0x006B, r1
    1978:	08 95       	ret
    197a:	80 e8       	ldi	r24, 0x80	; 128
    197c:	80 93 61 00 	sts	0x0061, r24
    1980:	83 e0       	ldi	r24, 0x03	; 3
    1982:	04 c0       	rjmp	.+8      	; 0x198c <ATMEGA_set_clk_mode+0x4c>
    1984:	80 e8       	ldi	r24, 0x80	; 128
    1986:	80 93 61 00 	sts	0x0061, r24
    198a:	88 e0       	ldi	r24, 0x08	; 8
    198c:	80 93 61 00 	sts	0x0061, r24
    1990:	28 c0       	rjmp	.+80     	; 0x19e2 <ATMEGA_set_clk_mode+0xa2>
    1992:	80 e0       	ldi	r24, 0x00	; 0
    1994:	90 e0       	ldi	r25, 0x00	; 0
    1996:	00 00       	nop
    1998:	01 96       	adiw	r24, 0x01	; 1
    199a:	2d e6       	ldi	r18, 0x6D	; 109
    199c:	80 36       	cpi	r24, 0x60	; 96
    199e:	92 07       	cpc	r25, r18
    19a0:	d1 f7       	brne	.-12     	; 0x1996 <ATMEGA_set_clk_mode+0x56>
    19a2:	2c 98       	cbi	0x05, 4	; 5
    19a4:	80 e0       	ldi	r24, 0x00	; 0
    19a6:	90 e0       	ldi	r25, 0x00	; 0
    19a8:	00 00       	nop
    19aa:	01 96       	adiw	r24, 0x01	; 1
    19ac:	2d e6       	ldi	r18, 0x6D	; 109
    19ae:	80 36       	cpi	r24, 0x60	; 96
    19b0:	92 07       	cpc	r25, r18
    19b2:	d1 f7       	brne	.-12     	; 0x19a8 <ATMEGA_set_clk_mode+0x68>
    19b4:	10 92 7a 00 	sts	0x007A, r1
    19b8:	8f ef       	ldi	r24, 0xFF	; 255
    19ba:	80 93 64 00 	sts	0x0064, r24
    19be:	80 91 68 00 	lds	r24, 0x0068
    19c2:	81 60       	ori	r24, 0x01	; 1
    19c4:	80 93 68 00 	sts	0x0068, r24
    19c8:	80 91 6b 00 	lds	r24, 0x006B
    19cc:	84 60       	ori	r24, 0x04	; 4
    19ce:	80 93 6b 00 	sts	0x006B, r24
    19d2:	78 94       	sei
    19d4:	83 b7       	in	r24, 0x33	; 51
    19d6:	81 60       	ori	r24, 0x01	; 1
    19d8:	83 bf       	out	0x33, r24	; 51
    19da:	88 95       	sleep
    19dc:	08 95       	ret
    19de:	82 30       	cpi	r24, 0x02	; 2
    19e0:	08 f0       	brcs	.+2      	; 0x19e4 <ATMEGA_set_clk_mode+0xa4>
    19e2:	78 94       	sei
    19e4:	08 95       	ret

000019e6 <SPI_open>:
    19e6:	0f 93       	push	r16
    19e8:	1f 93       	push	r17
    19ea:	0e 94 2c 10 	call	0x2058	; 0x2058 <__SPI_init>
    19ee:	80 e0       	ldi	r24, 0x00	; 0
    19f0:	6b e1       	ldi	r22, 0x1B	; 27
    19f2:	70 e1       	ldi	r23, 0x10	; 16
    19f4:	0e 94 2c 0d 	call	0x1a58	; 0x1a58 <SPI_set_config_func>
    19f8:	81 e0       	ldi	r24, 0x01	; 1
    19fa:	63 e1       	ldi	r22, 0x13	; 19
    19fc:	70 e1       	ldi	r23, 0x10	; 16
    19fe:	0e 94 2c 0d 	call	0x1a58	; 0x1a58 <SPI_set_config_func>
    1a02:	82 e0       	ldi	r24, 0x02	; 2
    1a04:	6b e0       	ldi	r22, 0x0B	; 11
    1a06:	70 e1       	ldi	r23, 0x10	; 16
    1a08:	0e 94 2c 0d 	call	0x1a58	; 0x1a58 <SPI_set_config_func>
    1a0c:	86 e0       	ldi	r24, 0x06	; 6
    1a0e:	63 e2       	ldi	r22, 0x23	; 35
    1a10:	70 e1       	ldi	r23, 0x10	; 16
    1a12:	0e 94 2c 0d 	call	0x1a58	; 0x1a58 <SPI_set_config_func>
    1a16:	03 e0       	ldi	r16, 0x03	; 3
    1a18:	10 e1       	ldi	r17, 0x10	; 16
    1a1a:	83 e0       	ldi	r24, 0x03	; 3
    1a1c:	b8 01       	movw	r22, r16
    1a1e:	0e 94 2c 0d 	call	0x1a58	; 0x1a58 <SPI_set_config_func>
    1a22:	84 e0       	ldi	r24, 0x04	; 4
    1a24:	b8 01       	movw	r22, r16
    1a26:	0e 94 2c 0d 	call	0x1a58	; 0x1a58 <SPI_set_config_func>
    1a2a:	85 e0       	ldi	r24, 0x05	; 5
    1a2c:	b8 01       	movw	r22, r16
    1a2e:	0e 94 2c 0d 	call	0x1a58	; 0x1a58 <SPI_set_config_func>
    1a32:	87 e0       	ldi	r24, 0x07	; 7
    1a34:	b8 01       	movw	r22, r16
    1a36:	0e 94 2c 0d 	call	0x1a58	; 0x1a58 <SPI_set_config_func>
    1a3a:	82 e0       	ldi	r24, 0x02	; 2
    1a3c:	61 e0       	ldi	r22, 0x01	; 1
    1a3e:	0e 94 3a 08 	call	0x1074	; 0x1074 <SYS_set_state>
    1a42:	8f ef       	ldi	r24, 0xFF	; 255
    1a44:	80 93 a6 02 	sts	0x02A6, r24
    1a48:	87 e0       	ldi	r24, 0x07	; 7
    1a4a:	0e 94 6a 04 	call	0x8d4	; 0x8d4 <SPI_set_slave_addr>
    1a4e:	82 e0       	ldi	r24, 0x02	; 2
    1a50:	91 e0       	ldi	r25, 0x01	; 1
    1a52:	1f 91       	pop	r17
    1a54:	0f 91       	pop	r16
    1a56:	08 95       	ret

00001a58 <SPI_set_config_func>:
    1a58:	e8 2f       	mov	r30, r24
    1a5a:	f0 e0       	ldi	r31, 0x00	; 0
    1a5c:	ee 0f       	add	r30, r30
    1a5e:	ff 1f       	adc	r31, r31
    1a60:	e6 5d       	subi	r30, 0xD6	; 214
    1a62:	fd 4f       	sbci	r31, 0xFD	; 253
    1a64:	71 83       	std	Z+1, r23	; 0x01
    1a66:	60 83       	st	Z, r22
    1a68:	08 95       	ret

00001a6a <__SPKR_close_beep_mode>:
    1a6a:	8a e0       	ldi	r24, 0x0A	; 10
    1a6c:	0e 94 f2 07 	call	0xfe4	; 0xfe4 <SYS_get_state>
    1a70:	81 30       	cpi	r24, 0x01	; 1
    1a72:	41 f4       	brne	.+16     	; 0x1a84 <__SPKR_close_beep_mode+0x1a>
    1a74:	0e 94 a0 10 	call	0x2140	; 0x2140 <__SPKR_close>
    1a78:	10 92 3b 02 	sts	0x023B, r1
    1a7c:	8a e0       	ldi	r24, 0x0A	; 10
    1a7e:	60 e0       	ldi	r22, 0x00	; 0
    1a80:	0e 94 3a 08 	call	0x1074	; 0x1074 <SYS_set_state>
    1a84:	08 95       	ret

00001a86 <__SPKR_close_tone_mode>:
    1a86:	89 e0       	ldi	r24, 0x09	; 9
    1a88:	0e 94 f2 07 	call	0xfe4	; 0xfe4 <SYS_get_state>
    1a8c:	81 30       	cpi	r24, 0x01	; 1
    1a8e:	d9 f4       	brne	.+54     	; 0x1ac6 <__SPKR_close_tone_mode+0x40>
    1a90:	80 91 3a 02 	lds	r24, 0x023A
    1a94:	88 23       	and	r24, r24
    1a96:	11 f0       	breq	.+4      	; 0x1a9c <__SPKR_close_tone_mode+0x16>
    1a98:	0e 94 59 0e 	call	0x1cb2	; 0x1cb2 <__SPKR_stop>
    1a9c:	82 e0       	ldi	r24, 0x02	; 2
    1a9e:	0e 94 a0 10 	call	0x2140	; 0x2140 <__SPKR_close>
    1aa2:	80 91 48 02 	lds	r24, 0x0248
    1aa6:	90 91 49 02 	lds	r25, 0x0249
    1aaa:	00 97       	sbiw	r24, 0x00	; 0
    1aac:	31 f0       	breq	.+12     	; 0x1aba <__SPKR_close_tone_mode+0x34>
    1aae:	0e 94 59 21 	call	0x42b2	; 0x42b2 <free>
    1ab2:	10 92 49 02 	sts	0x0249, r1
    1ab6:	10 92 48 02 	sts	0x0248, r1
    1aba:	10 92 3a 02 	sts	0x023A, r1
    1abe:	89 e0       	ldi	r24, 0x09	; 9
    1ac0:	60 e0       	ldi	r22, 0x00	; 0
    1ac2:	0e 94 3a 08 	call	0x1074	; 0x1074 <SYS_set_state>
    1ac6:	08 95       	ret

00001ac8 <SPKR_close>:
    1ac8:	81 30       	cpi	r24, 0x01	; 1
    1aca:	29 f0       	breq	.+10     	; 0x1ad6 <SPKR_close+0xe>
    1acc:	82 30       	cpi	r24, 0x02	; 2
    1ace:	29 f4       	brne	.+10     	; 0x1ada <SPKR_close+0x12>
    1ad0:	0e 94 43 0d 	call	0x1a86	; 0x1a86 <__SPKR_close_tone_mode>
    1ad4:	08 95       	ret
    1ad6:	0e 94 35 0d 	call	0x1a6a	; 0x1a6a <__SPKR_close_beep_mode>
    1ada:	08 95       	ret

00001adc <__SPKR_set_up_freq_LUT>:
    1adc:	0f 93       	push	r16
    1ade:	1f 93       	push	r17
    1ae0:	cf 93       	push	r28
    1ae2:	df 93       	push	r29
    1ae4:	80 e2       	ldi	r24, 0x20	; 32
    1ae6:	91 e0       	ldi	r25, 0x01	; 1
    1ae8:	0e 94 c1 20 	call	0x4182	; 0x4182 <malloc>
    1aec:	9c 01       	movw	r18, r24
    1aee:	90 93 49 02 	sts	0x0249, r25
    1af2:	80 93 48 02 	sts	0x0248, r24
    1af6:	89 2b       	or	r24, r25
    1af8:	11 f4       	brne	.+4      	; 0x1afe <__SPKR_set_up_freq_LUT+0x22>
    1afa:	80 e0       	ldi	r24, 0x00	; 0
    1afc:	39 c0       	rjmp	.+114    	; 0x1b70 <__SPKR_set_up_freq_LUT+0x94>
    1afe:	89 01       	movw	r16, r18
    1b00:	c0 e0       	ldi	r28, 0x00	; 0
    1b02:	d0 e0       	ldi	r29, 0x00	; 0
    1b04:	be 01       	movw	r22, r28
    1b06:	80 e0       	ldi	r24, 0x00	; 0
    1b08:	90 e0       	ldi	r25, 0x00	; 0
    1b0a:	0e 94 f9 18 	call	0x31f2	; 0x31f2 <__floatunsisf>
    1b0e:	20 e0       	ldi	r18, 0x00	; 0
    1b10:	30 e0       	ldi	r19, 0x00	; 0
    1b12:	40 ea       	ldi	r20, 0xA0	; 160
    1b14:	51 e4       	ldi	r21, 0x41	; 65
    1b16:	0e 94 60 18 	call	0x30c0	; 0x30c0 <__divsf3>
    1b1a:	27 ef       	ldi	r18, 0xF7	; 247
    1b1c:	35 e7       	ldi	r19, 0x75	; 117
    1b1e:	40 e0       	ldi	r20, 0x00	; 0
    1b20:	5f e3       	ldi	r21, 0x3F	; 63
    1b22:	0e 94 4a 1a 	call	0x3494	; 0x3494 <__mulsf3>
    1b26:	9b 01       	movw	r18, r22
    1b28:	ac 01       	movw	r20, r24
    1b2a:	60 e0       	ldi	r22, 0x00	; 0
    1b2c:	70 e0       	ldi	r23, 0x00	; 0
    1b2e:	80 e2       	ldi	r24, 0x20	; 32
    1b30:	91 e4       	ldi	r25, 0x41	; 65
    1b32:	0e 94 21 1f 	call	0x3e42	; 0x3e42 <pow>
    1b36:	9b 01       	movw	r18, r22
    1b38:	ac 01       	movw	r20, r24
    1b3a:	ca 01       	movw	r24, r20
    1b3c:	b9 01       	movw	r22, r18
    1b3e:	2d ec       	ldi	r18, 0xCD	; 205
    1b40:	3c ec       	ldi	r19, 0xCC	; 204
    1b42:	42 e8       	ldi	r20, 0x82	; 130
    1b44:	51 e4       	ldi	r21, 0x41	; 65
    1b46:	0e 94 4a 1a 	call	0x3494	; 0x3494 <__mulsf3>
    1b4a:	0e 94 e7 1e 	call	0x3dce	; 0x3dce <lrint>
    1b4e:	2a e0       	ldi	r18, 0x0A	; 10
    1b50:	30 e0       	ldi	r19, 0x00	; 0
    1b52:	40 e0       	ldi	r20, 0x00	; 0
    1b54:	50 e0       	ldi	r21, 0x00	; 0
    1b56:	0e 94 16 20 	call	0x402c	; 0x402c <__mulsi3>
    1b5a:	f8 01       	movw	r30, r16
    1b5c:	61 93       	st	Z+, r22
    1b5e:	71 93       	st	Z+, r23
    1b60:	81 93       	st	Z+, r24
    1b62:	91 93       	st	Z+, r25
    1b64:	8f 01       	movw	r16, r30
    1b66:	21 96       	adiw	r28, 0x01	; 1
    1b68:	c8 34       	cpi	r28, 0x48	; 72
    1b6a:	d1 05       	cpc	r29, r1
    1b6c:	59 f6       	brne	.-106    	; 0x1b04 <__SPKR_set_up_freq_LUT+0x28>
    1b6e:	81 e0       	ldi	r24, 0x01	; 1
    1b70:	df 91       	pop	r29
    1b72:	cf 91       	pop	r28
    1b74:	1f 91       	pop	r17
    1b76:	0f 91       	pop	r16
    1b78:	08 95       	ret

00001b7a <__SPKR_open_beep_mode>:
    1b7a:	8a e0       	ldi	r24, 0x0A	; 10
    1b7c:	0e 94 f2 07 	call	0xfe4	; 0xfe4 <SYS_get_state>
    1b80:	88 23       	and	r24, r24
    1b82:	71 f4       	brne	.+28     	; 0x1ba0 <__SPKR_open_beep_mode+0x26>
    1b84:	10 92 45 02 	sts	0x0245, r1
    1b88:	10 92 44 02 	sts	0x0244, r1
    1b8c:	81 e0       	ldi	r24, 0x01	; 1
    1b8e:	0e 94 bc 10 	call	0x2178	; 0x2178 <__SPKR_init>
    1b92:	81 e0       	ldi	r24, 0x01	; 1
    1b94:	80 93 3b 02 	sts	0x023B, r24
    1b98:	8a e0       	ldi	r24, 0x0A	; 10
    1b9a:	61 e0       	ldi	r22, 0x01	; 1
    1b9c:	0e 94 3a 08 	call	0x1074	; 0x1074 <SYS_set_state>
    1ba0:	8a e0       	ldi	r24, 0x0A	; 10
    1ba2:	91 e0       	ldi	r25, 0x01	; 1
    1ba4:	08 95       	ret

00001ba6 <__SPKR_open_tone_mode>:
    1ba6:	1f 93       	push	r17
    1ba8:	8b e0       	ldi	r24, 0x0B	; 11
    1baa:	0e 94 f2 07 	call	0xfe4	; 0xfe4 <SYS_get_state>
    1bae:	88 23       	and	r24, r24
    1bb0:	11 f0       	breq	.+4      	; 0x1bb6 <__SPKR_open_tone_mode+0x10>
    1bb2:	90 e0       	ldi	r25, 0x00	; 0
    1bb4:	21 c0       	rjmp	.+66     	; 0x1bf8 <__SPKR_open_tone_mode+0x52>
    1bb6:	89 e0       	ldi	r24, 0x09	; 9
    1bb8:	0e 94 f2 07 	call	0xfe4	; 0xfe4 <SYS_get_state>
    1bbc:	88 23       	and	r24, r24
    1bbe:	d9 f4       	brne	.+54     	; 0x1bf6 <__SPKR_open_tone_mode+0x50>
    1bc0:	0e 94 6e 0d 	call	0x1adc	; 0x1adc <__SPKR_set_up_freq_LUT>
    1bc4:	18 2f       	mov	r17, r24
    1bc6:	81 30       	cpi	r24, 0x01	; 1
    1bc8:	b1 f4       	brne	.+44     	; 0x1bf6 <__SPKR_open_tone_mode+0x50>
    1bca:	10 92 3c 02 	sts	0x023C, r1
    1bce:	10 92 3d 02 	sts	0x023D, r1
    1bd2:	10 92 3e 02 	sts	0x023E, r1
    1bd6:	10 92 3f 02 	sts	0x023F, r1
    1bda:	8d e0       	ldi	r24, 0x0D	; 13
    1bdc:	65 e4       	ldi	r22, 0x45	; 69
    1bde:	70 e1       	ldi	r23, 0x10	; 16
    1be0:	0e 94 ec 0f 	call	0x1fd8	; 0x1fd8 <ISR_attach>
    1be4:	82 e0       	ldi	r24, 0x02	; 2
    1be6:	0e 94 bc 10 	call	0x2178	; 0x2178 <__SPKR_init>
    1bea:	10 93 3a 02 	sts	0x023A, r17
    1bee:	89 e0       	ldi	r24, 0x09	; 9
    1bf0:	61 e0       	ldi	r22, 0x01	; 1
    1bf2:	0e 94 3a 08 	call	0x1074	; 0x1074 <SYS_set_state>
    1bf6:	91 e0       	ldi	r25, 0x01	; 1
    1bf8:	89 e0       	ldi	r24, 0x09	; 9
    1bfa:	1f 91       	pop	r17
    1bfc:	08 95       	ret

00001bfe <SPKR_open>:
    1bfe:	81 30       	cpi	r24, 0x01	; 1
    1c00:	29 f0       	breq	.+10     	; 0x1c0c <SPKR_open+0xe>
    1c02:	82 30       	cpi	r24, 0x02	; 2
    1c04:	31 f0       	breq	.+12     	; 0x1c12 <SPKR_open+0x14>
    1c06:	90 e0       	ldi	r25, 0x00	; 0
    1c08:	89 e0       	ldi	r24, 0x09	; 9
    1c0a:	08 95       	ret
    1c0c:	0e 94 bd 0d 	call	0x1b7a	; 0x1b7a <__SPKR_open_beep_mode>
    1c10:	08 95       	ret
    1c12:	0e 94 d3 0d 	call	0x1ba6	; 0x1ba6 <__SPKR_open_tone_mode>
    1c16:	08 95       	ret

00001c18 <SPKR_play_beep>:
    1c18:	8f 92       	push	r8
    1c1a:	9f 92       	push	r9
    1c1c:	af 92       	push	r10
    1c1e:	bf 92       	push	r11
    1c20:	cf 92       	push	r12
    1c22:	df 92       	push	r13
    1c24:	ef 92       	push	r14
    1c26:	ff 92       	push	r15
    1c28:	0f 93       	push	r16
    1c2a:	1f 93       	push	r17
    1c2c:	cf 93       	push	r28
    1c2e:	df 93       	push	r29
    1c30:	4b 01       	movw	r8, r22
    1c32:	5c 01       	movw	r10, r24
    1c34:	ea 01       	movw	r28, r20
    1c36:	b9 01       	movw	r22, r18
    1c38:	21 15       	cp	r18, r1
    1c3a:	31 05       	cpc	r19, r1
    1c3c:	39 f1       	breq	.+78     	; 0x1c8c <SPKR_play_beep+0x74>
    1c3e:	9e 01       	movw	r18, r28
    1c40:	44 27       	eor	r20, r20
    1c42:	37 fd       	sbrc	r19, 7
    1c44:	40 95       	com	r20
    1c46:	54 2f       	mov	r21, r20
    1c48:	65 36       	cpi	r22, 0x65	; 101
    1c4a:	71 05       	cpc	r23, r1
    1c4c:	10 f0       	brcs	.+4      	; 0x1c52 <SPKR_play_beep+0x3a>
    1c4e:	64 e6       	ldi	r22, 0x64	; 100
    1c50:	70 e0       	ldi	r23, 0x00	; 0
    1c52:	80 e0       	ldi	r24, 0x00	; 0
    1c54:	90 e0       	ldi	r25, 0x00	; 0
    1c56:	0e 94 16 20 	call	0x402c	; 0x402c <__mulsi3>
    1c5a:	24 e6       	ldi	r18, 0x64	; 100
    1c5c:	30 e0       	ldi	r19, 0x00	; 0
    1c5e:	40 e0       	ldi	r20, 0x00	; 0
    1c60:	50 e0       	ldi	r21, 0x00	; 0
    1c62:	0e 94 3a 20 	call	0x4074	; 0x4074 <__udivmodsi4>
    1c66:	79 01       	movw	r14, r18
    1c68:	8a 01       	movw	r16, r20
    1c6a:	c5 01       	movw	r24, r10
    1c6c:	b4 01       	movw	r22, r8
    1c6e:	0e 94 48 10 	call	0x2090	; 0x2090 <SPKR_beep>
    1c72:	c7 01       	movw	r24, r14
    1c74:	0e 94 1e 09 	call	0x123c	; 0x123c <TMRSRVC_delay>
    1c78:	60 e0       	ldi	r22, 0x00	; 0
    1c7a:	70 e0       	ldi	r23, 0x00	; 0
    1c7c:	80 e0       	ldi	r24, 0x00	; 0
    1c7e:	90 e0       	ldi	r25, 0x00	; 0
    1c80:	0e 94 48 10 	call	0x2090	; 0x2090 <SPKR_beep>
    1c84:	ce 01       	movw	r24, r28
    1c86:	8e 19       	sub	r24, r14
    1c88:	9f 09       	sbc	r25, r15
    1c8a:	04 c0       	rjmp	.+8      	; 0x1c94 <SPKR_play_beep+0x7c>
    1c8c:	41 15       	cp	r20, r1
    1c8e:	51 05       	cpc	r21, r1
    1c90:	19 f0       	breq	.+6      	; 0x1c98 <SPKR_play_beep+0x80>
    1c92:	ca 01       	movw	r24, r20
    1c94:	0e 94 1e 09 	call	0x123c	; 0x123c <TMRSRVC_delay>
    1c98:	df 91       	pop	r29
    1c9a:	cf 91       	pop	r28
    1c9c:	1f 91       	pop	r17
    1c9e:	0f 91       	pop	r16
    1ca0:	ff 90       	pop	r15
    1ca2:	ef 90       	pop	r14
    1ca4:	df 90       	pop	r13
    1ca6:	cf 90       	pop	r12
    1ca8:	bf 90       	pop	r11
    1caa:	af 90       	pop	r10
    1cac:	9f 90       	pop	r9
    1cae:	8f 90       	pop	r8
    1cb0:	08 95       	ret

00001cb2 <__SPKR_stop>:
    1cb2:	ef e6       	ldi	r30, 0x6F	; 111
    1cb4:	f0 e0       	ldi	r31, 0x00	; 0
    1cb6:	80 81       	ld	r24, Z
    1cb8:	8d 7f       	andi	r24, 0xFD	; 253
    1cba:	80 83       	st	Z, r24
    1cbc:	08 95       	ret

00001cbe <__STEPPER_close>:
    1cbe:	88 b1       	in	r24, 0x08	; 8
    1cc0:	83 70       	andi	r24, 0x03	; 3
    1cc2:	88 b9       	out	0x08, r24	; 8
    1cc4:	3a 98       	cbi	0x07, 2	; 7
    1cc6:	3b 98       	cbi	0x07, 3	; 7
    1cc8:	3c 98       	cbi	0x07, 4	; 7
    1cca:	3d 98       	cbi	0x07, 5	; 7
    1ccc:	3e 98       	cbi	0x07, 6	; 7
    1cce:	3f 98       	cbi	0x07, 7	; 7
    1cd0:	08 95       	ret

00001cd2 <STEPPER_go>:
    1cd2:	98 2f       	mov	r25, r24
    1cd4:	81 e0       	ldi	r24, 0x01	; 1
    1cd6:	80 93 8b 02 	sts	0x028B, r24
    1cda:	91 30       	cpi	r25, 0x01	; 1
    1cdc:	51 f0       	breq	.+20     	; 0x1cf2 <STEPPER_go+0x20>
    1cde:	91 30       	cpi	r25, 0x01	; 1
    1ce0:	18 f0       	brcs	.+6      	; 0x1ce8 <STEPPER_go+0x16>
    1ce2:	92 30       	cpi	r25, 0x02	; 2
    1ce4:	41 f4       	brne	.+16     	; 0x1cf6 <STEPPER_go+0x24>
    1ce6:	03 c0       	rjmp	.+6      	; 0x1cee <STEPPER_go+0x1c>
    1ce8:	10 92 73 02 	sts	0x0273, r1
    1cec:	04 c0       	rjmp	.+8      	; 0x1cf6 <STEPPER_go+0x24>
    1cee:	10 92 73 02 	sts	0x0273, r1
    1cf2:	10 92 74 02 	sts	0x0274, r1
    1cf6:	10 92 8b 02 	sts	0x028B, r1
    1cfa:	08 95       	ret

00001cfc <__STEPPER_init>:
    1cfc:	3a 9a       	sbi	0x07, 2	; 7
    1cfe:	3b 9a       	sbi	0x07, 3	; 7
    1d00:	3c 9a       	sbi	0x07, 4	; 7
    1d02:	3d 9a       	sbi	0x07, 5	; 7
    1d04:	3e 9a       	sbi	0x07, 6	; 7
    1d06:	3f 9a       	sbi	0x07, 7	; 7
    1d08:	88 b1       	in	r24, 0x08	; 8
    1d0a:	83 70       	andi	r24, 0x03	; 3
    1d0c:	88 b9       	out	0x08, r24	; 8
    1d0e:	08 95       	ret

00001d10 <STEPPER_set_steps>:
    1d10:	98 2f       	mov	r25, r24
    1d12:	81 e0       	ldi	r24, 0x01	; 1
    1d14:	80 93 8b 02 	sts	0x028B, r24
    1d18:	91 30       	cpi	r25, 0x01	; 1
    1d1a:	71 f0       	breq	.+28     	; 0x1d38 <STEPPER_set_steps+0x28>
    1d1c:	91 30       	cpi	r25, 0x01	; 1
    1d1e:	18 f0       	brcs	.+6      	; 0x1d26 <STEPPER_set_steps+0x16>
    1d20:	92 30       	cpi	r25, 0x02	; 2
    1d22:	71 f4       	brne	.+28     	; 0x1d40 <STEPPER_set_steps+0x30>
    1d24:	05 c0       	rjmp	.+10     	; 0x1d30 <STEPPER_set_steps+0x20>
    1d26:	70 93 68 02 	sts	0x0268, r23
    1d2a:	60 93 67 02 	sts	0x0267, r22
    1d2e:	08 c0       	rjmp	.+16     	; 0x1d40 <STEPPER_set_steps+0x30>
    1d30:	70 93 68 02 	sts	0x0268, r23
    1d34:	60 93 67 02 	sts	0x0267, r22
    1d38:	70 93 6a 02 	sts	0x026A, r23
    1d3c:	60 93 69 02 	sts	0x0269, r22
    1d40:	10 92 8b 02 	sts	0x028B, r1
    1d44:	08 95       	ret

00001d46 <STEPPER_set_stop_mode>:
    1d46:	98 2f       	mov	r25, r24
    1d48:	81 e0       	ldi	r24, 0x01	; 1
    1d4a:	80 93 8b 02 	sts	0x028B, r24
    1d4e:	91 30       	cpi	r25, 0x01	; 1
    1d50:	51 f0       	breq	.+20     	; 0x1d66 <STEPPER_set_stop_mode+0x20>
    1d52:	91 30       	cpi	r25, 0x01	; 1
    1d54:	18 f0       	brcs	.+6      	; 0x1d5c <STEPPER_set_stop_mode+0x16>
    1d56:	92 30       	cpi	r25, 0x02	; 2
    1d58:	41 f4       	brne	.+16     	; 0x1d6a <STEPPER_set_stop_mode+0x24>
    1d5a:	03 c0       	rjmp	.+6      	; 0x1d62 <STEPPER_set_stop_mode+0x1c>
    1d5c:	60 93 75 02 	sts	0x0275, r22
    1d60:	04 c0       	rjmp	.+8      	; 0x1d6a <STEPPER_set_stop_mode+0x24>
    1d62:	60 93 75 02 	sts	0x0275, r22
    1d66:	60 93 76 02 	sts	0x0276, r22
    1d6a:	10 92 8b 02 	sts	0x028B, r1
    1d6e:	08 95       	ret

00001d70 <STEPPER_setup_decels>:
    1d70:	0f 93       	push	r16
    1d72:	1f 93       	push	r17
    1d74:	cf 93       	push	r28
    1d76:	df 93       	push	r29
    1d78:	eb 01       	movw	r28, r22
    1d7a:	8a 01       	movw	r16, r20
    1d7c:	81 30       	cpi	r24, 0x01	; 1
    1d7e:	01 f1       	breq	.+64     	; 0x1dc0 <STEPPER_setup_decels+0x50>
    1d80:	81 30       	cpi	r24, 0x01	; 1
    1d82:	18 f0       	brcs	.+6      	; 0x1d8a <STEPPER_setup_decels+0x1a>
    1d84:	82 30       	cpi	r24, 0x02	; 2
    1d86:	61 f5       	brne	.+88     	; 0x1de0 <STEPPER_setup_decels+0x70>
    1d88:	0d c0       	rjmp	.+26     	; 0x1da4 <STEPPER_setup_decels+0x34>
    1d8a:	80 91 5f 02 	lds	r24, 0x025F
    1d8e:	90 91 60 02 	lds	r25, 0x0260
    1d92:	89 2b       	or	r24, r25
    1d94:	11 f0       	breq	.+4      	; 0x1d9a <STEPPER_setup_decels+0x2a>
    1d96:	80 e0       	ldi	r24, 0x00	; 0
    1d98:	1a c0       	rjmp	.+52     	; 0x1dce <STEPPER_setup_decels+0x5e>
    1d9a:	10 92 6c 02 	sts	0x026C, r1
    1d9e:	10 92 6b 02 	sts	0x026B, r1
    1da2:	1e c0       	rjmp	.+60     	; 0x1de0 <STEPPER_setup_decels+0x70>
    1da4:	80 91 5f 02 	lds	r24, 0x025F
    1da8:	90 91 60 02 	lds	r25, 0x0260
    1dac:	89 2b       	or	r24, r25
    1dae:	21 f0       	breq	.+8      	; 0x1db8 <STEPPER_setup_decels+0x48>
    1db0:	80 e0       	ldi	r24, 0x00	; 0
    1db2:	0e 94 e6 10 	call	0x21cc	; 0x21cc <STEPPER_set_decel_step_values>
    1db6:	04 c0       	rjmp	.+8      	; 0x1dc0 <STEPPER_setup_decels+0x50>
    1db8:	10 92 6c 02 	sts	0x026C, r1
    1dbc:	10 92 6b 02 	sts	0x026B, r1
    1dc0:	80 91 61 02 	lds	r24, 0x0261
    1dc4:	90 91 62 02 	lds	r25, 0x0262
    1dc8:	89 2b       	or	r24, r25
    1dca:	31 f0       	breq	.+12     	; 0x1dd8 <STEPPER_setup_decels+0x68>
    1dcc:	81 e0       	ldi	r24, 0x01	; 1
    1dce:	be 01       	movw	r22, r28
    1dd0:	a8 01       	movw	r20, r16
    1dd2:	0e 94 e6 10 	call	0x21cc	; 0x21cc <STEPPER_set_decel_step_values>
    1dd6:	04 c0       	rjmp	.+8      	; 0x1de0 <STEPPER_setup_decels+0x70>
    1dd8:	10 92 6e 02 	sts	0x026E, r1
    1ddc:	10 92 6d 02 	sts	0x026D, r1
    1de0:	df 91       	pop	r29
    1de2:	cf 91       	pop	r28
    1de4:	1f 91       	pop	r17
    1de6:	0f 91       	pop	r16
    1de8:	08 95       	ret

00001dea <SYS_init>:
    1dea:	10 92 8e 02 	sts	0x028E, r1
    1dee:	10 92 8f 02 	sts	0x028F, r1
    1df2:	10 92 93 02 	sts	0x0293, r1
    1df6:	10 92 90 02 	sts	0x0290, r1
    1dfa:	10 92 92 02 	sts	0x0292, r1
    1dfe:	10 92 94 02 	sts	0x0294, r1
    1e02:	10 92 95 02 	sts	0x0295, r1
    1e06:	10 92 96 02 	sts	0x0296, r1
    1e0a:	10 92 97 02 	sts	0x0297, r1
    1e0e:	10 92 98 02 	sts	0x0298, r1
    1e12:	10 92 99 02 	sts	0x0299, r1
    1e16:	10 92 9a 02 	sts	0x029A, r1
    1e1a:	10 92 9b 02 	sts	0x029B, r1
    1e1e:	10 92 9c 02 	sts	0x029C, r1
    1e22:	10 92 9d 02 	sts	0x029D, r1
    1e26:	10 92 9e 02 	sts	0x029E, r1
    1e2a:	10 92 9f 02 	sts	0x029F, r1
    1e2e:	08 95       	ret

00001e30 <ATTINY_get_sensors>:
    1e30:	0f 93       	push	r16
    1e32:	1f 93       	push	r17
    1e34:	81 e0       	ldi	r24, 0x01	; 1
    1e36:	0e 94 f2 07 	call	0xfe4	; 0xfe4 <SYS_get_state>
    1e3a:	81 30       	cpi	r24, 0x01	; 1
    1e3c:	11 f0       	breq	.+4      	; 0x1e42 <ATTINY_get_sensors+0x12>
    1e3e:	00 e0       	ldi	r16, 0x00	; 0
    1e40:	24 c0       	rjmp	.+72     	; 0x1e8a <ATTINY_get_sensors+0x5a>
    1e42:	87 e0       	ldi	r24, 0x07	; 7
    1e44:	0e 94 6a 04 	call	0x8d4	; 0x8d4 <SPI_set_slave_addr>
    1e48:	82 e0       	ldi	r24, 0x02	; 2
    1e4a:	6a e0       	ldi	r22, 0x0A	; 10
    1e4c:	0e 94 bb 04 	call	0x976	; 0x976 <SPI_transmit>
    1e50:	82 e0       	ldi	r24, 0x02	; 2
    1e52:	62 eb       	ldi	r22, 0xB2	; 178
    1e54:	0e 94 bb 04 	call	0x976	; 0x976 <SPI_transmit>
    1e58:	18 ec       	ldi	r17, 0xC8	; 200
    1e5a:	81 2f       	mov	r24, r17
    1e5c:	8a 95       	dec	r24
    1e5e:	f1 f7       	brne	.-4      	; 0x1e5c <ATTINY_get_sensors+0x2c>
    1e60:	82 e0       	ldi	r24, 0x02	; 2
    1e62:	60 e0       	ldi	r22, 0x00	; 0
    1e64:	0e 94 33 10 	call	0x2066	; 0x2066 <SPI_receive>
    1e68:	08 2f       	mov	r16, r24
    1e6a:	81 2f       	mov	r24, r17
    1e6c:	8a 95       	dec	r24
    1e6e:	f1 f7       	brne	.-4      	; 0x1e6c <ATTINY_get_sensors+0x3c>
    1e70:	82 e0       	ldi	r24, 0x02	; 2
    1e72:	60 e0       	ldi	r22, 0x00	; 0
    1e74:	0e 94 33 10 	call	0x2066	; 0x2066 <SPI_receive>
    1e78:	1a 95       	dec	r17
    1e7a:	f1 f7       	brne	.-4      	; 0x1e78 <ATTINY_get_sensors+0x48>
    1e7c:	87 e0       	ldi	r24, 0x07	; 7
    1e7e:	0e 94 6a 04 	call	0x8d4	; 0x8d4 <SPI_set_slave_addr>
    1e82:	88 e8       	ldi	r24, 0x88	; 136
    1e84:	93 e1       	ldi	r25, 0x13	; 19
    1e86:	01 97       	sbiw	r24, 0x01	; 1
    1e88:	f1 f7       	brne	.-4      	; 0x1e86 <ATTINY_get_sensors+0x56>
    1e8a:	80 2f       	mov	r24, r16
    1e8c:	1f 91       	pop	r17
    1e8e:	0f 91       	pop	r16
    1e90:	08 95       	ret

00001e92 <TMRSRVC_insert>:
    1e92:	cf 92       	push	r12
    1e94:	df 92       	push	r13
    1e96:	ef 92       	push	r14
    1e98:	ff 92       	push	r15
    1e9a:	0f 93       	push	r16
    1e9c:	1f 93       	push	r17
    1e9e:	cf 93       	push	r28
    1ea0:	df 93       	push	r29
    1ea2:	ec 01       	movw	r28, r24
    1ea4:	80 91 c5 02 	lds	r24, 0x02C5
    1ea8:	88 23       	and	r24, r24
    1eaa:	39 f4       	brne	.+14     	; 0x1eba <TMRSRVC_insert+0x28>
    1eac:	d0 93 c7 02 	sts	0x02C7, r29
    1eb0:	c0 93 c6 02 	sts	0x02C6, r28
    1eb4:	0e 94 d7 0f 	call	0x1fae	; 0x1fae <TMRSRVC_start>
    1eb8:	47 c0       	rjmp	.+142    	; 0x1f48 <TMRSRVC_insert+0xb6>
    1eba:	c0 90 c6 02 	lds	r12, 0x02C6
    1ebe:	d0 90 c7 02 	lds	r13, 0x02C7
    1ec2:	00 e0       	ldi	r16, 0x00	; 0
    1ec4:	10 e0       	ldi	r17, 0x00	; 0
    1ec6:	ee 24       	eor	r14, r14
    1ec8:	ff 24       	eor	r15, r15
    1eca:	37 c0       	rjmp	.+110    	; 0x1f3a <TMRSRVC_insert+0xa8>
    1ecc:	a8 81       	ld	r26, Y
    1ece:	b9 81       	ldd	r27, Y+1	; 0x01
    1ed0:	fd 01       	movw	r30, r26
    1ed2:	64 81       	ldd	r22, Z+4	; 0x04
    1ed4:	75 81       	ldd	r23, Z+5	; 0x05
    1ed6:	f6 01       	movw	r30, r12
    1ed8:	40 81       	ld	r20, Z
    1eda:	51 81       	ldd	r21, Z+1	; 0x01
    1edc:	fa 01       	movw	r30, r20
    1ede:	84 81       	ldd	r24, Z+4	; 0x04
    1ee0:	95 81       	ldd	r25, Z+5	; 0x05
    1ee2:	9b 01       	movw	r18, r22
    1ee4:	28 1b       	sub	r18, r24
    1ee6:	39 0b       	sbc	r19, r25
    1ee8:	37 ff       	sbrs	r19, 7
    1eea:	0f c0       	rjmp	.+30     	; 0x1f0a <TMRSRVC_insert+0x78>
    1eec:	86 1b       	sub	r24, r22
    1eee:	97 0b       	sbc	r25, r23
    1ef0:	95 83       	std	Z+5, r25	; 0x05
    1ef2:	84 83       	std	Z+4, r24	; 0x04
    1ef4:	db 82       	std	Y+3, r13	; 0x03
    1ef6:	ca 82       	std	Y+2, r12	; 0x02
    1ef8:	01 2b       	or	r16, r17
    1efa:	29 f4       	brne	.+10     	; 0x1f06 <TMRSRVC_insert+0x74>
    1efc:	d0 93 c7 02 	sts	0x02C7, r29
    1f00:	c0 93 c6 02 	sts	0x02C6, r28
    1f04:	21 c0       	rjmp	.+66     	; 0x1f48 <TMRSRVC_insert+0xb6>
    1f06:	f7 01       	movw	r30, r14
    1f08:	0c c0       	rjmp	.+24     	; 0x1f22 <TMRSRVC_insert+0x90>
    1f0a:	f6 01       	movw	r30, r12
    1f0c:	82 81       	ldd	r24, Z+2	; 0x02
    1f0e:	93 81       	ldd	r25, Z+3	; 0x03
    1f10:	21 15       	cp	r18, r1
    1f12:	31 05       	cpc	r19, r1
    1f14:	49 f4       	brne	.+18     	; 0x1f28 <TMRSRVC_insert+0x96>
    1f16:	fd 01       	movw	r30, r26
    1f18:	15 82       	std	Z+5, r1	; 0x05
    1f1a:	14 82       	std	Z+4, r1	; 0x04
    1f1c:	9b 83       	std	Y+3, r25	; 0x03
    1f1e:	8a 83       	std	Y+2, r24	; 0x02
    1f20:	f6 01       	movw	r30, r12
    1f22:	d3 83       	std	Z+3, r29	; 0x03
    1f24:	c2 83       	std	Z+2, r28	; 0x02
    1f26:	10 c0       	rjmp	.+32     	; 0x1f48 <TMRSRVC_insert+0xb6>
    1f28:	fd 01       	movw	r30, r26
    1f2a:	35 83       	std	Z+5, r19	; 0x05
    1f2c:	24 83       	std	Z+4, r18	; 0x04
    1f2e:	00 97       	sbiw	r24, 0x00	; 0
    1f30:	b9 f3       	breq	.-18     	; 0x1f20 <TMRSRVC_insert+0x8e>
    1f32:	0f 5f       	subi	r16, 0xFF	; 255
    1f34:	1f 4f       	sbci	r17, 0xFF	; 255
    1f36:	76 01       	movw	r14, r12
    1f38:	6c 01       	movw	r12, r24
    1f3a:	80 91 c5 02 	lds	r24, 0x02C5
    1f3e:	90 e0       	ldi	r25, 0x00	; 0
    1f40:	08 17       	cp	r16, r24
    1f42:	19 07       	cpc	r17, r25
    1f44:	18 f2       	brcs	.-122    	; 0x1ecc <TMRSRVC_insert+0x3a>
    1f46:	ec cf       	rjmp	.-40     	; 0x1f20 <TMRSRVC_insert+0x8e>
    1f48:	80 91 c5 02 	lds	r24, 0x02C5
    1f4c:	8f 5f       	subi	r24, 0xFF	; 255
    1f4e:	80 93 c5 02 	sts	0x02C5, r24
    1f52:	df 91       	pop	r29
    1f54:	cf 91       	pop	r28
    1f56:	1f 91       	pop	r17
    1f58:	0f 91       	pop	r16
    1f5a:	ff 90       	pop	r15
    1f5c:	ef 90       	pop	r14
    1f5e:	df 90       	pop	r13
    1f60:	cf 90       	pop	r12
    1f62:	08 95       	ret

00001f64 <TMRSRVC_open>:
    1f64:	88 e0       	ldi	r24, 0x08	; 8
    1f66:	0e 94 f2 07 	call	0xfe4	; 0xfe4 <SYS_get_state>
    1f6a:	88 23       	and	r24, r24
    1f6c:	b9 f4       	brne	.+46     	; 0x1f9c <TMRSRVC_open+0x38>
    1f6e:	10 92 c5 02 	sts	0x02C5, r1
    1f72:	10 92 c7 02 	sts	0x02C7, r1
    1f76:	10 92 c6 02 	sts	0x02C6, r1
    1f7a:	10 92 4a 02 	sts	0x024A, r1
    1f7e:	10 92 4b 02 	sts	0x024B, r1
    1f82:	80 e1       	ldi	r24, 0x10	; 16
    1f84:	63 e5       	ldi	r22, 0x53	; 83
    1f86:	71 e1       	ldi	r23, 0x11	; 17
    1f88:	0e 94 db 0f 	call	0x1fb6	; 0x1fb6 <__ISR_attach>
    1f8c:	0e 94 5a 11 	call	0x22b4	; 0x22b4 <__TMRSRVC_init>
    1f90:	0e 94 d1 0f 	call	0x1fa2	; 0x1fa2 <__TMRSRVC_start>
    1f94:	88 e0       	ldi	r24, 0x08	; 8
    1f96:	61 e0       	ldi	r22, 0x01	; 1
    1f98:	0e 94 3a 08 	call	0x1074	; 0x1074 <SYS_set_state>
    1f9c:	88 e0       	ldi	r24, 0x08	; 8
    1f9e:	91 e0       	ldi	r25, 0x01	; 1
    1fa0:	08 95       	ret

00001fa2 <__TMRSRVC_start>:
    1fa2:	ee e6       	ldi	r30, 0x6E	; 110
    1fa4:	f0 e0       	ldi	r31, 0x00	; 0
    1fa6:	80 81       	ld	r24, Z
    1fa8:	82 60       	ori	r24, 0x02	; 2
    1faa:	80 83       	st	Z, r24
    1fac:	08 95       	ret

00001fae <TMRSRVC_start>:
    1fae:	81 e0       	ldi	r24, 0x01	; 1
    1fb0:	80 93 4b 02 	sts	0x024B, r24
    1fb4:	08 95       	ret

00001fb6 <__ISR_attach>:
    1fb6:	80 32       	cpi	r24, 0x20	; 32
    1fb8:	18 f0       	brcs	.+6      	; 0x1fc0 <__ISR_attach+0xa>
    1fba:	20 e0       	ldi	r18, 0x00	; 0
    1fbc:	30 e0       	ldi	r19, 0x00	; 0
    1fbe:	0a c0       	rjmp	.+20     	; 0x1fd4 <__ISR_attach+0x1e>
    1fc0:	e8 2f       	mov	r30, r24
    1fc2:	f0 e0       	ldi	r31, 0x00	; 0
    1fc4:	ee 0f       	add	r30, r30
    1fc6:	ff 1f       	adc	r31, r31
    1fc8:	e6 51       	subi	r30, 0x16	; 22
    1fca:	fe 4f       	sbci	r31, 0xFE	; 254
    1fcc:	20 81       	ld	r18, Z
    1fce:	31 81       	ldd	r19, Z+1	; 0x01
    1fd0:	71 83       	std	Z+1, r23	; 0x01
    1fd2:	60 83       	st	Z, r22
    1fd4:	c9 01       	movw	r24, r18
    1fd6:	08 95       	ret

00001fd8 <ISR_attach>:
    1fd8:	e8 2f       	mov	r30, r24
    1fda:	80 32       	cpi	r24, 0x20	; 32
    1fdc:	68 f4       	brcc	.+26     	; 0x1ff8 <ISR_attach+0x20>
    1fde:	80 51       	subi	r24, 0x10	; 16
    1fe0:	83 30       	cpi	r24, 0x03	; 3
    1fe2:	50 f0       	brcs	.+20     	; 0x1ff8 <ISR_attach+0x20>
    1fe4:	f0 e0       	ldi	r31, 0x00	; 0
    1fe6:	ee 0f       	add	r30, r30
    1fe8:	ff 1f       	adc	r31, r31
    1fea:	e6 51       	subi	r30, 0x16	; 22
    1fec:	fe 4f       	sbci	r31, 0xFE	; 254
    1fee:	20 81       	ld	r18, Z
    1ff0:	31 81       	ldd	r19, Z+1	; 0x01
    1ff2:	71 83       	std	Z+1, r23	; 0x01
    1ff4:	60 83       	st	Z, r22
    1ff6:	02 c0       	rjmp	.+4      	; 0x1ffc <ISR_attach+0x24>
    1ff8:	20 e0       	ldi	r18, 0x00	; 0
    1ffa:	30 e0       	ldi	r19, 0x00	; 0
    1ffc:	c9 01       	movw	r24, r18
    1ffe:	08 95       	ret

00002000 <__ATMEGA_init>:
    2000:	24 9a       	sbi	0x04, 4	; 4
    2002:	2c 9a       	sbi	0x05, 4	; 5
    2004:	08 95       	ret

00002006 <SPI_default_config>:
    2006:	83 e5       	ldi	r24, 0x53	; 83
    2008:	8c bd       	out	0x2c, r24	; 44
    200a:	81 e0       	ldi	r24, 0x01	; 1
    200c:	8d bd       	out	0x2d, r24	; 45
    200e:	8d e0       	ldi	r24, 0x0D	; 13
    2010:	8a 95       	dec	r24
    2012:	f1 f7       	brne	.-4      	; 0x2010 <SPI_default_config+0xa>
    2014:	08 95       	ret

00002016 <SPI_ATtiny0_config>:
    2016:	83 e5       	ldi	r24, 0x53	; 83
    2018:	8c bd       	out	0x2c, r24	; 44
    201a:	1d bc       	out	0x2d, r1	; 45
    201c:	84 ef       	ldi	r24, 0xF4	; 244
    201e:	91 e0       	ldi	r25, 0x01	; 1
    2020:	01 97       	sbiw	r24, 0x01	; 1
    2022:	f1 f7       	brne	.-4      	; 0x2020 <SPI_ATtiny0_config+0xa>
    2024:	08 95       	ret

00002026 <SPI_PSXC_config>:
    2026:	8f e7       	ldi	r24, 0x7F	; 127
    2028:	8c bd       	out	0x2c, r24	; 44
    202a:	1d bc       	out	0x2d, r1	; 45
    202c:	84 ef       	ldi	r24, 0xF4	; 244
    202e:	91 e0       	ldi	r25, 0x01	; 1
    2030:	01 97       	sbiw	r24, 0x01	; 1
    2032:	f1 f7       	brne	.-4      	; 0x2030 <SPI_PSXC_config+0xa>
    2034:	08 95       	ret

00002036 <SPI_LCD_config>:
    2036:	83 e5       	ldi	r24, 0x53	; 83
    2038:	8c bd       	out	0x2c, r24	; 44
    203a:	81 e0       	ldi	r24, 0x01	; 1
    203c:	8d bd       	out	0x2d, r24	; 45
    203e:	8d e0       	ldi	r24, 0x0D	; 13
    2040:	8a 95       	dec	r24
    2042:	f1 f7       	brne	.-4      	; 0x2040 <SPI_LCD_config+0xa>
    2044:	08 95       	ret

00002046 <SPI_FLASH_config>:
    2046:	83 e5       	ldi	r24, 0x53	; 83
    2048:	8c bd       	out	0x2c, r24	; 44
    204a:	81 e0       	ldi	r24, 0x01	; 1
    204c:	8d bd       	out	0x2d, r24	; 45
    204e:	84 ef       	ldi	r24, 0xF4	; 244
    2050:	91 e0       	ldi	r25, 0x01	; 1
    2052:	01 97       	sbiw	r24, 0x01	; 1
    2054:	f1 f7       	brne	.-4      	; 0x2052 <SPI_FLASH_config+0xc>
    2056:	08 95       	ret

00002058 <__SPI_init>:
    2058:	25 9a       	sbi	0x04, 5	; 4
    205a:	26 98       	cbi	0x04, 6	; 4
    205c:	27 9a       	sbi	0x04, 7	; 4
    205e:	20 9a       	sbi	0x04, 0	; 4
    2060:	21 9a       	sbi	0x04, 1	; 4
    2062:	22 9a       	sbi	0x04, 2	; 4
    2064:	08 95       	ret

00002066 <SPI_receive>:
    2066:	1f 93       	push	r17
    2068:	16 2f       	mov	r17, r22
    206a:	0e 94 6a 04 	call	0x8d4	; 0x8d4 <SPI_set_slave_addr>
    206e:	82 e0       	ldi	r24, 0x02	; 2
    2070:	0e 94 f2 07 	call	0xfe4	; 0xfe4 <SYS_get_state>
    2074:	81 30       	cpi	r24, 0x01	; 1
    2076:	11 f0       	breq	.+4      	; 0x207c <SPI_receive+0x16>
    2078:	80 e0       	ldi	r24, 0x00	; 0
    207a:	05 c0       	rjmp	.+10     	; 0x2086 <SPI_receive+0x20>
    207c:	1e bd       	out	0x2e, r17	; 46
    207e:	0d b4       	in	r0, 0x2d	; 45
    2080:	07 fe       	sbrs	r0, 7
    2082:	fd cf       	rjmp	.-6      	; 0x207e <SPI_receive+0x18>
    2084:	8e b5       	in	r24, 0x2e	; 46
    2086:	1f 91       	pop	r17
    2088:	08 95       	ret

0000208a <__SPKR_TIMER1_COMPA_vect>:
    208a:	0e 94 5f 10 	call	0x20be	; 0x20be <SPKR_clk>
    208e:	08 95       	ret

00002090 <SPKR_beep>:
    2090:	9b 01       	movw	r18, r22
    2092:	ac 01       	movw	r20, r24
    2094:	80 91 3b 02 	lds	r24, 0x023B
    2098:	88 23       	and	r24, r24
    209a:	81 f0       	breq	.+32     	; 0x20bc <SPKR_beep+0x2c>
    209c:	da 01       	movw	r26, r20
    209e:	c9 01       	movw	r24, r18
    20a0:	88 0f       	add	r24, r24
    20a2:	99 1f       	adc	r25, r25
    20a4:	aa 1f       	adc	r26, r26
    20a6:	bb 1f       	adc	r27, r27
    20a8:	90 93 47 02 	sts	0x0247, r25
    20ac:	80 93 46 02 	sts	0x0246, r24
    20b0:	21 15       	cp	r18, r1
    20b2:	31 05       	cpc	r19, r1
    20b4:	41 05       	cpc	r20, r1
    20b6:	51 05       	cpc	r21, r1
    20b8:	09 f4       	brne	.+2      	; 0x20bc <SPKR_beep+0x2c>
    20ba:	5f 98       	cbi	0x0b, 7	; 11
    20bc:	08 95       	ret

000020be <SPKR_clk>:
    20be:	80 91 3c 02 	lds	r24, 0x023C
    20c2:	90 91 3d 02 	lds	r25, 0x023D
    20c6:	a0 91 3e 02 	lds	r26, 0x023E
    20ca:	b0 91 3f 02 	lds	r27, 0x023F
    20ce:	20 91 40 02 	lds	r18, 0x0240
    20d2:	30 91 41 02 	lds	r19, 0x0241
    20d6:	40 91 42 02 	lds	r20, 0x0242
    20da:	50 91 43 02 	lds	r21, 0x0243
    20de:	28 0f       	add	r18, r24
    20e0:	39 1f       	adc	r19, r25
    20e2:	4a 1f       	adc	r20, r26
    20e4:	5b 1f       	adc	r21, r27
    20e6:	20 93 3c 02 	sts	0x023C, r18
    20ea:	30 93 3d 02 	sts	0x023D, r19
    20ee:	40 93 3e 02 	sts	0x023E, r20
    20f2:	50 93 3f 02 	sts	0x023F, r21
    20f6:	80 91 3c 02 	lds	r24, 0x023C
    20fa:	90 91 3d 02 	lds	r25, 0x023D
    20fe:	a0 91 3e 02 	lds	r26, 0x023E
    2102:	b0 91 3f 02 	lds	r27, 0x023F
    2106:	88 51       	subi	r24, 0x18	; 24
    2108:	96 4f       	sbci	r25, 0xF6	; 246
    210a:	a0 40       	sbci	r26, 0x00	; 0
    210c:	b0 40       	sbci	r27, 0x00	; 0
    210e:	bc f0       	brlt	.+46     	; 0x213e <SPKR_clk+0x80>
    2110:	8b b1       	in	r24, 0x0b	; 11
    2112:	80 58       	subi	r24, 0x80	; 128
    2114:	8b b9       	out	0x0b, r24	; 11
    2116:	80 91 3c 02 	lds	r24, 0x023C
    211a:	90 91 3d 02 	lds	r25, 0x023D
    211e:	a0 91 3e 02 	lds	r26, 0x023E
    2122:	b0 91 3f 02 	lds	r27, 0x023F
    2126:	88 51       	subi	r24, 0x18	; 24
    2128:	96 4f       	sbci	r25, 0xF6	; 246
    212a:	a0 40       	sbci	r26, 0x00	; 0
    212c:	b0 40       	sbci	r27, 0x00	; 0
    212e:	80 93 3c 02 	sts	0x023C, r24
    2132:	90 93 3d 02 	sts	0x023D, r25
    2136:	a0 93 3e 02 	sts	0x023E, r26
    213a:	b0 93 3f 02 	sts	0x023F, r27
    213e:	08 95       	ret

00002140 <__SPKR_close>:
    2140:	82 30       	cpi	r24, 0x02	; 2
    2142:	29 f4       	brne	.+10     	; 0x214e <__SPKR_close+0xe>
    2144:	80 91 81 00 	lds	r24, 0x0081
    2148:	8e 7f       	andi	r24, 0xFE	; 254
    214a:	80 93 81 00 	sts	0x0081, r24
    214e:	80 91 3a 02 	lds	r24, 0x023A
    2152:	81 30       	cpi	r24, 0x01	; 1
    2154:	31 f4       	brne	.+12     	; 0x2162 <__SPKR_close+0x22>
    2156:	80 91 3b 02 	lds	r24, 0x023B
    215a:	81 30       	cpi	r24, 0x01	; 1
    215c:	11 f4       	brne	.+4      	; 0x2162 <__SPKR_close+0x22>
    215e:	00 00       	nop
    2160:	08 95       	ret
    2162:	80 91 3a 02 	lds	r24, 0x023A
    2166:	81 30       	cpi	r24, 0x01	; 1
    2168:	21 f0       	breq	.+8      	; 0x2172 <__SPKR_close+0x32>
    216a:	80 91 3b 02 	lds	r24, 0x023B
    216e:	81 30       	cpi	r24, 0x01	; 1
    2170:	11 f4       	brne	.+4      	; 0x2176 <__SPKR_close+0x36>
    2172:	5f 98       	cbi	0x0b, 7	; 11
    2174:	57 98       	cbi	0x0a, 7	; 10
    2176:	08 95       	ret

00002178 <__SPKR_init>:
    2178:	98 2f       	mov	r25, r24
    217a:	80 91 3a 02 	lds	r24, 0x023A
    217e:	88 23       	and	r24, r24
    2180:	31 f4       	brne	.+12     	; 0x218e <__SPKR_init+0x16>
    2182:	80 91 3b 02 	lds	r24, 0x023B
    2186:	88 23       	and	r24, r24
    2188:	11 f4       	brne	.+4      	; 0x218e <__SPKR_init+0x16>
    218a:	57 9a       	sbi	0x0a, 7	; 10
    218c:	5f 98       	cbi	0x0b, 7	; 11
    218e:	80 91 3a 02 	lds	r24, 0x023A
    2192:	88 23       	and	r24, r24
    2194:	d1 f4       	brne	.+52     	; 0x21ca <__SPKR_init+0x52>
    2196:	92 30       	cpi	r25, 0x02	; 2
    2198:	c1 f4       	brne	.+48     	; 0x21ca <__SPKR_init+0x52>
    219a:	10 92 80 00 	sts	0x0080, r1
    219e:	10 92 81 00 	sts	0x0081, r1
    21a2:	80 91 81 00 	lds	r24, 0x0081
    21a6:	88 60       	ori	r24, 0x08	; 8
    21a8:	80 93 81 00 	sts	0x0081, r24
    21ac:	80 91 81 00 	lds	r24, 0x0081
    21b0:	81 60       	ori	r24, 0x01	; 1
    21b2:	80 93 81 00 	sts	0x0081, r24
    21b6:	10 92 85 00 	sts	0x0085, r1
    21ba:	10 92 84 00 	sts	0x0084, r1
    21be:	81 e0       	ldi	r24, 0x01	; 1
    21c0:	80 93 89 00 	sts	0x0089, r24
    21c4:	80 e9       	ldi	r24, 0x90	; 144
    21c6:	80 93 88 00 	sts	0x0088, r24
    21ca:	08 95       	ret

000021cc <STEPPER_set_decel_step_values>:
    21cc:	ef 92       	push	r14
    21ce:	ff 92       	push	r15
    21d0:	0f 93       	push	r16
    21d2:	1f 93       	push	r17
    21d4:	cf 93       	push	r28
    21d6:	df 93       	push	r29
    21d8:	eb 01       	movw	r28, r22
    21da:	88 23       	and	r24, r24
    21dc:	21 f0       	breq	.+8      	; 0x21e6 <STEPPER_set_decel_step_values+0x1a>
    21de:	81 30       	cpi	r24, 0x01	; 1
    21e0:	09 f0       	breq	.+2      	; 0x21e4 <STEPPER_set_decel_step_values+0x18>
    21e2:	5a c0       	rjmp	.+180    	; 0x2298 <STEPPER_set_decel_step_values+0xcc>
    21e4:	2d c0       	rjmp	.+90     	; 0x2240 <STEPPER_set_decel_step_values+0x74>
    21e6:	9a 01       	movw	r18, r20
    21e8:	40 e0       	ldi	r20, 0x00	; 0
    21ea:	50 e0       	ldi	r21, 0x00	; 0
    21ec:	ca 01       	movw	r24, r20
    21ee:	b9 01       	movw	r22, r18
    21f0:	0e 94 16 20 	call	0x402c	; 0x402c <__mulsi3>
    21f4:	20 91 5f 02 	lds	r18, 0x025F
    21f8:	30 91 60 02 	lds	r19, 0x0260
    21fc:	22 0f       	add	r18, r18
    21fe:	33 1f       	adc	r19, r19
    2200:	40 e0       	ldi	r20, 0x00	; 0
    2202:	50 e0       	ldi	r21, 0x00	; 0
    2204:	0e 94 3a 20 	call	0x4074	; 0x4074 <__udivmodsi4>
    2208:	79 01       	movw	r14, r18
    220a:	8a 01       	movw	r16, r20
    220c:	a8 01       	movw	r20, r16
    220e:	97 01       	movw	r18, r14
    2210:	22 0f       	add	r18, r18
    2212:	33 1f       	adc	r19, r19
    2214:	44 1f       	adc	r20, r20
    2216:	55 1f       	adc	r21, r21
    2218:	ce 01       	movw	r24, r28
    221a:	a0 e0       	ldi	r26, 0x00	; 0
    221c:	b0 e0       	ldi	r27, 0x00	; 0
    221e:	82 17       	cp	r24, r18
    2220:	93 07       	cpc	r25, r19
    2222:	a4 07       	cpc	r26, r20
    2224:	b5 07       	cpc	r27, r21
    2226:	28 f0       	brcs	.+10     	; 0x2232 <STEPPER_set_decel_step_values+0x66>
    2228:	f0 92 6c 02 	sts	0x026C, r15
    222c:	e0 92 6b 02 	sts	0x026B, r14
    2230:	33 c0       	rjmp	.+102    	; 0x2298 <STEPPER_set_decel_step_values+0xcc>
    2232:	d6 95       	lsr	r29
    2234:	c7 95       	ror	r28
    2236:	d0 93 6c 02 	sts	0x026C, r29
    223a:	c0 93 6b 02 	sts	0x026B, r28
    223e:	2c c0       	rjmp	.+88     	; 0x2298 <STEPPER_set_decel_step_values+0xcc>
    2240:	9a 01       	movw	r18, r20
    2242:	40 e0       	ldi	r20, 0x00	; 0
    2244:	50 e0       	ldi	r21, 0x00	; 0
    2246:	ca 01       	movw	r24, r20
    2248:	b9 01       	movw	r22, r18
    224a:	0e 94 16 20 	call	0x402c	; 0x402c <__mulsi3>
    224e:	20 91 61 02 	lds	r18, 0x0261
    2252:	30 91 62 02 	lds	r19, 0x0262
    2256:	22 0f       	add	r18, r18
    2258:	33 1f       	adc	r19, r19
    225a:	40 e0       	ldi	r20, 0x00	; 0
    225c:	50 e0       	ldi	r21, 0x00	; 0
    225e:	0e 94 3a 20 	call	0x4074	; 0x4074 <__udivmodsi4>
    2262:	79 01       	movw	r14, r18
    2264:	8a 01       	movw	r16, r20
    2266:	a8 01       	movw	r20, r16
    2268:	97 01       	movw	r18, r14
    226a:	22 0f       	add	r18, r18
    226c:	33 1f       	adc	r19, r19
    226e:	44 1f       	adc	r20, r20
    2270:	55 1f       	adc	r21, r21
    2272:	ce 01       	movw	r24, r28
    2274:	a0 e0       	ldi	r26, 0x00	; 0
    2276:	b0 e0       	ldi	r27, 0x00	; 0
    2278:	82 17       	cp	r24, r18
    227a:	93 07       	cpc	r25, r19
    227c:	a4 07       	cpc	r26, r20
    227e:	b5 07       	cpc	r27, r21
    2280:	28 f0       	brcs	.+10     	; 0x228c <STEPPER_set_decel_step_values+0xc0>
    2282:	f0 92 6e 02 	sts	0x026E, r15
    2286:	e0 92 6d 02 	sts	0x026D, r14
    228a:	06 c0       	rjmp	.+12     	; 0x2298 <STEPPER_set_decel_step_values+0xcc>
    228c:	d6 95       	lsr	r29
    228e:	c7 95       	ror	r28
    2290:	d0 93 6e 02 	sts	0x026E, r29
    2294:	c0 93 6d 02 	sts	0x026D, r28
    2298:	df 91       	pop	r29
    229a:	cf 91       	pop	r28
    229c:	1f 91       	pop	r17
    229e:	0f 91       	pop	r16
    22a0:	ff 90       	pop	r15
    22a2:	ef 90       	pop	r14
    22a4:	08 95       	ret

000022a6 <__TIMER0_COMPA_vect>:
    22a6:	0e 94 63 11 	call	0x22c6	; 0x22c6 <TMRSRVC_tick>
    22aa:	0e 94 a3 11 	call	0x2346	; 0x2346 <STEPPER_clk>
    22ae:	0e 94 7c 11 	call	0x22f8	; 0x22f8 <SPKR_beep_clk>
    22b2:	08 95       	ret

000022b4 <__TMRSRVC_init>:
    22b4:	84 b5       	in	r24, 0x24	; 36
    22b6:	82 60       	ori	r24, 0x02	; 2
    22b8:	84 bd       	out	0x24, r24	; 36
    22ba:	85 b5       	in	r24, 0x25	; 37
    22bc:	84 60       	ori	r24, 0x04	; 4
    22be:	85 bd       	out	0x25, r24	; 37
    22c0:	8e e4       	ldi	r24, 0x4E	; 78
    22c2:	87 bd       	out	0x27, r24	; 39
    22c4:	08 95       	ret

000022c6 <TMRSRVC_tick>:
    22c6:	88 e0       	ldi	r24, 0x08	; 8
    22c8:	0e 94 f2 07 	call	0xfe4	; 0xfe4 <SYS_get_state>
    22cc:	88 23       	and	r24, r24
    22ce:	11 f4       	brne	.+4      	; 0x22d4 <TMRSRVC_tick+0xe>
    22d0:	84 e0       	ldi	r24, 0x04	; 4
    22d2:	08 95       	ret
    22d4:	80 91 4b 02 	lds	r24, 0x024B
    22d8:	88 23       	and	r24, r24
    22da:	11 f4       	brne	.+4      	; 0x22e0 <TMRSRVC_tick+0x1a>
    22dc:	83 e0       	ldi	r24, 0x03	; 3
    22de:	08 95       	ret
    22e0:	80 91 4a 02 	lds	r24, 0x024A
    22e4:	88 23       	and	r24, r24
    22e6:	11 f0       	breq	.+4      	; 0x22ec <TMRSRVC_tick+0x26>
    22e8:	82 e0       	ldi	r24, 0x02	; 2
    22ea:	08 95       	ret
    22ec:	0e 94 15 14 	call	0x282a	; 0x282a <TMRSRVC_process>
    22f0:	81 30       	cpi	r24, 0x01	; 1
    22f2:	e1 f3       	breq	.-8      	; 0x22ec <TMRSRVC_tick+0x26>
    22f4:	80 e0       	ldi	r24, 0x00	; 0
    22f6:	08 95       	ret

000022f8 <SPKR_beep_clk>:
    22f8:	80 91 3b 02 	lds	r24, 0x023B
    22fc:	81 30       	cpi	r24, 0x01	; 1
    22fe:	11 f5       	brne	.+68     	; 0x2344 <SPKR_beep_clk+0x4c>
    2300:	80 91 44 02 	lds	r24, 0x0244
    2304:	90 91 45 02 	lds	r25, 0x0245
    2308:	20 91 46 02 	lds	r18, 0x0246
    230c:	30 91 47 02 	lds	r19, 0x0247
    2310:	28 0f       	add	r18, r24
    2312:	39 1f       	adc	r19, r25
    2314:	30 93 45 02 	sts	0x0245, r19
    2318:	20 93 44 02 	sts	0x0244, r18
    231c:	80 91 44 02 	lds	r24, 0x0244
    2320:	90 91 45 02 	lds	r25, 0x0245
    2324:	88 5e       	subi	r24, 0xE8	; 232
    2326:	93 40       	sbci	r25, 0x03	; 3
    2328:	6c f0       	brlt	.+26     	; 0x2344 <SPKR_beep_clk+0x4c>
    232a:	8b b1       	in	r24, 0x0b	; 11
    232c:	80 58       	subi	r24, 0x80	; 128
    232e:	8b b9       	out	0x0b, r24	; 11
    2330:	80 91 44 02 	lds	r24, 0x0244
    2334:	90 91 45 02 	lds	r25, 0x0245
    2338:	88 5e       	subi	r24, 0xE8	; 232
    233a:	93 40       	sbci	r25, 0x03	; 3
    233c:	90 93 45 02 	sts	0x0245, r25
    2340:	80 93 44 02 	sts	0x0244, r24
    2344:	08 95       	ret

00002346 <STEPPER_clk>:
    2346:	87 e0       	ldi	r24, 0x07	; 7
    2348:	0e 94 f2 07 	call	0xfe4	; 0xfe4 <SYS_get_state>
    234c:	81 30       	cpi	r24, 0x01	; 1
    234e:	09 f0       	breq	.+2      	; 0x2352 <STEPPER_clk+0xc>
    2350:	aa c0       	rjmp	.+340    	; 0x24a6 <STEPPER_clk+0x160>
    2352:	80 91 5f 02 	lds	r24, 0x025F
    2356:	90 91 60 02 	lds	r25, 0x0260
    235a:	89 2b       	or	r24, r25
    235c:	09 f1       	breq	.+66     	; 0x23a0 <STEPPER_clk+0x5a>
    235e:	80 91 83 02 	lds	r24, 0x0283
    2362:	90 91 84 02 	lds	r25, 0x0284
    2366:	20 91 5f 02 	lds	r18, 0x025F
    236a:	30 91 60 02 	lds	r19, 0x0260
    236e:	82 0f       	add	r24, r18
    2370:	93 1f       	adc	r25, r19
    2372:	90 93 84 02 	sts	0x0284, r25
    2376:	80 93 83 02 	sts	0x0283, r24
    237a:	80 91 83 02 	lds	r24, 0x0283
    237e:	90 91 84 02 	lds	r25, 0x0284
    2382:	88 5e       	subi	r24, 0xE8	; 232
    2384:	93 40       	sbci	r25, 0x03	; 3
    2386:	a4 f0       	brlt	.+40     	; 0x23b0 <STEPPER_clk+0x6a>
    2388:	80 91 83 02 	lds	r24, 0x0283
    238c:	90 91 84 02 	lds	r25, 0x0284
    2390:	88 5e       	subi	r24, 0xE8	; 232
    2392:	93 40       	sbci	r25, 0x03	; 3
    2394:	90 93 84 02 	sts	0x0284, r25
    2398:	80 93 83 02 	sts	0x0283, r24
    239c:	41 e0       	ldi	r20, 0x01	; 1
    239e:	09 c0       	rjmp	.+18     	; 0x23b2 <STEPPER_clk+0x6c>
    23a0:	80 91 57 02 	lds	r24, 0x0257
    23a4:	90 91 58 02 	lds	r25, 0x0258
    23a8:	90 93 5c 02 	sts	0x025C, r25
    23ac:	80 93 5b 02 	sts	0x025B, r24
    23b0:	40 e0       	ldi	r20, 0x00	; 0
    23b2:	80 91 61 02 	lds	r24, 0x0261
    23b6:	90 91 62 02 	lds	r25, 0x0262
    23ba:	89 2b       	or	r24, r25
    23bc:	09 f1       	breq	.+66     	; 0x2400 <STEPPER_clk+0xba>
    23be:	80 91 85 02 	lds	r24, 0x0285
    23c2:	90 91 86 02 	lds	r25, 0x0286
    23c6:	20 91 61 02 	lds	r18, 0x0261
    23ca:	30 91 62 02 	lds	r19, 0x0262
    23ce:	82 0f       	add	r24, r18
    23d0:	93 1f       	adc	r25, r19
    23d2:	90 93 86 02 	sts	0x0286, r25
    23d6:	80 93 85 02 	sts	0x0285, r24
    23da:	80 91 85 02 	lds	r24, 0x0285
    23de:	90 91 86 02 	lds	r25, 0x0286
    23e2:	88 5e       	subi	r24, 0xE8	; 232
    23e4:	93 40       	sbci	r25, 0x03	; 3
    23e6:	a4 f0       	brlt	.+40     	; 0x2410 <STEPPER_clk+0xca>
    23e8:	80 91 85 02 	lds	r24, 0x0285
    23ec:	90 91 86 02 	lds	r25, 0x0286
    23f0:	88 5e       	subi	r24, 0xE8	; 232
    23f2:	93 40       	sbci	r25, 0x03	; 3
    23f4:	90 93 86 02 	sts	0x0286, r25
    23f8:	80 93 85 02 	sts	0x0285, r24
    23fc:	61 e0       	ldi	r22, 0x01	; 1
    23fe:	09 c0       	rjmp	.+18     	; 0x2412 <STEPPER_clk+0xcc>
    2400:	80 91 59 02 	lds	r24, 0x0259
    2404:	90 91 5a 02 	lds	r25, 0x025A
    2408:	90 93 5e 02 	sts	0x025E, r25
    240c:	80 93 5d 02 	sts	0x025D, r24
    2410:	60 e0       	ldi	r22, 0x00	; 0
    2412:	84 2f       	mov	r24, r20
    2414:	0e 94 54 12 	call	0x24a8	; 0x24a8 <STEPPER_process_accel>
    2418:	80 91 7f 02 	lds	r24, 0x027F
    241c:	90 91 80 02 	lds	r25, 0x0280
    2420:	20 91 5b 02 	lds	r18, 0x025B
    2424:	30 91 5c 02 	lds	r19, 0x025C
    2428:	28 0f       	add	r18, r24
    242a:	39 1f       	adc	r19, r25
    242c:	30 93 80 02 	sts	0x0280, r19
    2430:	20 93 7f 02 	sts	0x027F, r18
    2434:	80 91 7f 02 	lds	r24, 0x027F
    2438:	90 91 80 02 	lds	r25, 0x0280
    243c:	88 5e       	subi	r24, 0xE8	; 232
    243e:	93 40       	sbci	r25, 0x03	; 3
    2440:	14 f4       	brge	.+4      	; 0x2446 <STEPPER_clk+0x100>
    2442:	40 e0       	ldi	r20, 0x00	; 0
    2444:	0b c0       	rjmp	.+22     	; 0x245c <STEPPER_clk+0x116>
    2446:	80 91 7f 02 	lds	r24, 0x027F
    244a:	90 91 80 02 	lds	r25, 0x0280
    244e:	88 5e       	subi	r24, 0xE8	; 232
    2450:	93 40       	sbci	r25, 0x03	; 3
    2452:	90 93 80 02 	sts	0x0280, r25
    2456:	80 93 7f 02 	sts	0x027F, r24
    245a:	41 e0       	ldi	r20, 0x01	; 1
    245c:	80 91 81 02 	lds	r24, 0x0281
    2460:	90 91 82 02 	lds	r25, 0x0282
    2464:	20 91 5d 02 	lds	r18, 0x025D
    2468:	30 91 5e 02 	lds	r19, 0x025E
    246c:	28 0f       	add	r18, r24
    246e:	39 1f       	adc	r19, r25
    2470:	30 93 82 02 	sts	0x0282, r19
    2474:	20 93 81 02 	sts	0x0281, r18
    2478:	80 91 81 02 	lds	r24, 0x0281
    247c:	90 91 82 02 	lds	r25, 0x0282
    2480:	88 5e       	subi	r24, 0xE8	; 232
    2482:	93 40       	sbci	r25, 0x03	; 3
    2484:	14 f4       	brge	.+4      	; 0x248a <STEPPER_clk+0x144>
    2486:	60 e0       	ldi	r22, 0x00	; 0
    2488:	0b c0       	rjmp	.+22     	; 0x24a0 <STEPPER_clk+0x15a>
    248a:	80 91 81 02 	lds	r24, 0x0281
    248e:	90 91 82 02 	lds	r25, 0x0282
    2492:	88 5e       	subi	r24, 0xE8	; 232
    2494:	93 40       	sbci	r25, 0x03	; 3
    2496:	90 93 82 02 	sts	0x0282, r25
    249a:	80 93 81 02 	sts	0x0281, r24
    249e:	61 e0       	ldi	r22, 0x01	; 1
    24a0:	84 2f       	mov	r24, r20
    24a2:	0e 94 99 12 	call	0x2532	; 0x2532 <STEPPER_process_run_mode>
    24a6:	08 95       	ret

000024a8 <STEPPER_process_accel>:
    24a8:	88 23       	and	r24, r24
    24aa:	f1 f0       	breq	.+60     	; 0x24e8 <STEPPER_process_accel+0x40>
    24ac:	20 91 57 02 	lds	r18, 0x0257
    24b0:	30 91 58 02 	lds	r19, 0x0258
    24b4:	80 91 5b 02 	lds	r24, 0x025B
    24b8:	90 91 5c 02 	lds	r25, 0x025C
    24bc:	28 1b       	sub	r18, r24
    24be:	39 0b       	sbc	r19, r25
    24c0:	12 16       	cp	r1, r18
    24c2:	13 06       	cpc	r1, r19
    24c4:	34 f4       	brge	.+12     	; 0x24d2 <STEPPER_process_accel+0x2a>
    24c6:	80 91 5b 02 	lds	r24, 0x025B
    24ca:	90 91 5c 02 	lds	r25, 0x025C
    24ce:	01 96       	adiw	r24, 0x01	; 1
    24d0:	07 c0       	rjmp	.+14     	; 0x24e0 <STEPPER_process_accel+0x38>
    24d2:	23 2b       	or	r18, r19
    24d4:	49 f0       	breq	.+18     	; 0x24e8 <STEPPER_process_accel+0x40>
    24d6:	80 91 5b 02 	lds	r24, 0x025B
    24da:	90 91 5c 02 	lds	r25, 0x025C
    24de:	01 97       	sbiw	r24, 0x01	; 1
    24e0:	90 93 5c 02 	sts	0x025C, r25
    24e4:	80 93 5b 02 	sts	0x025B, r24
    24e8:	66 23       	and	r22, r22
    24ea:	11 f1       	breq	.+68     	; 0x2530 <STEPPER_process_accel+0x88>
    24ec:	20 91 59 02 	lds	r18, 0x0259
    24f0:	30 91 5a 02 	lds	r19, 0x025A
    24f4:	80 91 5d 02 	lds	r24, 0x025D
    24f8:	90 91 5e 02 	lds	r25, 0x025E
    24fc:	28 1b       	sub	r18, r24
    24fe:	39 0b       	sbc	r19, r25
    2500:	12 16       	cp	r1, r18
    2502:	13 06       	cpc	r1, r19
    2504:	54 f4       	brge	.+20     	; 0x251a <STEPPER_process_accel+0x72>
    2506:	80 91 5d 02 	lds	r24, 0x025D
    250a:	90 91 5e 02 	lds	r25, 0x025E
    250e:	01 96       	adiw	r24, 0x01	; 1
    2510:	90 93 5e 02 	sts	0x025E, r25
    2514:	80 93 5d 02 	sts	0x025D, r24
    2518:	08 95       	ret
    251a:	23 2b       	or	r18, r19
    251c:	49 f0       	breq	.+18     	; 0x2530 <STEPPER_process_accel+0x88>
    251e:	80 91 5d 02 	lds	r24, 0x025D
    2522:	90 91 5e 02 	lds	r25, 0x025E
    2526:	01 97       	sbiw	r24, 0x01	; 1
    2528:	90 93 5e 02 	sts	0x025E, r25
    252c:	80 93 5d 02 	sts	0x025D, r24
    2530:	08 95       	ret

00002532 <STEPPER_process_run_mode>:
    2532:	0f 93       	push	r16
    2534:	1f 93       	push	r17
    2536:	18 2f       	mov	r17, r24
    2538:	06 2f       	mov	r16, r22
    253a:	80 91 8b 02 	lds	r24, 0x028B
    253e:	88 23       	and	r24, r24
    2540:	09 f0       	breq	.+2      	; 0x2544 <STEPPER_process_run_mode+0x12>
    2542:	e7 c0       	rjmp	.+462    	; 0x2712 <STEPPER_process_run_mode+0x1e0>
    2544:	80 91 73 02 	lds	r24, 0x0273
    2548:	88 23       	and	r24, r24
    254a:	09 f0       	breq	.+2      	; 0x254e <STEPPER_process_run_mode+0x1c>
    254c:	5a c0       	rjmp	.+180    	; 0x2602 <STEPPER_process_run_mode+0xd0>
    254e:	80 91 5b 02 	lds	r24, 0x025B
    2552:	90 91 5c 02 	lds	r25, 0x025C
    2556:	89 2b       	or	r24, r25
    2558:	e9 f4       	brne	.+58     	; 0x2594 <STEPPER_process_run_mode+0x62>
    255a:	80 91 4c 02 	lds	r24, 0x024C
    255e:	83 7e       	andi	r24, 0xE3	; 227
    2560:	80 93 4c 02 	sts	0x024C, r24
    2564:	10 92 7c 02 	sts	0x027C, r1
    2568:	80 91 87 02 	lds	r24, 0x0287
    256c:	88 23       	and	r24, r24
    256e:	09 f4       	brne	.+2      	; 0x2572 <STEPPER_process_run_mode+0x40>
    2570:	5d c0       	rjmp	.+186    	; 0x262c <STEPPER_process_run_mode+0xfa>
    2572:	60 91 75 02 	lds	r22, 0x0275
    2576:	80 e0       	ldi	r24, 0x00	; 0
    2578:	0e 94 f0 13 	call	0x27e0	; 0x27e0 <STEPPER_stop>
    257c:	e0 91 89 02 	lds	r30, 0x0289
    2580:	f0 91 8a 02 	lds	r31, 0x028A
    2584:	30 97       	sbiw	r30, 0x00	; 0
    2586:	09 f4       	brne	.+2      	; 0x258a <STEPPER_process_run_mode+0x58>
    2588:	51 c0       	rjmp	.+162    	; 0x262c <STEPPER_process_run_mode+0xfa>
    258a:	81 e0       	ldi	r24, 0x01	; 1
    258c:	80 83       	st	Z, r24
    258e:	10 92 87 02 	sts	0x0287, r1
    2592:	4c c0       	rjmp	.+152    	; 0x262c <STEPPER_process_run_mode+0xfa>
    2594:	80 91 55 02 	lds	r24, 0x0255
    2598:	81 30       	cpi	r24, 0x01	; 1
    259a:	41 f4       	brne	.+16     	; 0x25ac <STEPPER_process_run_mode+0x7a>
    259c:	80 91 67 02 	lds	r24, 0x0267
    25a0:	90 91 68 02 	lds	r25, 0x0268
    25a4:	01 97       	sbiw	r24, 0x01	; 1
    25a6:	11 f4       	brne	.+4      	; 0x25ac <STEPPER_process_run_mode+0x7a>
    25a8:	11 e0       	ldi	r17, 0x01	; 1
    25aa:	02 c0       	rjmp	.+4      	; 0x25b0 <STEPPER_process_run_mode+0x7e>
    25ac:	11 23       	and	r17, r17
    25ae:	f1 f1       	breq	.+124    	; 0x262c <STEPPER_process_run_mode+0xfa>
    25b0:	e0 91 7a 02 	lds	r30, 0x027A
    25b4:	f0 e0       	ldi	r31, 0x00	; 0
    25b6:	e0 50       	subi	r30, 0x00	; 0
    25b8:	ff 4f       	sbci	r31, 0xFF	; 255
    25ba:	90 91 4c 02 	lds	r25, 0x024C
    25be:	93 7e       	andi	r25, 0xE3	; 227
    25c0:	80 81       	ld	r24, Z
    25c2:	89 2b       	or	r24, r25
    25c4:	80 93 4c 02 	sts	0x024C, r24
    25c8:	80 91 78 02 	lds	r24, 0x0278
    25cc:	88 23       	and	r24, r24
    25ce:	21 f4       	brne	.+8      	; 0x25d8 <STEPPER_process_run_mode+0xa6>
    25d0:	80 91 7a 02 	lds	r24, 0x027A
    25d4:	8f 5f       	subi	r24, 0xFF	; 255
    25d6:	03 c0       	rjmp	.+6      	; 0x25de <STEPPER_process_run_mode+0xac>
    25d8:	80 91 7a 02 	lds	r24, 0x027A
    25dc:	81 50       	subi	r24, 0x01	; 1
    25de:	80 93 7a 02 	sts	0x027A, r24
    25e2:	80 91 7a 02 	lds	r24, 0x027A
    25e6:	83 70       	andi	r24, 0x03	; 3
    25e8:	80 93 7a 02 	sts	0x027A, r24
    25ec:	81 e0       	ldi	r24, 0x01	; 1
    25ee:	80 93 7c 02 	sts	0x027C, r24
    25f2:	80 91 55 02 	lds	r24, 0x0255
    25f6:	81 30       	cpi	r24, 0x01	; 1
    25f8:	c9 f4       	brne	.+50     	; 0x262c <STEPPER_process_run_mode+0xfa>
    25fa:	80 e0       	ldi	r24, 0x00	; 0
    25fc:	0e 94 9c 13 	call	0x2738	; 0x2738 <STEPPER_process_step_mode>
    2600:	15 c0       	rjmp	.+42     	; 0x262c <STEPPER_process_run_mode+0xfa>
    2602:	90 91 4c 02 	lds	r25, 0x024C
    2606:	93 7e       	andi	r25, 0xE3	; 227
    2608:	90 93 4c 02 	sts	0x024C, r25
    260c:	e0 91 7a 02 	lds	r30, 0x027A
    2610:	f0 e0       	ldi	r31, 0x00	; 0
    2612:	e0 50       	subi	r30, 0x00	; 0
    2614:	ff 4f       	sbci	r31, 0xFF	; 255
    2616:	80 81       	ld	r24, Z
    2618:	89 2b       	or	r24, r25
    261a:	80 93 4c 02 	sts	0x024C, r24
    261e:	82 e0       	ldi	r24, 0x02	; 2
    2620:	80 93 7c 02 	sts	0x027C, r24
    2624:	10 92 5c 02 	sts	0x025C, r1
    2628:	10 92 5b 02 	sts	0x025B, r1
    262c:	80 91 74 02 	lds	r24, 0x0274
    2630:	88 23       	and	r24, r24
    2632:	09 f0       	breq	.+2      	; 0x2636 <STEPPER_process_run_mode+0x104>
    2634:	59 c0       	rjmp	.+178    	; 0x26e8 <STEPPER_process_run_mode+0x1b6>
    2636:	80 91 5d 02 	lds	r24, 0x025D
    263a:	90 91 5e 02 	lds	r25, 0x025E
    263e:	89 2b       	or	r24, r25
    2640:	e9 f4       	brne	.+58     	; 0x267c <STEPPER_process_run_mode+0x14a>
    2642:	80 91 4c 02 	lds	r24, 0x024C
    2646:	8f 71       	andi	r24, 0x1F	; 31
    2648:	80 93 4c 02 	sts	0x024C, r24
    264c:	10 92 7d 02 	sts	0x027D, r1
    2650:	80 91 88 02 	lds	r24, 0x0288
    2654:	88 23       	and	r24, r24
    2656:	09 f4       	brne	.+2      	; 0x265a <STEPPER_process_run_mode+0x128>
    2658:	5c c0       	rjmp	.+184    	; 0x2712 <STEPPER_process_run_mode+0x1e0>
    265a:	60 91 76 02 	lds	r22, 0x0276
    265e:	81 e0       	ldi	r24, 0x01	; 1
    2660:	0e 94 f0 13 	call	0x27e0	; 0x27e0 <STEPPER_stop>
    2664:	e0 91 89 02 	lds	r30, 0x0289
    2668:	f0 91 8a 02 	lds	r31, 0x028A
    266c:	30 97       	sbiw	r30, 0x00	; 0
    266e:	09 f4       	brne	.+2      	; 0x2672 <STEPPER_process_run_mode+0x140>
    2670:	50 c0       	rjmp	.+160    	; 0x2712 <STEPPER_process_run_mode+0x1e0>
    2672:	81 e0       	ldi	r24, 0x01	; 1
    2674:	81 83       	std	Z+1, r24	; 0x01
    2676:	10 92 88 02 	sts	0x0288, r1
    267a:	4b c0       	rjmp	.+150    	; 0x2712 <STEPPER_process_run_mode+0x1e0>
    267c:	80 91 56 02 	lds	r24, 0x0256
    2680:	81 30       	cpi	r24, 0x01	; 1
    2682:	41 f4       	brne	.+16     	; 0x2694 <STEPPER_process_run_mode+0x162>
    2684:	80 91 69 02 	lds	r24, 0x0269
    2688:	90 91 6a 02 	lds	r25, 0x026A
    268c:	01 97       	sbiw	r24, 0x01	; 1
    268e:	11 f4       	brne	.+4      	; 0x2694 <STEPPER_process_run_mode+0x162>
    2690:	01 e0       	ldi	r16, 0x01	; 1
    2692:	02 c0       	rjmp	.+4      	; 0x2698 <STEPPER_process_run_mode+0x166>
    2694:	00 23       	and	r16, r16
    2696:	e9 f1       	breq	.+122    	; 0x2712 <STEPPER_process_run_mode+0x1e0>
    2698:	e0 91 7b 02 	lds	r30, 0x027B
    269c:	f0 e0       	ldi	r31, 0x00	; 0
    269e:	ec 5f       	subi	r30, 0xFC	; 252
    26a0:	fe 4f       	sbci	r31, 0xFE	; 254
    26a2:	90 91 4c 02 	lds	r25, 0x024C
    26a6:	9f 71       	andi	r25, 0x1F	; 31
    26a8:	80 81       	ld	r24, Z
    26aa:	89 2b       	or	r24, r25
    26ac:	80 93 4c 02 	sts	0x024C, r24
    26b0:	80 91 79 02 	lds	r24, 0x0279
    26b4:	88 23       	and	r24, r24
    26b6:	21 f4       	brne	.+8      	; 0x26c0 <STEPPER_process_run_mode+0x18e>
    26b8:	80 91 7b 02 	lds	r24, 0x027B
    26bc:	8f 5f       	subi	r24, 0xFF	; 255
    26be:	03 c0       	rjmp	.+6      	; 0x26c6 <STEPPER_process_run_mode+0x194>
    26c0:	80 91 7b 02 	lds	r24, 0x027B
    26c4:	81 50       	subi	r24, 0x01	; 1
    26c6:	80 93 7b 02 	sts	0x027B, r24
    26ca:	80 91 7b 02 	lds	r24, 0x027B
    26ce:	83 70       	andi	r24, 0x03	; 3
    26d0:	80 93 7b 02 	sts	0x027B, r24
    26d4:	81 e0       	ldi	r24, 0x01	; 1
    26d6:	80 93 7d 02 	sts	0x027D, r24
    26da:	80 91 56 02 	lds	r24, 0x0256
    26de:	81 30       	cpi	r24, 0x01	; 1
    26e0:	c1 f4       	brne	.+48     	; 0x2712 <STEPPER_process_run_mode+0x1e0>
    26e2:	0e 94 9c 13 	call	0x2738	; 0x2738 <STEPPER_process_step_mode>
    26e6:	15 c0       	rjmp	.+42     	; 0x2712 <STEPPER_process_run_mode+0x1e0>
    26e8:	90 91 4c 02 	lds	r25, 0x024C
    26ec:	9f 71       	andi	r25, 0x1F	; 31
    26ee:	90 93 4c 02 	sts	0x024C, r25
    26f2:	e0 91 7b 02 	lds	r30, 0x027B
    26f6:	f0 e0       	ldi	r31, 0x00	; 0
    26f8:	ec 5f       	subi	r30, 0xFC	; 252
    26fa:	fe 4f       	sbci	r31, 0xFE	; 254
    26fc:	80 81       	ld	r24, Z
    26fe:	89 2b       	or	r24, r25
    2700:	80 93 4c 02 	sts	0x024C, r24
    2704:	82 e0       	ldi	r24, 0x02	; 2
    2706:	80 93 7d 02 	sts	0x027D, r24
    270a:	10 92 5e 02 	sts	0x025E, r1
    270e:	10 92 5d 02 	sts	0x025D, r1
    2712:	80 91 7e 02 	lds	r24, 0x027E
    2716:	88 23       	and	r24, r24
    2718:	31 f4       	brne	.+12     	; 0x2726 <STEPPER_process_run_mode+0x1f4>
    271a:	8c e4       	ldi	r24, 0x4C	; 76
    271c:	92 e0       	ldi	r25, 0x02	; 2
    271e:	61 2f       	mov	r22, r17
    2720:	40 2f       	mov	r20, r16
    2722:	0e 94 83 14 	call	0x2906	; 0x2906 <STEPPER_process_pwm>
    2726:	88 b1       	in	r24, 0x08	; 8
    2728:	83 70       	andi	r24, 0x03	; 3
    272a:	90 91 4c 02 	lds	r25, 0x024C
    272e:	89 2b       	or	r24, r25
    2730:	88 b9       	out	0x08, r24	; 8
    2732:	1f 91       	pop	r17
    2734:	0f 91       	pop	r16
    2736:	08 95       	ret

00002738 <STEPPER_process_step_mode>:
    2738:	88 23       	and	r24, r24
    273a:	21 f0       	breq	.+8      	; 0x2744 <STEPPER_process_step_mode+0xc>
    273c:	81 30       	cpi	r24, 0x01	; 1
    273e:	09 f0       	breq	.+2      	; 0x2742 <STEPPER_process_step_mode+0xa>
    2740:	4e c0       	rjmp	.+156    	; 0x27de <STEPPER_process_step_mode+0xa6>
    2742:	27 c0       	rjmp	.+78     	; 0x2792 <STEPPER_process_step_mode+0x5a>
    2744:	80 91 67 02 	lds	r24, 0x0267
    2748:	90 91 68 02 	lds	r25, 0x0268
    274c:	89 2b       	or	r24, r25
    274e:	49 f0       	breq	.+18     	; 0x2762 <STEPPER_process_step_mode+0x2a>
    2750:	80 91 67 02 	lds	r24, 0x0267
    2754:	90 91 68 02 	lds	r25, 0x0268
    2758:	01 97       	sbiw	r24, 0x01	; 1
    275a:	90 93 68 02 	sts	0x0268, r25
    275e:	80 93 67 02 	sts	0x0267, r24
    2762:	80 91 87 02 	lds	r24, 0x0287
    2766:	88 23       	and	r24, r24
    2768:	d1 f5       	brne	.+116    	; 0x27de <STEPPER_process_step_mode+0xa6>
    276a:	20 91 67 02 	lds	r18, 0x0267
    276e:	30 91 68 02 	lds	r19, 0x0268
    2772:	80 91 6b 02 	lds	r24, 0x026B
    2776:	90 91 6c 02 	lds	r25, 0x026C
    277a:	28 17       	cp	r18, r24
    277c:	39 07       	cpc	r19, r25
    277e:	79 f5       	brne	.+94     	; 0x27de <STEPPER_process_step_mode+0xa6>
    2780:	80 e0       	ldi	r24, 0x00	; 0
    2782:	60 e0       	ldi	r22, 0x00	; 0
    2784:	70 e0       	ldi	r23, 0x00	; 0
    2786:	0e 94 f6 06 	call	0xdec	; 0xdec <STEPPER_set_speed>
    278a:	81 e0       	ldi	r24, 0x01	; 1
    278c:	80 93 87 02 	sts	0x0287, r24
    2790:	08 95       	ret
    2792:	80 91 69 02 	lds	r24, 0x0269
    2796:	90 91 6a 02 	lds	r25, 0x026A
    279a:	89 2b       	or	r24, r25
    279c:	49 f0       	breq	.+18     	; 0x27b0 <STEPPER_process_step_mode+0x78>
    279e:	80 91 69 02 	lds	r24, 0x0269
    27a2:	90 91 6a 02 	lds	r25, 0x026A
    27a6:	01 97       	sbiw	r24, 0x01	; 1
    27a8:	90 93 6a 02 	sts	0x026A, r25
    27ac:	80 93 69 02 	sts	0x0269, r24
    27b0:	80 91 88 02 	lds	r24, 0x0288
    27b4:	88 23       	and	r24, r24
    27b6:	99 f4       	brne	.+38     	; 0x27de <STEPPER_process_step_mode+0xa6>
    27b8:	20 91 69 02 	lds	r18, 0x0269
    27bc:	30 91 6a 02 	lds	r19, 0x026A
    27c0:	80 91 6d 02 	lds	r24, 0x026D
    27c4:	90 91 6e 02 	lds	r25, 0x026E
    27c8:	28 17       	cp	r18, r24
    27ca:	39 07       	cpc	r19, r25
    27cc:	41 f4       	brne	.+16     	; 0x27de <STEPPER_process_step_mode+0xa6>
    27ce:	81 e0       	ldi	r24, 0x01	; 1
    27d0:	60 e0       	ldi	r22, 0x00	; 0
    27d2:	70 e0       	ldi	r23, 0x00	; 0
    27d4:	0e 94 f6 06 	call	0xdec	; 0xdec <STEPPER_set_speed>
    27d8:	81 e0       	ldi	r24, 0x01	; 1
    27da:	80 93 88 02 	sts	0x0288, r24
    27de:	08 95       	ret

000027e0 <STEPPER_stop>:
    27e0:	0f 93       	push	r16
    27e2:	1f 93       	push	r17
    27e4:	18 2f       	mov	r17, r24
    27e6:	06 2f       	mov	r16, r22
    27e8:	66 23       	and	r22, r22
    27ea:	49 f4       	brne	.+18     	; 0x27fe <STEPPER_stop+0x1e>
    27ec:	60 e0       	ldi	r22, 0x00	; 0
    27ee:	70 e0       	ldi	r23, 0x00	; 0
    27f0:	0e 94 f6 06 	call	0xdec	; 0xdec <STEPPER_set_speed>
    27f4:	81 2f       	mov	r24, r17
    27f6:	60 e0       	ldi	r22, 0x00	; 0
    27f8:	70 e0       	ldi	r23, 0x00	; 0
    27fa:	0e 94 88 0e 	call	0x1d10	; 0x1d10 <STEPPER_set_steps>
    27fe:	81 e0       	ldi	r24, 0x01	; 1
    2800:	80 93 8b 02 	sts	0x028B, r24
    2804:	11 30       	cpi	r17, 0x01	; 1
    2806:	51 f0       	breq	.+20     	; 0x281c <STEPPER_stop+0x3c>
    2808:	11 30       	cpi	r17, 0x01	; 1
    280a:	18 f0       	brcs	.+6      	; 0x2812 <STEPPER_stop+0x32>
    280c:	12 30       	cpi	r17, 0x02	; 2
    280e:	41 f4       	brne	.+16     	; 0x2820 <STEPPER_stop+0x40>
    2810:	03 c0       	rjmp	.+6      	; 0x2818 <STEPPER_stop+0x38>
    2812:	00 93 73 02 	sts	0x0273, r16
    2816:	04 c0       	rjmp	.+8      	; 0x2820 <STEPPER_stop+0x40>
    2818:	00 93 73 02 	sts	0x0273, r16
    281c:	00 93 74 02 	sts	0x0274, r16
    2820:	10 92 8b 02 	sts	0x028B, r1
    2824:	1f 91       	pop	r17
    2826:	0f 91       	pop	r16
    2828:	08 95       	ret

0000282a <TMRSRVC_process>:
    282a:	ff 92       	push	r15
    282c:	0f 93       	push	r16
    282e:	1f 93       	push	r17
    2830:	cf 93       	push	r28
    2832:	df 93       	push	r29
    2834:	80 91 c5 02 	lds	r24, 0x02C5
    2838:	88 23       	and	r24, r24
    283a:	09 f4       	brne	.+2      	; 0x283e <TMRSRVC_process+0x14>
    283c:	59 c0       	rjmp	.+178    	; 0x28f0 <TMRSRVC_process+0xc6>
    283e:	00 91 c6 02 	lds	r16, 0x02C6
    2842:	10 91 c7 02 	lds	r17, 0x02C7
    2846:	f8 01       	movw	r30, r16
    2848:	c0 81       	ld	r28, Z
    284a:	d1 81       	ldd	r29, Z+1	; 0x01
    284c:	8c 81       	ldd	r24, Y+4	; 0x04
    284e:	9d 81       	ldd	r25, Y+5	; 0x05
    2850:	01 97       	sbiw	r24, 0x01	; 1
    2852:	9d 83       	std	Y+5, r25	; 0x05
    2854:	8c 83       	std	Y+4, r24	; 0x04
    2856:	18 16       	cp	r1, r24
    2858:	19 06       	cpc	r1, r25
    285a:	0c f4       	brge	.+2      	; 0x285e <TMRSRVC_process+0x34>
    285c:	49 c0       	rjmp	.+146    	; 0x28f0 <TMRSRVC_process+0xc6>
    285e:	89 81       	ldd	r24, Y+1	; 0x01
    2860:	80 ff       	sbrs	r24, 0
    2862:	05 c0       	rjmp	.+10     	; 0x286e <TMRSRVC_process+0x44>
    2864:	8e 81       	ldd	r24, Y+6	; 0x06
    2866:	88 23       	and	r24, r24
    2868:	11 f4       	brne	.+4      	; 0x286e <TMRSRVC_process+0x44>
    286a:	81 e0       	ldi	r24, 0x01	; 1
    286c:	8e 83       	std	Y+6, r24	; 0x06
    286e:	89 81       	ldd	r24, Y+1	; 0x01
    2870:	81 ff       	sbrs	r24, 1
    2872:	03 c0       	rjmp	.+6      	; 0x287a <TMRSRVC_process+0x50>
    2874:	ef 81       	ldd	r30, Y+7	; 0x07
    2876:	f8 85       	ldd	r31, Y+8	; 0x08
    2878:	09 95       	icall
    287a:	80 91 c5 02 	lds	r24, 0x02C5
    287e:	82 30       	cpi	r24, 0x02	; 2
    2880:	a8 f0       	brcs	.+42     	; 0x28ac <TMRSRVC_process+0x82>
    2882:	f8 01       	movw	r30, r16
    2884:	82 81       	ldd	r24, Z+2	; 0x02
    2886:	93 81       	ldd	r25, Z+3	; 0x03
    2888:	90 93 c7 02 	sts	0x02C7, r25
    288c:	80 93 c6 02 	sts	0x02C6, r24
    2890:	13 82       	std	Z+3, r1	; 0x03
    2892:	12 82       	std	Z+2, r1	; 0x02
    2894:	e0 91 00 00 	lds	r30, 0x0000
    2898:	f0 91 01 00 	lds	r31, 0x0001
    289c:	84 81       	ldd	r24, Z+4	; 0x04
    289e:	95 81       	ldd	r25, Z+5	; 0x05
    28a0:	18 16       	cp	r1, r24
    28a2:	19 06       	cpc	r1, r25
    28a4:	3c f0       	brlt	.+14     	; 0x28b4 <TMRSRVC_process+0x8a>
    28a6:	ff 24       	eor	r15, r15
    28a8:	f3 94       	inc	r15
    28aa:	05 c0       	rjmp	.+10     	; 0x28b6 <TMRSRVC_process+0x8c>
    28ac:	10 92 c7 02 	sts	0x02C7, r1
    28b0:	10 92 c6 02 	sts	0x02C6, r1
    28b4:	ff 24       	eor	r15, r15
    28b6:	80 91 c5 02 	lds	r24, 0x02C5
    28ba:	81 50       	subi	r24, 0x01	; 1
    28bc:	80 93 c5 02 	sts	0x02C5, r24
    28c0:	80 91 c5 02 	lds	r24, 0x02C5
    28c4:	88 23       	and	r24, r24
    28c6:	11 f4       	brne	.+4      	; 0x28cc <TMRSRVC_process+0xa2>
    28c8:	0e 94 80 14 	call	0x2900	; 0x2900 <TMRSRVC_stop>
    28cc:	89 81       	ldd	r24, Y+1	; 0x01
    28ce:	82 ff       	sbrs	r24, 2
    28d0:	08 c0       	rjmp	.+16     	; 0x28e2 <TMRSRVC_process+0xb8>
    28d2:	8a 81       	ldd	r24, Y+2	; 0x02
    28d4:	9b 81       	ldd	r25, Y+3	; 0x03
    28d6:	9d 83       	std	Y+5, r25	; 0x05
    28d8:	8c 83       	std	Y+4, r24	; 0x04
    28da:	c8 01       	movw	r24, r16
    28dc:	0e 94 49 0f 	call	0x1e92	; 0x1e92 <TMRSRVC_insert>
    28e0:	08 c0       	rjmp	.+16     	; 0x28f2 <TMRSRVC_process+0xc8>
    28e2:	c8 01       	movw	r24, r16
    28e4:	0e 94 59 21 	call	0x42b2	; 0x42b2 <free>
    28e8:	89 81       	ldd	r24, Y+1	; 0x01
    28ea:	8f 7e       	andi	r24, 0xEF	; 239
    28ec:	89 83       	std	Y+1, r24	; 0x01
    28ee:	01 c0       	rjmp	.+2      	; 0x28f2 <TMRSRVC_process+0xc8>
    28f0:	ff 24       	eor	r15, r15
    28f2:	8f 2d       	mov	r24, r15
    28f4:	df 91       	pop	r29
    28f6:	cf 91       	pop	r28
    28f8:	1f 91       	pop	r17
    28fa:	0f 91       	pop	r16
    28fc:	ff 90       	pop	r15
    28fe:	08 95       	ret

00002900 <TMRSRVC_stop>:
    2900:	10 92 4b 02 	sts	0x024B, r1
    2904:	08 95       	ret

00002906 <STEPPER_process_pwm>:
    2906:	fc 01       	movw	r30, r24
    2908:	80 91 7c 02 	lds	r24, 0x027C
    290c:	82 30       	cpi	r24, 0x02	; 2
    290e:	69 f4       	brne	.+26     	; 0x292a <STEPPER_process_pwm+0x24>
    2910:	80 91 50 02 	lds	r24, 0x0250
    2914:	91 e0       	ldi	r25, 0x01	; 1
    2916:	89 27       	eor	r24, r25
    2918:	80 93 50 02 	sts	0x0250, r24
    291c:	88 23       	and	r24, r24
    291e:	09 f0       	breq	.+2      	; 0x2922 <STEPPER_process_pwm+0x1c>
    2920:	3e c0       	rjmp	.+124    	; 0x299e <STEPPER_process_pwm+0x98>
    2922:	80 81       	ld	r24, Z
    2924:	83 7e       	andi	r24, 0xE3	; 227
    2926:	80 83       	st	Z, r24
    2928:	3a c0       	rjmp	.+116    	; 0x299e <STEPPER_process_pwm+0x98>
    292a:	80 91 5b 02 	lds	r24, 0x025B
    292e:	90 91 5c 02 	lds	r25, 0x025C
    2932:	c3 97       	sbiw	r24, 0x33	; 51
    2934:	a4 f5       	brge	.+104    	; 0x299e <STEPPER_process_pwm+0x98>
    2936:	66 23       	and	r22, r22
    2938:	d1 f0       	breq	.+52     	; 0x296e <STEPPER_process_pwm+0x68>
    293a:	20 91 5b 02 	lds	r18, 0x025B
    293e:	30 91 5c 02 	lds	r19, 0x025C
    2942:	80 e6       	ldi	r24, 0x60	; 96
    2944:	90 e0       	ldi	r25, 0x00	; 0
    2946:	bc 01       	movw	r22, r24
    2948:	26 9f       	mul	r18, r22
    294a:	c0 01       	movw	r24, r0
    294c:	27 9f       	mul	r18, r23
    294e:	90 0d       	add	r25, r0
    2950:	36 9f       	mul	r19, r22
    2952:	90 0d       	add	r25, r0
    2954:	11 24       	eor	r1, r1
    2956:	88 0f       	add	r24, r24
    2958:	89 2f       	mov	r24, r25
    295a:	88 1f       	adc	r24, r24
    295c:	99 0b       	sbc	r25, r25
    295e:	90 93 70 02 	sts	0x0270, r25
    2962:	80 93 6f 02 	sts	0x026F, r24
    2966:	81 e0       	ldi	r24, 0x01	; 1
    2968:	80 93 4e 02 	sts	0x024E, r24
    296c:	18 c0       	rjmp	.+48     	; 0x299e <STEPPER_process_pwm+0x98>
    296e:	80 91 4e 02 	lds	r24, 0x024E
    2972:	88 23       	and	r24, r24
    2974:	a1 f0       	breq	.+40     	; 0x299e <STEPPER_process_pwm+0x98>
    2976:	80 91 6f 02 	lds	r24, 0x026F
    297a:	90 91 70 02 	lds	r25, 0x0270
    297e:	01 97       	sbiw	r24, 0x01	; 1
    2980:	90 93 70 02 	sts	0x0270, r25
    2984:	80 93 6f 02 	sts	0x026F, r24
    2988:	80 91 6f 02 	lds	r24, 0x026F
    298c:	90 91 70 02 	lds	r25, 0x0270
    2990:	89 2b       	or	r24, r25
    2992:	29 f4       	brne	.+10     	; 0x299e <STEPPER_process_pwm+0x98>
    2994:	80 81       	ld	r24, Z
    2996:	83 7e       	andi	r24, 0xE3	; 227
    2998:	80 83       	st	Z, r24
    299a:	10 92 4e 02 	sts	0x024E, r1
    299e:	80 91 7d 02 	lds	r24, 0x027D
    29a2:	82 30       	cpi	r24, 0x02	; 2
    29a4:	69 f4       	brne	.+26     	; 0x29c0 <STEPPER_process_pwm+0xba>
    29a6:	80 91 4f 02 	lds	r24, 0x024F
    29aa:	91 e0       	ldi	r25, 0x01	; 1
    29ac:	89 27       	eor	r24, r25
    29ae:	80 93 4f 02 	sts	0x024F, r24
    29b2:	88 23       	and	r24, r24
    29b4:	09 f0       	breq	.+2      	; 0x29b8 <STEPPER_process_pwm+0xb2>
    29b6:	3e c0       	rjmp	.+124    	; 0x2a34 <STEPPER_process_pwm+0x12e>
    29b8:	80 81       	ld	r24, Z
    29ba:	8f 71       	andi	r24, 0x1F	; 31
    29bc:	80 83       	st	Z, r24
    29be:	08 95       	ret
    29c0:	80 91 5d 02 	lds	r24, 0x025D
    29c4:	90 91 5e 02 	lds	r25, 0x025E
    29c8:	c3 97       	sbiw	r24, 0x33	; 51
    29ca:	a4 f5       	brge	.+104    	; 0x2a34 <STEPPER_process_pwm+0x12e>
    29cc:	44 23       	and	r20, r20
    29ce:	d1 f0       	breq	.+52     	; 0x2a04 <STEPPER_process_pwm+0xfe>
    29d0:	20 91 5d 02 	lds	r18, 0x025D
    29d4:	30 91 5e 02 	lds	r19, 0x025E
    29d8:	80 e6       	ldi	r24, 0x60	; 96
    29da:	90 e0       	ldi	r25, 0x00	; 0
    29dc:	ac 01       	movw	r20, r24
    29de:	24 9f       	mul	r18, r20
    29e0:	c0 01       	movw	r24, r0
    29e2:	25 9f       	mul	r18, r21
    29e4:	90 0d       	add	r25, r0
    29e6:	34 9f       	mul	r19, r20
    29e8:	90 0d       	add	r25, r0
    29ea:	11 24       	eor	r1, r1
    29ec:	88 0f       	add	r24, r24
    29ee:	89 2f       	mov	r24, r25
    29f0:	88 1f       	adc	r24, r24
    29f2:	99 0b       	sbc	r25, r25
    29f4:	90 93 72 02 	sts	0x0272, r25
    29f8:	80 93 71 02 	sts	0x0271, r24
    29fc:	81 e0       	ldi	r24, 0x01	; 1
    29fe:	80 93 4d 02 	sts	0x024D, r24
    2a02:	08 95       	ret
    2a04:	80 91 4d 02 	lds	r24, 0x024D
    2a08:	88 23       	and	r24, r24
    2a0a:	a1 f0       	breq	.+40     	; 0x2a34 <STEPPER_process_pwm+0x12e>
    2a0c:	80 91 71 02 	lds	r24, 0x0271
    2a10:	90 91 72 02 	lds	r25, 0x0272
    2a14:	01 97       	sbiw	r24, 0x01	; 1
    2a16:	90 93 72 02 	sts	0x0272, r25
    2a1a:	80 93 71 02 	sts	0x0271, r24
    2a1e:	80 91 71 02 	lds	r24, 0x0271
    2a22:	90 91 72 02 	lds	r25, 0x0272
    2a26:	89 2b       	or	r24, r25
    2a28:	29 f4       	brne	.+10     	; 0x2a34 <STEPPER_process_pwm+0x12e>
    2a2a:	80 81       	ld	r24, Z
    2a2c:	8f 71       	andi	r24, 0x1F	; 31
    2a2e:	80 83       	st	Z, r24
    2a30:	10 92 4d 02 	sts	0x024D, r1
    2a34:	08 95       	ret

00002a36 <moveForward>:
		// Keeps running.
    }
}

// Moves the robot forward for a given number of steps.
void moveForward(int steps, int speed){
    2a36:	8f 92       	push	r8
    2a38:	af 92       	push	r10
    2a3a:	bf 92       	push	r11
    2a3c:	cf 92       	push	r12
    2a3e:	ef 92       	push	r14
    2a40:	ff 92       	push	r15
    2a42:	0f 93       	push	r16
    2a44:	1f 93       	push	r17
    2a46:	cf 93       	push	r28
    2a48:	df 93       	push	r29
    2a4a:	d8 2f       	mov	r29, r24
    2a4c:	c9 2f       	mov	r28, r25
    2a4e:	06 2f       	mov	r16, r22
    2a50:	17 2f       	mov	r17, r23
	// Performs the same error detection procedure for the Stepper subsystem as it was performed with ATTINY.
	SUBSYS_OPENSTAT openStepper;
	
	// Stepper subsystem is opened.
	openStepper = STEPPER_open();
    2a52:	0e 94 3c 06 	call	0xc78	; 0xc78 <STEPPER_open>
	
	// Displays an error message if the returned value for the opened stepper subsystem is unexpected.
	if (openStepper.state != SUBSYS_OPEN){
    2a56:	91 30       	cpi	r25, 0x01	; 1
    2a58:	41 f0       	breq	.+16     	; 0x2a6a <moveForward+0x34>
		LCD_printf("\nError when opening STEPPER subsystem!");
    2a5a:	42 e2       	ldi	r20, 0x22	; 34
    2a5c:	51 e0       	ldi	r21, 0x01	; 1
    2a5e:	5f 93       	push	r21
    2a60:	4f 93       	push	r20
    2a62:	0e 94 08 23 	call	0x4610	; 0x4610 <printf>
    2a66:	0f 90       	pop	r0
    2a68:	0f 90       	pop	r0
	}
	
	// Moving both wheels forward.
	STEPPER_move_stwt(STEPPER_BOTH,
    2a6a:	1f 92       	push	r1
    2a6c:	1f 92       	push	r1
    2a6e:	1f 92       	push	r1
    2a70:	81 e0       	ldi	r24, 0x01	; 1
    2a72:	8f 93       	push	r24
    2a74:	80 e9       	ldi	r24, 0x90	; 144
    2a76:	8f 93       	push	r24
    2a78:	1f 93       	push	r17
    2a7a:	0f 93       	push	r16
    2a7c:	cf 93       	push	r28
    2a7e:	df 93       	push	r29
    2a80:	81 2c       	mov	r8, r1
    2a82:	a1 2c       	mov	r10, r1
    2a84:	b1 2c       	mov	r11, r1
    2a86:	c1 2c       	mov	r12, r1
    2a88:	0f 2e       	mov	r0, r31
    2a8a:	f0 e9       	ldi	r31, 0x90	; 144
    2a8c:	ef 2e       	mov	r14, r31
    2a8e:	ff 24       	eor	r15, r15
    2a90:	f3 94       	inc	r15
    2a92:	f0 2d       	mov	r31, r0
    2a94:	2d 2f       	mov	r18, r29
    2a96:	3c 2f       	mov	r19, r28
    2a98:	40 e0       	ldi	r20, 0x00	; 0
    2a9a:	62 e0       	ldi	r22, 0x02	; 2
    2a9c:	80 e0       	ldi	r24, 0x00	; 0
    2a9e:	0e 94 95 05 	call	0xb2a	; 0xb2a <STEPPER_move>
    2aa2:	8d b7       	in	r24, 0x3d	; 61
    2aa4:	9e b7       	in	r25, 0x3e	; 62
    2aa6:	09 96       	adiw	r24, 0x09	; 9
    2aa8:	0f b6       	in	r0, 0x3f	; 63
    2aaa:	f8 94       	cli
    2aac:	9e bf       	out	0x3e, r25	; 62
    2aae:	0f be       	out	0x3f, r0	; 63
    2ab0:	8d bf       	out	0x3d, r24	; 61
		STEPPER_FWD, steps, speed, 400, STEPPER_BRK_OFF,	//Left wheel
		STEPPER_FWD, steps, speed, 400, STEPPER_BRK_OFF);	//Right wheel
}
    2ab2:	df 91       	pop	r29
    2ab4:	cf 91       	pop	r28
    2ab6:	1f 91       	pop	r17
    2ab8:	0f 91       	pop	r16
    2aba:	ff 90       	pop	r15
    2abc:	ef 90       	pop	r14
    2abe:	cf 90       	pop	r12
    2ac0:	bf 90       	pop	r11
    2ac2:	af 90       	pop	r10
    2ac4:	8f 90       	pop	r8
    2ac6:	08 95       	ret

00002ac8 <sTurnLeft>:
	yo = y;
	thetao = theta;
}

// Given an angle and a speed, this function makes the robot turn/spin to the left.
void sTurnLeft(int angle, int speed){
    2ac8:	8f 92       	push	r8
    2aca:	af 92       	push	r10
    2acc:	bf 92       	push	r11
    2ace:	cf 92       	push	r12
    2ad0:	ef 92       	push	r14
    2ad2:	ff 92       	push	r15
    2ad4:	0f 93       	push	r16
    2ad6:	1f 93       	push	r17
    2ad8:	cf 93       	push	r28
    2ada:	df 93       	push	r29
    2adc:	ec 01       	movw	r28, r24
    2ade:	06 2f       	mov	r16, r22
    2ae0:	17 2f       	mov	r17, r23
	
	// Performs the same error detection procedure for the Stepper subsystem as it was performed with ATTINY.
	SUBSYS_OPENSTAT openStepper;
	
	// Stepper subsystem is opened.
	openStepper = STEPPER_open();
    2ae2:	0e 94 3c 06 	call	0xc78	; 0xc78 <STEPPER_open>
	
	// Displays an error message if the returned value for the opened stepper subsystem is unexpected.
	if (openStepper.state != SUBSYS_OPEN){
    2ae6:	91 30       	cpi	r25, 0x01	; 1
    2ae8:	41 f0       	breq	.+16     	; 0x2afa <sTurnLeft+0x32>
		LCD_printf("\nError when opening STEPPER subsystem!");
    2aea:	82 e2       	ldi	r24, 0x22	; 34
    2aec:	91 e0       	ldi	r25, 0x01	; 1
    2aee:	9f 93       	push	r25
    2af0:	8f 93       	push	r24
    2af2:	0e 94 08 23 	call	0x4610	; 0x4610 <printf>
    2af6:	0f 90       	pop	r0
    2af8:	0f 90       	pop	r0
	}
	
	steps = angle*130/90;
    2afa:	22 e8       	ldi	r18, 0x82	; 130
    2afc:	2c 9f       	mul	r18, r28
    2afe:	c0 01       	movw	r24, r0
    2b00:	2d 9f       	mul	r18, r29
    2b02:	90 0d       	add	r25, r0
    2b04:	11 24       	eor	r1, r1
    2b06:	6a e5       	ldi	r22, 0x5A	; 90
    2b08:	70 e0       	ldi	r23, 0x00	; 0
    2b0a:	0e 94 26 20 	call	0x404c	; 0x404c <__divmodhi4>
    2b0e:	26 2f       	mov	r18, r22
    2b10:	37 2f       	mov	r19, r23
	STEPPER_move_stwt(STEPPER_BOTH,
    2b12:	1f 92       	push	r1
    2b14:	1f 92       	push	r1
    2b16:	1f 92       	push	r1
    2b18:	83 e0       	ldi	r24, 0x03	; 3
    2b1a:	8f 93       	push	r24
    2b1c:	80 e2       	ldi	r24, 0x20	; 32
    2b1e:	8f 93       	push	r24
    2b20:	1f 93       	push	r17
    2b22:	0f 93       	push	r16
    2b24:	7f 93       	push	r23
    2b26:	6f 93       	push	r22
    2b28:	81 2c       	mov	r8, r1
    2b2a:	a1 2c       	mov	r10, r1
    2b2c:	b1 2c       	mov	r11, r1
    2b2e:	c1 2c       	mov	r12, r1
    2b30:	0f 2e       	mov	r0, r31
    2b32:	f0 e2       	ldi	r31, 0x20	; 32
    2b34:	ef 2e       	mov	r14, r31
    2b36:	f3 e0       	ldi	r31, 0x03	; 3
    2b38:	ff 2e       	mov	r15, r31
    2b3a:	f0 2d       	mov	r31, r0
    2b3c:	41 e0       	ldi	r20, 0x01	; 1
    2b3e:	62 e0       	ldi	r22, 0x02	; 2
    2b40:	80 e0       	ldi	r24, 0x00	; 0
    2b42:	0e 94 95 05 	call	0xb2a	; 0xb2a <STEPPER_move>
		STEPPER_REV, steps, speed, 800, STEPPER_BRK_OFF,	//Left wheel
		STEPPER_FWD, steps, speed, 800, STEPPER_BRK_OFF);	//Right wheel
		
	STEPPER_close();
    2b46:	0e 94 ca 04 	call	0x994	; 0x994 <STEPPER_close>
    2b4a:	8d b7       	in	r24, 0x3d	; 61
    2b4c:	9e b7       	in	r25, 0x3e	; 62
    2b4e:	09 96       	adiw	r24, 0x09	; 9
    2b50:	0f b6       	in	r0, 0x3f	; 63
    2b52:	f8 94       	cli
    2b54:	9e bf       	out	0x3e, r25	; 62
    2b56:	0f be       	out	0x3f, r0	; 63
    2b58:	8d bf       	out	0x3d, r24	; 61
}
    2b5a:	df 91       	pop	r29
    2b5c:	cf 91       	pop	r28
    2b5e:	1f 91       	pop	r17
    2b60:	0f 91       	pop	r16
    2b62:	ff 90       	pop	r15
    2b64:	ef 90       	pop	r14
    2b66:	cf 90       	pop	r12
    2b68:	bf 90       	pop	r11
    2b6a:	af 90       	pop	r10
    2b6c:	8f 90       	pop	r8
    2b6e:	08 95       	ret

00002b70 <sTurnRight>:

// Given an angle and a speed, this function makes the robot turn/spin to the right.
void sTurnRight(int angle, int speed){
    2b70:	8f 92       	push	r8
    2b72:	af 92       	push	r10
    2b74:	bf 92       	push	r11
    2b76:	cf 92       	push	r12
    2b78:	ef 92       	push	r14
    2b7a:	ff 92       	push	r15
    2b7c:	0f 93       	push	r16
    2b7e:	1f 93       	push	r17
    2b80:	cf 93       	push	r28
    2b82:	df 93       	push	r29
    2b84:	ec 01       	movw	r28, r24
    2b86:	06 2f       	mov	r16, r22
    2b88:	17 2f       	mov	r17, r23
	
	// Performs the same error detection procedure for the Stepper subsystem as it was performed with ATTINY.
	SUBSYS_OPENSTAT openStepper;
	
	// Stepper subsystem is opened.
	openStepper = STEPPER_open();
    2b8a:	0e 94 3c 06 	call	0xc78	; 0xc78 <STEPPER_open>
	
	// Displays an error message if the returned value for the opened stepper subsystem is unexpected.
	if (openStepper.state != SUBSYS_OPEN){
    2b8e:	91 30       	cpi	r25, 0x01	; 1
    2b90:	41 f0       	breq	.+16     	; 0x2ba2 <sTurnRight+0x32>
		LCD_printf("\nError when opening STEPPER subsystem!");
    2b92:	82 e2       	ldi	r24, 0x22	; 34
    2b94:	91 e0       	ldi	r25, 0x01	; 1
    2b96:	9f 93       	push	r25
    2b98:	8f 93       	push	r24
    2b9a:	0e 94 08 23 	call	0x4610	; 0x4610 <printf>
    2b9e:	0f 90       	pop	r0
    2ba0:	0f 90       	pop	r0
	}
	
	steps = angle*130/90;
    2ba2:	22 e8       	ldi	r18, 0x82	; 130
    2ba4:	2c 9f       	mul	r18, r28
    2ba6:	c0 01       	movw	r24, r0
    2ba8:	2d 9f       	mul	r18, r29
    2baa:	90 0d       	add	r25, r0
    2bac:	11 24       	eor	r1, r1
    2bae:	6a e5       	ldi	r22, 0x5A	; 90
    2bb0:	70 e0       	ldi	r23, 0x00	; 0
    2bb2:	0e 94 26 20 	call	0x404c	; 0x404c <__divmodhi4>
    2bb6:	26 2f       	mov	r18, r22
    2bb8:	37 2f       	mov	r19, r23
	STEPPER_move_stwt(STEPPER_BOTH,
    2bba:	1f 92       	push	r1
    2bbc:	1f 92       	push	r1
    2bbe:	1f 92       	push	r1
    2bc0:	83 e0       	ldi	r24, 0x03	; 3
    2bc2:	8f 93       	push	r24
    2bc4:	80 e2       	ldi	r24, 0x20	; 32
    2bc6:	8f 93       	push	r24
    2bc8:	1f 93       	push	r17
    2bca:	0f 93       	push	r16
    2bcc:	7f 93       	push	r23
    2bce:	6f 93       	push	r22
    2bd0:	88 24       	eor	r8, r8
    2bd2:	83 94       	inc	r8
    2bd4:	a1 2c       	mov	r10, r1
    2bd6:	b1 2c       	mov	r11, r1
    2bd8:	c1 2c       	mov	r12, r1
    2bda:	0f 2e       	mov	r0, r31
    2bdc:	f0 e2       	ldi	r31, 0x20	; 32
    2bde:	ef 2e       	mov	r14, r31
    2be0:	f3 e0       	ldi	r31, 0x03	; 3
    2be2:	ff 2e       	mov	r15, r31
    2be4:	f0 2d       	mov	r31, r0
    2be6:	40 e0       	ldi	r20, 0x00	; 0
    2be8:	62 e0       	ldi	r22, 0x02	; 2
    2bea:	80 e0       	ldi	r24, 0x00	; 0
    2bec:	0e 94 95 05 	call	0xb2a	; 0xb2a <STEPPER_move>
		STEPPER_FWD, steps, speed, 800, STEPPER_BRK_OFF,	//Left wheel
		STEPPER_REV, steps, speed, 800, STEPPER_BRK_OFF);	//Right wheel
		
	STEPPER_close();
    2bf0:	0e 94 ca 04 	call	0x994	; 0x994 <STEPPER_close>
    2bf4:	8d b7       	in	r24, 0x3d	; 61
    2bf6:	9e b7       	in	r25, 0x3e	; 62
    2bf8:	09 96       	adiw	r24, 0x09	; 9
    2bfa:	0f b6       	in	r0, 0x3f	; 63
    2bfc:	f8 94       	cli
    2bfe:	9e bf       	out	0x3e, r25	; 62
    2c00:	0f be       	out	0x3f, r0	; 63
    2c02:	8d bf       	out	0x3d, r24	; 61
    2c04:	df 91       	pop	r29
    2c06:	cf 91       	pop	r28
    2c08:	1f 91       	pop	r17
    2c0a:	0f 91       	pop	r16
    2c0c:	ff 90       	pop	r15
    2c0e:	ef 90       	pop	r14
    2c10:	cf 90       	pop	r12
    2c12:	bf 90       	pop	r11
    2c14:	af 90       	pop	r10
    2c16:	8f 90       	pop	r8
    2c18:	08 95       	ret

00002c1a <go2Angle>:
		STEPPER_FWD, steps, speed, 400, STEPPER_BRK_OFF,	//Left wheel
		STEPPER_FWD, steps, speed, 400, STEPPER_BRK_OFF);	//Right wheel
}

// Rotates the robot to the required functions.
void go2Angle(int angle){
    2c1a:	cf 93       	push	r28
    2c1c:	df 93       	push	r29
	
	// If the angle is positive, rotate the robot in a certain angle that is converted in steps to the left.
	if (angle > 0){
    2c1e:	18 16       	cp	r1, r24
    2c20:	19 06       	cpc	r1, r25
    2c22:	dc f4       	brge	.+54     	; 0x2c5a <go2Angle+0x40>
		if (angle <= 180){
    2c24:	85 3b       	cpi	r24, 0xB5	; 181
    2c26:	91 05       	cpc	r25, r1
    2c28:	2c f4       	brge	.+10     	; 0x2c34 <go2Angle+0x1a>
			sTurnLeft(angle, 400);
    2c2a:	60 e9       	ldi	r22, 0x90	; 144
    2c2c:	71 e0       	ldi	r23, 0x01	; 1
    2c2e:	0e 94 64 15 	call	0x2ac8	; 0x2ac8 <sTurnLeft>
    2c32:	32 c0       	rjmp	.+100    	; 0x2c98 <go2Angle+0x7e>
		}else if(angle > 180){
			angle = angle/2;
    2c34:	9c 01       	movw	r18, r24
    2c36:	99 23       	and	r25, r25
    2c38:	14 f4       	brge	.+4      	; 0x2c3e <go2Angle+0x24>
    2c3a:	2f 5f       	subi	r18, 0xFF	; 255
    2c3c:	3f 4f       	sbci	r19, 0xFF	; 255
    2c3e:	e9 01       	movw	r28, r18
    2c40:	d5 95       	asr	r29
    2c42:	c7 95       	ror	r28
			sTurnLeft(angle, 400);
    2c44:	60 e9       	ldi	r22, 0x90	; 144
    2c46:	71 e0       	ldi	r23, 0x01	; 1
    2c48:	ce 01       	movw	r24, r28
    2c4a:	0e 94 64 15 	call	0x2ac8	; 0x2ac8 <sTurnLeft>
			sTurnLeft(angle, 400);
    2c4e:	60 e9       	ldi	r22, 0x90	; 144
    2c50:	71 e0       	ldi	r23, 0x01	; 1
    2c52:	ce 01       	movw	r24, r28
    2c54:	0e 94 64 15 	call	0x2ac8	; 0x2ac8 <sTurnLeft>
    2c58:	1f c0       	rjmp	.+62     	; 0x2c98 <go2Angle+0x7e>
		}
	// If the angle is negative, rotate the robot in a certain angle that is converted in steps to the right.
	}else if(angle < 0){
    2c5a:	99 23       	and	r25, r25
    2c5c:	ec f4       	brge	.+58     	; 0x2c98 <go2Angle+0x7e>
		angle = angle * (-1); //Make the angle positive to calculate the amount of steps.
    2c5e:	91 95       	neg	r25
    2c60:	81 95       	neg	r24
    2c62:	91 09       	sbc	r25, r1
		if (angle <= 180){
    2c64:	85 3b       	cpi	r24, 0xB5	; 181
    2c66:	91 05       	cpc	r25, r1
    2c68:	2c f4       	brge	.+10     	; 0x2c74 <go2Angle+0x5a>
			sTurnRight(angle, 400);
    2c6a:	60 e9       	ldi	r22, 0x90	; 144
    2c6c:	71 e0       	ldi	r23, 0x01	; 1
    2c6e:	0e 94 b8 15 	call	0x2b70	; 0x2b70 <sTurnRight>
    2c72:	12 c0       	rjmp	.+36     	; 0x2c98 <go2Angle+0x7e>
		}else if (angle > 180){
			angle = angle/2;
    2c74:	9c 01       	movw	r18, r24
    2c76:	99 23       	and	r25, r25
    2c78:	14 f4       	brge	.+4      	; 0x2c7e <go2Angle+0x64>
    2c7a:	2f 5f       	subi	r18, 0xFF	; 255
    2c7c:	3f 4f       	sbci	r19, 0xFF	; 255
    2c7e:	e9 01       	movw	r28, r18
    2c80:	d5 95       	asr	r29
    2c82:	c7 95       	ror	r28
			sTurnRight(angle, 400);
    2c84:	60 e9       	ldi	r22, 0x90	; 144
    2c86:	71 e0       	ldi	r23, 0x01	; 1
    2c88:	ce 01       	movw	r24, r28
    2c8a:	0e 94 b8 15 	call	0x2b70	; 0x2b70 <sTurnRight>
			sTurnRight(angle, 400);
    2c8e:	60 e9       	ldi	r22, 0x90	; 144
    2c90:	71 e0       	ldi	r23, 0x01	; 1
    2c92:	ce 01       	movw	r24, r28
    2c94:	0e 94 b8 15 	call	0x2b70	; 0x2b70 <sTurnRight>
		}
	}else{
		// does nothing
	}
}
    2c98:	df 91       	pop	r29
    2c9a:	cf 91       	pop	r28
    2c9c:	08 95       	ret

00002c9e <go2Point>:

// Guides the robot to the desired input point.
void go2Point(signed char x, signed char y){ //input in feet
    2c9e:	4f 92       	push	r4
    2ca0:	5f 92       	push	r5
    2ca2:	6f 92       	push	r6
    2ca4:	7f 92       	push	r7
    2ca6:	8f 92       	push	r8
    2ca8:	9f 92       	push	r9
    2caa:	af 92       	push	r10
    2cac:	bf 92       	push	r11
    2cae:	cf 92       	push	r12
    2cb0:	df 92       	push	r13
    2cb2:	ef 92       	push	r14
    2cb4:	ff 92       	push	r15
    2cb6:	cf 93       	push	r28
    2cb8:	df 93       	push	r29
	float deltax, deltay, distance, steps;
	int theta, deltaTheta;

	// Since the whole software was developed with an inches scale in mind, here the conversion to feet occurs.
	x = x*12;
    2cba:	d8 2f       	mov	r29, r24
    2cbc:	dd 0f       	add	r29, r29
    2cbe:	d8 0f       	add	r29, r24
    2cc0:	dd 0f       	add	r29, r29
    2cc2:	dd 0f       	add	r29, r29
	y = y*12;
    2cc4:	c6 2f       	mov	r28, r22
    2cc6:	cc 0f       	add	r28, r28
    2cc8:	c6 0f       	add	r28, r22
    2cca:	cc 0f       	add	r28, r28
    2ccc:	cc 0f       	add	r28, r28
	
	// Calculations:
	deltax = x - xo;
    2cce:	6d 2f       	mov	r22, r29
    2cd0:	77 27       	eor	r23, r23
    2cd2:	67 fd       	sbrc	r22, 7
    2cd4:	70 95       	com	r23
    2cd6:	80 91 54 02 	lds	r24, 0x0254
    2cda:	68 1b       	sub	r22, r24
    2cdc:	71 09       	sbc	r23, r1
    2cde:	88 27       	eor	r24, r24
    2ce0:	77 fd       	sbrc	r23, 7
    2ce2:	80 95       	com	r24
    2ce4:	98 2f       	mov	r25, r24
    2ce6:	0e 94 fb 18 	call	0x31f6	; 0x31f6 <__floatsisf>
    2cea:	4b 01       	movw	r8, r22
    2cec:	5c 01       	movw	r10, r24
	deltay = y - yo;
    2cee:	6c 2f       	mov	r22, r28
    2cf0:	77 27       	eor	r23, r23
    2cf2:	67 fd       	sbrc	r22, 7
    2cf4:	70 95       	com	r23
    2cf6:	80 91 53 02 	lds	r24, 0x0253
    2cfa:	68 1b       	sub	r22, r24
    2cfc:	71 09       	sbc	r23, r1
    2cfe:	88 27       	eor	r24, r24
    2d00:	77 fd       	sbrc	r23, 7
    2d02:	80 95       	com	r24
    2d04:	98 2f       	mov	r25, r24
    2d06:	0e 94 fb 18 	call	0x31f6	; 0x31f6 <__floatsisf>
    2d0a:	2b 01       	movw	r4, r22
    2d0c:	3c 01       	movw	r6, r24
	// Obtaining the theta in degrees since the function from math.h returns in radians.
	theta = atan2(deltay,deltax) * (180/M_PI);
    2d0e:	a5 01       	movw	r20, r10
    2d10:	94 01       	movw	r18, r8
    2d12:	0e 94 0d 18 	call	0x301a	; 0x301a <atan2>
    2d16:	20 ee       	ldi	r18, 0xE0	; 224
    2d18:	3e e2       	ldi	r19, 0x2E	; 46
    2d1a:	45 e6       	ldi	r20, 0x65	; 101
    2d1c:	52 e4       	ldi	r21, 0x42	; 66
    2d1e:	0e 94 4a 1a 	call	0x3494	; 0x3494 <__mulsf3>
    2d22:	0e 94 c8 18 	call	0x3190	; 0x3190 <__fixsfsi>
    2d26:	6b 01       	movw	r12, r22
    2d28:	7c 01       	movw	r14, r24
	//LCD_clear();
	//LCD_printf("%d - %d = %d", theta, thetao, deltaTheta);
	//LCD_printf("x = %d, y = %d",x,y);
	
	// Calculating the length of the vector.
	distance = hypot(deltax, deltay);
    2d2a:	a3 01       	movw	r20, r6
    2d2c:	92 01       	movw	r18, r4
    2d2e:	c5 01       	movw	r24, r10
    2d30:	b4 01       	movw	r22, r8
    2d32:	0e 94 b5 19 	call	0x336a	; 0x336a <hypot>
    2d36:	4b 01       	movw	r8, r22
    2d38:	5c 01       	movw	r10, r24
	// Calculations:
	deltax = x - xo;
	deltay = y - yo;
	// Obtaining the theta in degrees since the function from math.h returns in radians.
	theta = atan2(deltay,deltax) * (180/M_PI);
	deltaTheta = theta - thetao;
    2d3a:	80 91 51 02 	lds	r24, 0x0251
    2d3e:	90 91 52 02 	lds	r25, 0x0252
	
	// Converting it into steps.
	steps = distance/0.108;
	
	// Call for go to angle function.
	go2Angle(deltaTheta);
    2d42:	96 01       	movw	r18, r12
    2d44:	28 1b       	sub	r18, r24
    2d46:	39 0b       	sbc	r19, r25
    2d48:	c9 01       	movw	r24, r18
    2d4a:	0e 94 0d 16 	call	0x2c1a	; 0x2c1a <go2Angle>
	TMRSRVC_delay(500); //0.5 seconds delay.
    2d4e:	84 ef       	ldi	r24, 0xF4	; 244
    2d50:	91 e0       	ldi	r25, 0x01	; 1
    2d52:	0e 94 1e 09 	call	0x123c	; 0x123c <TMRSRVC_delay>
	
	// Calculating the length of the vector.
	distance = hypot(deltax, deltay);
	
	// Converting it into steps.
	steps = distance/0.108;
    2d56:	2b e1       	ldi	r18, 0x1B	; 27
    2d58:	3f e2       	ldi	r19, 0x2F	; 47
    2d5a:	4d ed       	ldi	r20, 0xDD	; 221
    2d5c:	5d e3       	ldi	r21, 0x3D	; 61
    2d5e:	c5 01       	movw	r24, r10
    2d60:	b4 01       	movw	r22, r8
    2d62:	0e 94 60 18 	call	0x30c0	; 0x30c0 <__divsf3>
	
	// Call for go to angle function.
	go2Angle(deltaTheta);
	TMRSRVC_delay(500); //0.5 seconds delay.
	// Call for the go to goal point function.
	moveForward(steps, 200);
    2d66:	0e 94 c8 18 	call	0x3190	; 0x3190 <__fixsfsi>
    2d6a:	dc 01       	movw	r26, r24
    2d6c:	cb 01       	movw	r24, r22
    2d6e:	68 ec       	ldi	r22, 0xC8	; 200
    2d70:	70 e0       	ldi	r23, 0x00	; 0
    2d72:	0e 94 1b 15 	call	0x2a36	; 0x2a36 <moveForward>
	
	// Updating the original values.
	xo = x;
    2d76:	d0 93 54 02 	sts	0x0254, r29
	yo = y;
    2d7a:	c0 93 53 02 	sts	0x0253, r28
	thetao = theta;
    2d7e:	d0 92 52 02 	sts	0x0252, r13
    2d82:	c0 92 51 02 	sts	0x0251, r12
}
    2d86:	df 91       	pop	r29
    2d88:	cf 91       	pop	r28
    2d8a:	ff 90       	pop	r15
    2d8c:	ef 90       	pop	r14
    2d8e:	df 90       	pop	r13
    2d90:	cf 90       	pop	r12
    2d92:	bf 90       	pop	r11
    2d94:	af 90       	pop	r10
    2d96:	9f 90       	pop	r9
    2d98:	8f 90       	pop	r8
    2d9a:	7f 90       	pop	r7
    2d9c:	6f 90       	pop	r6
    2d9e:	5f 90       	pop	r5
    2da0:	4f 90       	pop	r4
    2da2:	08 95       	ret

00002da4 <CBOT_main>:
	int deg = 0;
	signed char cox = 0;
	signed char coy = 0;
	
	// Opening LCD subsystem management.
	LCD_open();
    2da4:	0e 94 8d 03 	call	0x71a	; 0x71a <LCD_open>
	
	// This information is printed on the LCD display in case this initial setup takes longer.
	LCD_printf("Setting up...");
    2da8:	89 e4       	ldi	r24, 0x49	; 73
    2daa:	91 e0       	ldi	r25, 0x01	; 1
    2dac:	9f 93       	push	r25
    2dae:	8f 93       	push	r24
    2db0:	0e 94 08 23 	call	0x4610	; 0x4610 <printf>
	
	// Subsystem open state variable information.
	SUBSYS_OPENSTAT openTiny;
	
	// Opening ATTINY subsystem management and storing returning value in openTiny that is associated to the struct SUBSYS_OPENSTAT_TYPE.
	openTiny = ATTINY_open();
    2db4:	0e 94 cf 08 	call	0x119e	; 0x119e <ATTINY_open>
	
	// If the state struct from openTiny is different from the expected value, an error occurs.
	if (openTiny.state != SUBSYS_OPEN){
    2db8:	0f 90       	pop	r0
    2dba:	0f 90       	pop	r0
    2dbc:	91 30       	cpi	r25, 0x01	; 1
    2dbe:	51 f0       	breq	.+20     	; 0x2dd4 <CBOT_main+0x30>
		LCD_clear();
    2dc0:	0e 94 70 03 	call	0x6e0	; 0x6e0 <LCD_clear>
		// The error is then displayed.
		LCD_printf("Error when opening ATTINY!");
    2dc4:	87 e5       	ldi	r24, 0x57	; 87
    2dc6:	91 e0       	ldi	r25, 0x01	; 1
    2dc8:	9f 93       	push	r25
    2dca:	8f 93       	push	r24
    2dcc:	0e 94 08 23 	call	0x4610	; 0x4610 <printf>
    2dd0:	0f 90       	pop	r0
    2dd2:	0f 90       	pop	r0
	}
	
	// After the initial setup, a "Ready!" message is displayed on the second line of the LCD display.
	LCD_printf("\nReady!");
    2dd4:	82 e7       	ldi	r24, 0x72	; 114
    2dd6:	91 e0       	ldi	r25, 0x01	; 1
    2dd8:	9f 93       	push	r25
    2dda:	8f 93       	push	r24
    2ddc:	0e 94 08 23 	call	0x4610	; 0x4610 <printf>
	LCD_clear();
    2de0:	0e 94 70 03 	call	0x6e0	; 0x6e0 <LCD_clear>
    2de4:	0f 90       	pop	r0
    2de6:	0f 90       	pop	r0
	
	// While loop that keeps the micro controller running begins here:
    while(1)
    {
		LCD_printf("SW3 - Angle | + ");
    2de8:	0f 2e       	mov	r0, r31
    2dea:	fa e7       	ldi	r31, 0x7A	; 122
    2dec:	af 2e       	mov	r10, r31
    2dee:	f1 e0       	ldi	r31, 0x01	; 1
    2df0:	bf 2e       	mov	r11, r31
    2df2:	f0 2d       	mov	r31, r0
		LCD_printf("SW4 - Go to Point | -");
    2df4:	0f 2e       	mov	r0, r31
    2df6:	fb e8       	ldi	r31, 0x8B	; 139
    2df8:	cf 2e       	mov	r12, r31
    2dfa:	f1 e0       	ldi	r31, 0x01	; 1
    2dfc:	df 2e       	mov	r13, r31
    2dfe:	f0 2d       	mov	r31, r0
		LCD_printf("SW5 - Joke | Enter");
    2e00:	0f 2e       	mov	r0, r31
    2e02:	f1 ea       	ldi	r31, 0xA1	; 161
    2e04:	8f 2e       	mov	r8, r31
    2e06:	f1 e0       	ldi	r31, 0x01	; 1
    2e08:	9f 2e       	mov	r9, r31
    2e0a:	f0 2d       	mov	r31, r0
		// Press SW4 to go to goal function.
		else if (ATTINY_get_SW_state(ATTINY_SW4)){
			// While SW5 is not pressed...
			while(!ATTINY_get_SW_state(ATTINY_SW5)){
				LCD_clear();
				LCD_printf("( %d , %d )", cox, coy); // Displays the angle selection.
    2e0c:	0f 2e       	mov	r0, r31
    2e0e:	fe eb       	ldi	r31, 0xBE	; 190
    2e10:	ef 2e       	mov	r14, r31
    2e12:	f1 e0       	ldi	r31, 0x01	; 1
    2e14:	ff 2e       	mov	r15, r31
    2e16:	f0 2d       	mov	r31, r0
		// Press SW3 to select the angle function.
		if (ATTINY_get_SW_state(ATTINY_SW3)){
			// While SW5 is not pressed...
			while(!ATTINY_get_SW_state(ATTINY_SW5)){
				LCD_clear();
				LCD_printf("Angle: %d", deg); // Displays the angle selection.
    2e18:	04 eb       	ldi	r16, 0xB4	; 180
    2e1a:	11 e0       	ldi	r17, 0x01	; 1
				// If SW4 is pressed, the angle selection decrements by 15 degrees.
				}else if(ATTINY_get_SW_state(ATTINY_SW4)){
					deg = deg - 15;
					// If the angle is < -180, it goes back to -180.
					if(deg < -360){
						deg = 360;
    2e1c:	0f 2e       	mov	r0, r31
    2e1e:	f8 e6       	ldi	r31, 0x68	; 104
    2e20:	4f 2e       	mov	r4, r31
    2e22:	f0 2d       	mov	r31, r0
    2e24:	55 24       	eor	r5, r5
    2e26:	53 94       	inc	r5
				// If SW3 is pressed, the angle selection is increments by 15 degrees.
				if(ATTINY_get_SW_state(ATTINY_SW3)){
					deg = deg + 15;
					// If the angle is  > 180, it goes back to -180.
					if (deg > 360){
						deg = -360;
    2e28:	0f 2e       	mov	r0, r31
    2e2a:	f8 e9       	ldi	r31, 0x98	; 152
    2e2c:	6f 2e       	mov	r6, r31
    2e2e:	f0 2d       	mov	r31, r0
    2e30:	0f 2e       	mov	r0, r31
    2e32:	fe ef       	ldi	r31, 0xFE	; 254
    2e34:	7f 2e       	mov	r7, r31
    2e36:	f0 2d       	mov	r31, r0
	LCD_clear();
	
	// While loop that keeps the micro controller running begins here:
    while(1)
    {
		LCD_printf("SW3 - Angle | + ");
    2e38:	bf 92       	push	r11
    2e3a:	af 92       	push	r10
    2e3c:	0e 94 08 23 	call	0x4610	; 0x4610 <printf>
		LCD_printf("SW4 - Go to Point | -");
    2e40:	df 92       	push	r13
    2e42:	cf 92       	push	r12
    2e44:	0e 94 08 23 	call	0x4610	; 0x4610 <printf>
		LCD_printf("SW5 - Joke | Enter");
    2e48:	9f 92       	push	r9
    2e4a:	8f 92       	push	r8
    2e4c:	0e 94 08 23 	call	0x4610	; 0x4610 <printf>
		
		// Press SW3 to select the angle function.
		if (ATTINY_get_SW_state(ATTINY_SW3)){
    2e50:	80 e0       	ldi	r24, 0x00	; 0
    2e52:	0e 94 81 08 	call	0x1102	; 0x1102 <ATTINY_get_SW_state>
    2e56:	0f 90       	pop	r0
    2e58:	0f 90       	pop	r0
    2e5a:	0f 90       	pop	r0
    2e5c:	0f 90       	pop	r0
    2e5e:	0f 90       	pop	r0
    2e60:	0f 90       	pop	r0
    2e62:	88 23       	and	r24, r24
    2e64:	b9 f1       	breq	.+110    	; 0x2ed4 <CBOT_main+0x130>
    2e66:	80 e0       	ldi	r24, 0x00	; 0
    2e68:	c8 2f       	mov	r28, r24
    2e6a:	90 e0       	ldi	r25, 0x00	; 0
    2e6c:	d9 2f       	mov	r29, r25
    2e6e:	27 c0       	rjmp	.+78     	; 0x2ebe <CBOT_main+0x11a>
			// While SW5 is not pressed...
			while(!ATTINY_get_SW_state(ATTINY_SW5)){
				LCD_clear();
    2e70:	0e 94 70 03 	call	0x6e0	; 0x6e0 <LCD_clear>
				LCD_printf("Angle: %d", deg); // Displays the angle selection.
    2e74:	df 93       	push	r29
    2e76:	cf 93       	push	r28
    2e78:	1f 93       	push	r17
    2e7a:	0f 93       	push	r16
    2e7c:	0e 94 08 23 	call	0x4610	; 0x4610 <printf>
				// If SW3 is pressed, the angle selection is increments by 15 degrees.
				if(ATTINY_get_SW_state(ATTINY_SW3)){
    2e80:	80 e0       	ldi	r24, 0x00	; 0
    2e82:	0e 94 81 08 	call	0x1102	; 0x1102 <ATTINY_get_SW_state>
    2e86:	0f 90       	pop	r0
    2e88:	0f 90       	pop	r0
    2e8a:	0f 90       	pop	r0
    2e8c:	0f 90       	pop	r0
    2e8e:	88 23       	and	r24, r24
    2e90:	31 f0       	breq	.+12     	; 0x2e9e <CBOT_main+0xfa>
					deg = deg + 15;
    2e92:	2f 96       	adiw	r28, 0x0f	; 15
					// If the angle is  > 180, it goes back to -180.
					if (deg > 360){
    2e94:	c9 36       	cpi	r28, 0x69	; 105
    2e96:	81 e0       	ldi	r24, 0x01	; 1
    2e98:	d8 07       	cpc	r29, r24
    2e9a:	64 f4       	brge	.+24     	; 0x2eb4 <CBOT_main+0x110>
    2e9c:	10 c0       	rjmp	.+32     	; 0x2ebe <CBOT_main+0x11a>
						deg = -360;
					}
				// If SW4 is pressed, the angle selection decrements by 15 degrees.
				}else if(ATTINY_get_SW_state(ATTINY_SW4)){
    2e9e:	81 e0       	ldi	r24, 0x01	; 1
    2ea0:	0e 94 81 08 	call	0x1102	; 0x1102 <ATTINY_get_SW_state>
    2ea4:	88 23       	and	r24, r24
    2ea6:	59 f0       	breq	.+22     	; 0x2ebe <CBOT_main+0x11a>
					deg = deg - 15;
    2ea8:	2f 97       	sbiw	r28, 0x0f	; 15
					// If the angle is < -180, it goes back to -180.
					if(deg < -360){
    2eaa:	c8 39       	cpi	r28, 0x98	; 152
    2eac:	9e ef       	ldi	r25, 0xFE	; 254
    2eae:	d9 07       	cpc	r29, r25
    2eb0:	24 f0       	brlt	.+8      	; 0x2eba <CBOT_main+0x116>
    2eb2:	05 c0       	rjmp	.+10     	; 0x2ebe <CBOT_main+0x11a>
				// If SW3 is pressed, the angle selection is increments by 15 degrees.
				if(ATTINY_get_SW_state(ATTINY_SW3)){
					deg = deg + 15;
					// If the angle is  > 180, it goes back to -180.
					if (deg > 360){
						deg = -360;
    2eb4:	c6 2d       	mov	r28, r6
    2eb6:	d7 2d       	mov	r29, r7
    2eb8:	02 c0       	rjmp	.+4      	; 0x2ebe <CBOT_main+0x11a>
				// If SW4 is pressed, the angle selection decrements by 15 degrees.
				}else if(ATTINY_get_SW_state(ATTINY_SW4)){
					deg = deg - 15;
					// If the angle is < -180, it goes back to -180.
					if(deg < -360){
						deg = 360;
    2eba:	c4 2d       	mov	r28, r4
    2ebc:	d5 2d       	mov	r29, r5
		LCD_printf("SW5 - Joke | Enter");
		
		// Press SW3 to select the angle function.
		if (ATTINY_get_SW_state(ATTINY_SW3)){
			// While SW5 is not pressed...
			while(!ATTINY_get_SW_state(ATTINY_SW5)){
    2ebe:	82 e0       	ldi	r24, 0x02	; 2
    2ec0:	0e 94 81 08 	call	0x1102	; 0x1102 <ATTINY_get_SW_state>
    2ec4:	88 23       	and	r24, r24
    2ec6:	a1 f2       	breq	.-88     	; 0x2e70 <CBOT_main+0xcc>
						deg = 360;
					}
				}
			}
			// Calls go to angle function.
			go2Angle(deg);
    2ec8:	ce 01       	movw	r24, r28
    2eca:	0e 94 0d 16 	call	0x2c1a	; 0x2c1a <go2Angle>
			// The setup variable is cleared.
			deg = 0;
			LCD_clear();
    2ece:	0e 94 70 03 	call	0x6e0	; 0x6e0 <LCD_clear>
    2ed2:	b2 cf       	rjmp	.-156    	; 0x2e38 <CBOT_main+0x94>
		}
		// Press SW4 to go to goal function.
		else if (ATTINY_get_SW_state(ATTINY_SW4)){
    2ed4:	81 e0       	ldi	r24, 0x01	; 1
    2ed6:	0e 94 81 08 	call	0x1102	; 0x1102 <ATTINY_get_SW_state>
    2eda:	88 23       	and	r24, r24
    2edc:	09 f4       	brne	.+2      	; 0x2ee0 <CBOT_main+0x13c>
    2ede:	77 c0       	rjmp	.+238    	; 0x2fce <CBOT_main+0x22a>
    2ee0:	31 2c       	mov	r3, r1
				// If SW4 is pressed, the coordinate x is decremented.
				}else if(ATTINY_get_SW_state(ATTINY_SW4)){
					cox--;
					// If the x value is < -5, it goes back to 5.
					if(cox < -5){
						cox = 5;
    2ee2:	d5 e0       	ldi	r29, 0x05	; 5
				// If SW3 is pressed, the coordinate x is incremented.
				if(ATTINY_get_SW_state(ATTINY_SW3)){
					cox++;
					// If the x value is > 5, it goes back to -5.
					if (cox > 5){
						cox = -5;
    2ee4:	cb ef       	ldi	r28, 0xFB	; 251
    2ee6:	2b c0       	rjmp	.+86     	; 0x2f3e <CBOT_main+0x19a>
		}
		// Press SW4 to go to goal function.
		else if (ATTINY_get_SW_state(ATTINY_SW4)){
			// While SW5 is not pressed...
			while(!ATTINY_get_SW_state(ATTINY_SW5)){
				LCD_clear();
    2ee8:	0e 94 70 03 	call	0x6e0	; 0x6e0 <LCD_clear>
				LCD_printf("( %d , %d )", cox, coy); // Displays the angle selection.
    2eec:	1f 92       	push	r1
    2eee:	1f 92       	push	r1
    2ef0:	83 2d       	mov	r24, r3
    2ef2:	99 27       	eor	r25, r25
    2ef4:	87 fd       	sbrc	r24, 7
    2ef6:	90 95       	com	r25
    2ef8:	9f 93       	push	r25
    2efa:	3f 92       	push	r3
    2efc:	ff 92       	push	r15
    2efe:	ef 92       	push	r14
    2f00:	0e 94 08 23 	call	0x4610	; 0x4610 <printf>
				// If SW3 is pressed, the coordinate x is incremented.
				if(ATTINY_get_SW_state(ATTINY_SW3)){
    2f04:	80 e0       	ldi	r24, 0x00	; 0
    2f06:	0e 94 81 08 	call	0x1102	; 0x1102 <ATTINY_get_SW_state>
    2f0a:	0f 90       	pop	r0
    2f0c:	0f 90       	pop	r0
    2f0e:	0f 90       	pop	r0
    2f10:	0f 90       	pop	r0
    2f12:	0f 90       	pop	r0
    2f14:	0f 90       	pop	r0
    2f16:	88 23       	and	r24, r24
    2f18:	29 f0       	breq	.+10     	; 0x2f24 <CBOT_main+0x180>
					cox++;
    2f1a:	33 94       	inc	r3
					// If the x value is > 5, it goes back to -5.
					if (cox > 5){
    2f1c:	a5 e0       	ldi	r26, 0x05	; 5
    2f1e:	a3 15       	cp	r26, r3
    2f20:	5c f0       	brlt	.+22     	; 0x2f38 <CBOT_main+0x194>
    2f22:	0d c0       	rjmp	.+26     	; 0x2f3e <CBOT_main+0x19a>
						cox = -5;
					}
				// If SW4 is pressed, the coordinate x is decremented.
				}else if(ATTINY_get_SW_state(ATTINY_SW4)){
    2f24:	81 e0       	ldi	r24, 0x01	; 1
    2f26:	0e 94 81 08 	call	0x1102	; 0x1102 <ATTINY_get_SW_state>
    2f2a:	88 23       	and	r24, r24
    2f2c:	41 f0       	breq	.+16     	; 0x2f3e <CBOT_main+0x19a>
					cox--;
    2f2e:	3a 94       	dec	r3
					// If the x value is < -5, it goes back to 5.
					if(cox < -5){
    2f30:	bb ef       	ldi	r27, 0xFB	; 251
    2f32:	3b 16       	cp	r3, r27
    2f34:	1c f0       	brlt	.+6      	; 0x2f3c <CBOT_main+0x198>
    2f36:	03 c0       	rjmp	.+6      	; 0x2f3e <CBOT_main+0x19a>
				// If SW3 is pressed, the coordinate x is incremented.
				if(ATTINY_get_SW_state(ATTINY_SW3)){
					cox++;
					// If the x value is > 5, it goes back to -5.
					if (cox > 5){
						cox = -5;
    2f38:	3c 2e       	mov	r3, r28
    2f3a:	01 c0       	rjmp	.+2      	; 0x2f3e <CBOT_main+0x19a>
				// If SW4 is pressed, the coordinate x is decremented.
				}else if(ATTINY_get_SW_state(ATTINY_SW4)){
					cox--;
					// If the x value is < -5, it goes back to 5.
					if(cox < -5){
						cox = 5;
    2f3c:	3d 2e       	mov	r3, r29
			LCD_clear();
		}
		// Press SW4 to go to goal function.
		else if (ATTINY_get_SW_state(ATTINY_SW4)){
			// While SW5 is not pressed...
			while(!ATTINY_get_SW_state(ATTINY_SW5)){
    2f3e:	82 e0       	ldi	r24, 0x02	; 2
    2f40:	0e 94 81 08 	call	0x1102	; 0x1102 <ATTINY_get_SW_state>
    2f44:	88 23       	and	r24, r24
    2f46:	81 f2       	breq	.-96     	; 0x2ee8 <CBOT_main+0x144>
    2f48:	21 2c       	mov	r2, r1
			}
			// After choosing the value of the coordinate x, the user must choose the value of the coordinate y:
			// While SW5 is not pressed...
			while(!ATTINY_get_SW_state(ATTINY_SW5)){
				LCD_clear();
				LCD_printf("( %d , %d )", cox, coy);
    2f4a:	c3 2d       	mov	r28, r3
    2f4c:	dd 27       	eor	r29, r29
    2f4e:	c7 fd       	sbrc	r28, 7
    2f50:	d0 95       	com	r29
    2f52:	31 c0       	rjmp	.+98     	; 0x2fb6 <CBOT_main+0x212>
				}
			}
			// After choosing the value of the coordinate x, the user must choose the value of the coordinate y:
			// While SW5 is not pressed...
			while(!ATTINY_get_SW_state(ATTINY_SW5)){
				LCD_clear();
    2f54:	0e 94 70 03 	call	0x6e0	; 0x6e0 <LCD_clear>
				LCD_printf("( %d , %d )", cox, coy);
    2f58:	82 2d       	mov	r24, r2
    2f5a:	99 27       	eor	r25, r25
    2f5c:	87 fd       	sbrc	r24, 7
    2f5e:	90 95       	com	r25
    2f60:	9f 93       	push	r25
    2f62:	2f 92       	push	r2
    2f64:	df 93       	push	r29
    2f66:	3f 92       	push	r3
    2f68:	ff 92       	push	r15
    2f6a:	ef 92       	push	r14
    2f6c:	0e 94 08 23 	call	0x4610	; 0x4610 <printf>
				// If SW3 is pressed, the coordinate y is incremented.
				if(ATTINY_get_SW_state(ATTINY_SW3)){
    2f70:	80 e0       	ldi	r24, 0x00	; 0
    2f72:	0e 94 81 08 	call	0x1102	; 0x1102 <ATTINY_get_SW_state>
    2f76:	0f 90       	pop	r0
    2f78:	0f 90       	pop	r0
    2f7a:	0f 90       	pop	r0
    2f7c:	0f 90       	pop	r0
    2f7e:	0f 90       	pop	r0
    2f80:	0f 90       	pop	r0
    2f82:	88 23       	and	r24, r24
    2f84:	29 f0       	breq	.+10     	; 0x2f90 <CBOT_main+0x1ec>
					coy++;
    2f86:	23 94       	inc	r2
					// If the x value is > 5, it goes back to -5.
					if (coy > 5){
    2f88:	95 e0       	ldi	r25, 0x05	; 5
    2f8a:	92 15       	cp	r25, r2
    2f8c:	5c f0       	brlt	.+22     	; 0x2fa4 <CBOT_main+0x200>
    2f8e:	13 c0       	rjmp	.+38     	; 0x2fb6 <CBOT_main+0x212>
						coy = -5;
					}
					// If SW4 is pressed, the coordinate y is decremented.
				}else if(ATTINY_get_SW_state(ATTINY_SW4)){
    2f90:	81 e0       	ldi	r24, 0x01	; 1
    2f92:	0e 94 81 08 	call	0x1102	; 0x1102 <ATTINY_get_SW_state>
    2f96:	88 23       	and	r24, r24
    2f98:	71 f0       	breq	.+28     	; 0x2fb6 <CBOT_main+0x212>
					coy--;
    2f9a:	2a 94       	dec	r2
					// If the x value is < -5, it goes back to 5
					if(coy < -5){
    2f9c:	ab ef       	ldi	r26, 0xFB	; 251
    2f9e:	2a 16       	cp	r2, r26
    2fa0:	34 f0       	brlt	.+12     	; 0x2fae <CBOT_main+0x20a>
    2fa2:	09 c0       	rjmp	.+18     	; 0x2fb6 <CBOT_main+0x212>
				// If SW3 is pressed, the coordinate y is incremented.
				if(ATTINY_get_SW_state(ATTINY_SW3)){
					coy++;
					// If the x value is > 5, it goes back to -5.
					if (coy > 5){
						coy = -5;
    2fa4:	0f 2e       	mov	r0, r31
    2fa6:	fb ef       	ldi	r31, 0xFB	; 251
    2fa8:	2f 2e       	mov	r2, r31
    2faa:	f0 2d       	mov	r31, r0
    2fac:	04 c0       	rjmp	.+8      	; 0x2fb6 <CBOT_main+0x212>
					// If SW4 is pressed, the coordinate y is decremented.
				}else if(ATTINY_get_SW_state(ATTINY_SW4)){
					coy--;
					// If the x value is < -5, it goes back to 5
					if(coy < -5){
						coy = 5;
    2fae:	0f 2e       	mov	r0, r31
    2fb0:	f5 e0       	ldi	r31, 0x05	; 5
    2fb2:	2f 2e       	mov	r2, r31
    2fb4:	f0 2d       	mov	r31, r0
					}
				}
			}
			// After choosing the value of the coordinate x, the user must choose the value of the coordinate y:
			// While SW5 is not pressed...
			while(!ATTINY_get_SW_state(ATTINY_SW5)){
    2fb6:	82 e0       	ldi	r24, 0x02	; 2
    2fb8:	0e 94 81 08 	call	0x1102	; 0x1102 <ATTINY_get_SW_state>
    2fbc:	88 23       	and	r24, r24
    2fbe:	51 f2       	breq	.-108    	; 0x2f54 <CBOT_main+0x1b0>
						coy = 5;
					}
				}
			}
			// Calls go to goal point function.
			go2Point(cox,coy);
    2fc0:	62 2d       	mov	r22, r2
    2fc2:	83 2d       	mov	r24, r3
    2fc4:	0e 94 4f 16 	call	0x2c9e	; 0x2c9e <go2Point>
			// Clears the variables up.
			cox = 0;
			coy = 0;
			LCD_clear();
    2fc8:	0e 94 70 03 	call	0x6e0	; 0x6e0 <LCD_clear>
    2fcc:	35 cf       	rjmp	.-406    	; 0x2e38 <CBOT_main+0x94>
		}
		// If the SW5 button is pressed a silly message is displayed.
		else if (ATTINY_get_SW_state(ATTINY_SW5)){
    2fce:	82 e0       	ldi	r24, 0x02	; 2
    2fd0:	0e 94 81 08 	call	0x1102	; 0x1102 <ATTINY_get_SW_state>
    2fd4:	88 23       	and	r24, r24
    2fd6:	09 f4       	brne	.+2      	; 0x2fda <CBOT_main+0x236>
    2fd8:	2f cf       	rjmp	.-418    	; 0x2e38 <CBOT_main+0x94>
			LCD_clear();
    2fda:	0e 94 70 03 	call	0x6e0	; 0x6e0 <LCD_clear>
			LCD_printf("I'm useless...");
    2fde:	aa ec       	ldi	r26, 0xCA	; 202
    2fe0:	b1 e0       	ldi	r27, 0x01	; 1
    2fe2:	bf 93       	push	r27
    2fe4:	af 93       	push	r26
    2fe6:	0e 94 08 23 	call	0x4610	; 0x4610 <printf>
			TMRSRVC_delay(500);
    2fea:	84 ef       	ldi	r24, 0xF4	; 244
    2fec:	91 e0       	ldi	r25, 0x01	; 1
    2fee:	0e 94 1e 09 	call	0x123c	; 0x123c <TMRSRVC_delay>
			LCD_clear();
    2ff2:	0e 94 70 03 	call	0x6e0	; 0x6e0 <LCD_clear>
    2ff6:	0f 90       	pop	r0
    2ff8:	0f 90       	pop	r0
    2ffa:	1e cf       	rjmp	.-452    	; 0x2e38 <CBOT_main+0x94>
    2ffc:	65 d1       	rcall	.+714    	; 0x32c8 <__fp_pscA>
    2ffe:	58 f0       	brcs	.+22     	; 0x3016 <CBOT_main+0x272>
    3000:	80 e8       	ldi	r24, 0x80	; 128
    3002:	91 e0       	ldi	r25, 0x01	; 1
    3004:	09 f4       	brne	.+2      	; 0x3008 <CBOT_main+0x264>
    3006:	9e ef       	ldi	r25, 0xFE	; 254
    3008:	66 d1       	rcall	.+716    	; 0x32d6 <__fp_pscB>
    300a:	28 f0       	brcs	.+10     	; 0x3016 <CBOT_main+0x272>
    300c:	40 e8       	ldi	r20, 0x80	; 128
    300e:	51 e0       	ldi	r21, 0x01	; 1
    3010:	59 f4       	brne	.+22     	; 0x3028 <atan2+0xe>
    3012:	5e ef       	ldi	r21, 0xFE	; 254
    3014:	09 c0       	rjmp	.+18     	; 0x3028 <atan2+0xe>
    3016:	30 c1       	rjmp	.+608    	; 0x3278 <__fp_nan>
    3018:	98 c1       	rjmp	.+816    	; 0x334a <__fp_zero>

0000301a <atan2>:
    301a:	e9 2f       	mov	r30, r25
    301c:	e0 78       	andi	r30, 0x80	; 128
    301e:	73 d1       	rcall	.+742    	; 0x3306 <__fp_split3>
    3020:	68 f3       	brcs	.-38     	; 0x2ffc <CBOT_main+0x258>
    3022:	09 2e       	mov	r0, r25
    3024:	05 2a       	or	r0, r21
    3026:	c1 f3       	breq	.-16     	; 0x3018 <CBOT_main+0x274>
    3028:	26 17       	cp	r18, r22
    302a:	37 07       	cpc	r19, r23
    302c:	48 07       	cpc	r20, r24
    302e:	59 07       	cpc	r21, r25
    3030:	38 f0       	brcs	.+14     	; 0x3040 <atan2+0x26>
    3032:	0e 2e       	mov	r0, r30
    3034:	07 f8       	bld	r0, 7
    3036:	e0 25       	eor	r30, r0
    3038:	69 f0       	breq	.+26     	; 0x3054 <atan2+0x3a>
    303a:	e0 25       	eor	r30, r0
    303c:	e0 64       	ori	r30, 0x40	; 64
    303e:	0a c0       	rjmp	.+20     	; 0x3054 <atan2+0x3a>
    3040:	ef 63       	ori	r30, 0x3F	; 63
    3042:	07 f8       	bld	r0, 7
    3044:	00 94       	com	r0
    3046:	07 fa       	bst	r0, 7
    3048:	db 01       	movw	r26, r22
    304a:	b9 01       	movw	r22, r18
    304c:	9d 01       	movw	r18, r26
    304e:	dc 01       	movw	r26, r24
    3050:	ca 01       	movw	r24, r20
    3052:	ad 01       	movw	r20, r26
    3054:	ef 93       	push	r30
    3056:	43 d0       	rcall	.+134    	; 0x30de <__divsf3_pse>
    3058:	45 d1       	rcall	.+650    	; 0x32e4 <__fp_round>
    305a:	0a d0       	rcall	.+20     	; 0x3070 <atan>
    305c:	5f 91       	pop	r21
    305e:	55 23       	and	r21, r21
    3060:	31 f0       	breq	.+12     	; 0x306e <atan2+0x54>
    3062:	2b ed       	ldi	r18, 0xDB	; 219
    3064:	3f e0       	ldi	r19, 0x0F	; 15
    3066:	49 e4       	ldi	r20, 0x49	; 73
    3068:	50 fd       	sbrc	r21, 0
    306a:	49 ec       	ldi	r20, 0xC9	; 201
    306c:	bc c2       	rjmp	.+1400   	; 0x35e6 <__addsf3>
    306e:	08 95       	ret

00003070 <atan>:
    3070:	df 93       	push	r29
    3072:	dd 27       	eor	r29, r29
    3074:	b9 2f       	mov	r27, r25
    3076:	bf 77       	andi	r27, 0x7F	; 127
    3078:	40 e8       	ldi	r20, 0x80	; 128
    307a:	5f e3       	ldi	r21, 0x3F	; 63
    307c:	16 16       	cp	r1, r22
    307e:	17 06       	cpc	r1, r23
    3080:	48 07       	cpc	r20, r24
    3082:	5b 07       	cpc	r21, r27
    3084:	10 f4       	brcc	.+4      	; 0x308a <atan+0x1a>
    3086:	d9 2f       	mov	r29, r25
    3088:	c8 d1       	rcall	.+912    	; 0x341a <inverse>
    308a:	9f 93       	push	r25
    308c:	8f 93       	push	r24
    308e:	7f 93       	push	r23
    3090:	6f 93       	push	r22
    3092:	a5 d2       	rcall	.+1354   	; 0x35de <square>
    3094:	ec e7       	ldi	r30, 0x7C	; 124
    3096:	f0 e0       	ldi	r31, 0x00	; 0
    3098:	f2 d0       	rcall	.+484    	; 0x327e <__fp_powser>
    309a:	24 d1       	rcall	.+584    	; 0x32e4 <__fp_round>
    309c:	2f 91       	pop	r18
    309e:	3f 91       	pop	r19
    30a0:	4f 91       	pop	r20
    30a2:	5f 91       	pop	r21
    30a4:	03 d2       	rcall	.+1030   	; 0x34ac <__mulsf3x>
    30a6:	dd 23       	and	r29, r29
    30a8:	49 f0       	breq	.+18     	; 0x30bc <atan+0x4c>
    30aa:	90 58       	subi	r25, 0x80	; 128
    30ac:	a2 ea       	ldi	r26, 0xA2	; 162
    30ae:	2a ed       	ldi	r18, 0xDA	; 218
    30b0:	3f e0       	ldi	r19, 0x0F	; 15
    30b2:	49 ec       	ldi	r20, 0xC9	; 201
    30b4:	5f e3       	ldi	r21, 0x3F	; 63
    30b6:	d0 78       	andi	r29, 0x80	; 128
    30b8:	5d 27       	eor	r21, r29
    30ba:	a6 d2       	rcall	.+1356   	; 0x3608 <__addsf3x>
    30bc:	df 91       	pop	r29
    30be:	12 c1       	rjmp	.+548    	; 0x32e4 <__fp_round>

000030c0 <__divsf3>:
    30c0:	0c d0       	rcall	.+24     	; 0x30da <__divsf3x>
    30c2:	10 c1       	rjmp	.+544    	; 0x32e4 <__fp_round>
    30c4:	08 d1       	rcall	.+528    	; 0x32d6 <__fp_pscB>
    30c6:	40 f0       	brcs	.+16     	; 0x30d8 <__divsf3+0x18>
    30c8:	ff d0       	rcall	.+510    	; 0x32c8 <__fp_pscA>
    30ca:	30 f0       	brcs	.+12     	; 0x30d8 <__divsf3+0x18>
    30cc:	21 f4       	brne	.+8      	; 0x30d6 <__divsf3+0x16>
    30ce:	5f 3f       	cpi	r21, 0xFF	; 255
    30d0:	19 f0       	breq	.+6      	; 0x30d8 <__divsf3+0x18>
    30d2:	cc c0       	rjmp	.+408    	; 0x326c <__fp_inf>
    30d4:	51 11       	cpse	r21, r1
    30d6:	3a c1       	rjmp	.+628    	; 0x334c <__fp_szero>
    30d8:	cf c0       	rjmp	.+414    	; 0x3278 <__fp_nan>

000030da <__divsf3x>:
    30da:	15 d1       	rcall	.+554    	; 0x3306 <__fp_split3>
    30dc:	98 f3       	brcs	.-26     	; 0x30c4 <__divsf3+0x4>

000030de <__divsf3_pse>:
    30de:	99 23       	and	r25, r25
    30e0:	c9 f3       	breq	.-14     	; 0x30d4 <__divsf3+0x14>
    30e2:	55 23       	and	r21, r21
    30e4:	b1 f3       	breq	.-20     	; 0x30d2 <__divsf3+0x12>
    30e6:	95 1b       	sub	r25, r21
    30e8:	55 0b       	sbc	r21, r21
    30ea:	bb 27       	eor	r27, r27
    30ec:	aa 27       	eor	r26, r26
    30ee:	62 17       	cp	r22, r18
    30f0:	73 07       	cpc	r23, r19
    30f2:	84 07       	cpc	r24, r20
    30f4:	38 f0       	brcs	.+14     	; 0x3104 <__divsf3_pse+0x26>
    30f6:	9f 5f       	subi	r25, 0xFF	; 255
    30f8:	5f 4f       	sbci	r21, 0xFF	; 255
    30fa:	22 0f       	add	r18, r18
    30fc:	33 1f       	adc	r19, r19
    30fe:	44 1f       	adc	r20, r20
    3100:	aa 1f       	adc	r26, r26
    3102:	a9 f3       	breq	.-22     	; 0x30ee <__divsf3_pse+0x10>
    3104:	33 d0       	rcall	.+102    	; 0x316c <__divsf3_pse+0x8e>
    3106:	0e 2e       	mov	r0, r30
    3108:	3a f0       	brmi	.+14     	; 0x3118 <__divsf3_pse+0x3a>
    310a:	e0 e8       	ldi	r30, 0x80	; 128
    310c:	30 d0       	rcall	.+96     	; 0x316e <__divsf3_pse+0x90>
    310e:	91 50       	subi	r25, 0x01	; 1
    3110:	50 40       	sbci	r21, 0x00	; 0
    3112:	e6 95       	lsr	r30
    3114:	00 1c       	adc	r0, r0
    3116:	ca f7       	brpl	.-14     	; 0x310a <__divsf3_pse+0x2c>
    3118:	29 d0       	rcall	.+82     	; 0x316c <__divsf3_pse+0x8e>
    311a:	fe 2f       	mov	r31, r30
    311c:	27 d0       	rcall	.+78     	; 0x316c <__divsf3_pse+0x8e>
    311e:	66 0f       	add	r22, r22
    3120:	77 1f       	adc	r23, r23
    3122:	88 1f       	adc	r24, r24
    3124:	bb 1f       	adc	r27, r27
    3126:	26 17       	cp	r18, r22
    3128:	37 07       	cpc	r19, r23
    312a:	48 07       	cpc	r20, r24
    312c:	ab 07       	cpc	r26, r27
    312e:	b0 e8       	ldi	r27, 0x80	; 128
    3130:	09 f0       	breq	.+2      	; 0x3134 <__divsf3_pse+0x56>
    3132:	bb 0b       	sbc	r27, r27
    3134:	80 2d       	mov	r24, r0
    3136:	bf 01       	movw	r22, r30
    3138:	ff 27       	eor	r31, r31
    313a:	93 58       	subi	r25, 0x83	; 131
    313c:	5f 4f       	sbci	r21, 0xFF	; 255
    313e:	2a f0       	brmi	.+10     	; 0x314a <__divsf3_pse+0x6c>
    3140:	9e 3f       	cpi	r25, 0xFE	; 254
    3142:	51 05       	cpc	r21, r1
    3144:	68 f0       	brcs	.+26     	; 0x3160 <__divsf3_pse+0x82>
    3146:	92 c0       	rjmp	.+292    	; 0x326c <__fp_inf>
    3148:	01 c1       	rjmp	.+514    	; 0x334c <__fp_szero>
    314a:	5f 3f       	cpi	r21, 0xFF	; 255
    314c:	ec f3       	brlt	.-6      	; 0x3148 <__divsf3_pse+0x6a>
    314e:	98 3e       	cpi	r25, 0xE8	; 232
    3150:	dc f3       	brlt	.-10     	; 0x3148 <__divsf3_pse+0x6a>
    3152:	86 95       	lsr	r24
    3154:	77 95       	ror	r23
    3156:	67 95       	ror	r22
    3158:	b7 95       	ror	r27
    315a:	f7 95       	ror	r31
    315c:	9f 5f       	subi	r25, 0xFF	; 255
    315e:	c9 f7       	brne	.-14     	; 0x3152 <__divsf3_pse+0x74>
    3160:	88 0f       	add	r24, r24
    3162:	91 1d       	adc	r25, r1
    3164:	96 95       	lsr	r25
    3166:	87 95       	ror	r24
    3168:	97 f9       	bld	r25, 7
    316a:	08 95       	ret
    316c:	e1 e0       	ldi	r30, 0x01	; 1
    316e:	66 0f       	add	r22, r22
    3170:	77 1f       	adc	r23, r23
    3172:	88 1f       	adc	r24, r24
    3174:	bb 1f       	adc	r27, r27
    3176:	62 17       	cp	r22, r18
    3178:	73 07       	cpc	r23, r19
    317a:	84 07       	cpc	r24, r20
    317c:	ba 07       	cpc	r27, r26
    317e:	20 f0       	brcs	.+8      	; 0x3188 <__divsf3_pse+0xaa>
    3180:	62 1b       	sub	r22, r18
    3182:	73 0b       	sbc	r23, r19
    3184:	84 0b       	sbc	r24, r20
    3186:	ba 0b       	sbc	r27, r26
    3188:	ee 1f       	adc	r30, r30
    318a:	88 f7       	brcc	.-30     	; 0x316e <__divsf3_pse+0x90>
    318c:	e0 95       	com	r30
    318e:	08 95       	ret

00003190 <__fixsfsi>:
    3190:	04 d0       	rcall	.+8      	; 0x319a <__fixunssfsi>
    3192:	68 94       	set
    3194:	b1 11       	cpse	r27, r1
    3196:	da c0       	rjmp	.+436    	; 0x334c <__fp_szero>
    3198:	08 95       	ret

0000319a <__fixunssfsi>:
    319a:	bd d0       	rcall	.+378    	; 0x3316 <__fp_splitA>
    319c:	88 f0       	brcs	.+34     	; 0x31c0 <__fixunssfsi+0x26>
    319e:	9f 57       	subi	r25, 0x7F	; 127
    31a0:	90 f0       	brcs	.+36     	; 0x31c6 <__fixunssfsi+0x2c>
    31a2:	b9 2f       	mov	r27, r25
    31a4:	99 27       	eor	r25, r25
    31a6:	b7 51       	subi	r27, 0x17	; 23
    31a8:	a0 f0       	brcs	.+40     	; 0x31d2 <__fixunssfsi+0x38>
    31aa:	d1 f0       	breq	.+52     	; 0x31e0 <__fixunssfsi+0x46>
    31ac:	66 0f       	add	r22, r22
    31ae:	77 1f       	adc	r23, r23
    31b0:	88 1f       	adc	r24, r24
    31b2:	99 1f       	adc	r25, r25
    31b4:	1a f0       	brmi	.+6      	; 0x31bc <__fixunssfsi+0x22>
    31b6:	ba 95       	dec	r27
    31b8:	c9 f7       	brne	.-14     	; 0x31ac <__fixunssfsi+0x12>
    31ba:	12 c0       	rjmp	.+36     	; 0x31e0 <__fixunssfsi+0x46>
    31bc:	b1 30       	cpi	r27, 0x01	; 1
    31be:	81 f0       	breq	.+32     	; 0x31e0 <__fixunssfsi+0x46>
    31c0:	c4 d0       	rcall	.+392    	; 0x334a <__fp_zero>
    31c2:	b1 e0       	ldi	r27, 0x01	; 1
    31c4:	08 95       	ret
    31c6:	c1 c0       	rjmp	.+386    	; 0x334a <__fp_zero>
    31c8:	67 2f       	mov	r22, r23
    31ca:	78 2f       	mov	r23, r24
    31cc:	88 27       	eor	r24, r24
    31ce:	b8 5f       	subi	r27, 0xF8	; 248
    31d0:	39 f0       	breq	.+14     	; 0x31e0 <__fixunssfsi+0x46>
    31d2:	b9 3f       	cpi	r27, 0xF9	; 249
    31d4:	cc f3       	brlt	.-14     	; 0x31c8 <__fixunssfsi+0x2e>
    31d6:	86 95       	lsr	r24
    31d8:	77 95       	ror	r23
    31da:	67 95       	ror	r22
    31dc:	b3 95       	inc	r27
    31de:	d9 f7       	brne	.-10     	; 0x31d6 <__fixunssfsi+0x3c>
    31e0:	3e f4       	brtc	.+14     	; 0x31f0 <__fixunssfsi+0x56>
    31e2:	90 95       	com	r25
    31e4:	80 95       	com	r24
    31e6:	70 95       	com	r23
    31e8:	61 95       	neg	r22
    31ea:	7f 4f       	sbci	r23, 0xFF	; 255
    31ec:	8f 4f       	sbci	r24, 0xFF	; 255
    31ee:	9f 4f       	sbci	r25, 0xFF	; 255
    31f0:	08 95       	ret

000031f2 <__floatunsisf>:
    31f2:	e8 94       	clt
    31f4:	09 c0       	rjmp	.+18     	; 0x3208 <__floatsisf+0x12>

000031f6 <__floatsisf>:
    31f6:	97 fb       	bst	r25, 7
    31f8:	3e f4       	brtc	.+14     	; 0x3208 <__floatsisf+0x12>
    31fa:	90 95       	com	r25
    31fc:	80 95       	com	r24
    31fe:	70 95       	com	r23
    3200:	61 95       	neg	r22
    3202:	7f 4f       	sbci	r23, 0xFF	; 255
    3204:	8f 4f       	sbci	r24, 0xFF	; 255
    3206:	9f 4f       	sbci	r25, 0xFF	; 255
    3208:	99 23       	and	r25, r25
    320a:	a9 f0       	breq	.+42     	; 0x3236 <__floatsisf+0x40>
    320c:	f9 2f       	mov	r31, r25
    320e:	96 e9       	ldi	r25, 0x96	; 150
    3210:	bb 27       	eor	r27, r27
    3212:	93 95       	inc	r25
    3214:	f6 95       	lsr	r31
    3216:	87 95       	ror	r24
    3218:	77 95       	ror	r23
    321a:	67 95       	ror	r22
    321c:	b7 95       	ror	r27
    321e:	f1 11       	cpse	r31, r1
    3220:	f8 cf       	rjmp	.-16     	; 0x3212 <__floatsisf+0x1c>
    3222:	fa f4       	brpl	.+62     	; 0x3262 <__floatsisf+0x6c>
    3224:	bb 0f       	add	r27, r27
    3226:	11 f4       	brne	.+4      	; 0x322c <__floatsisf+0x36>
    3228:	60 ff       	sbrs	r22, 0
    322a:	1b c0       	rjmp	.+54     	; 0x3262 <__floatsisf+0x6c>
    322c:	6f 5f       	subi	r22, 0xFF	; 255
    322e:	7f 4f       	sbci	r23, 0xFF	; 255
    3230:	8f 4f       	sbci	r24, 0xFF	; 255
    3232:	9f 4f       	sbci	r25, 0xFF	; 255
    3234:	16 c0       	rjmp	.+44     	; 0x3262 <__floatsisf+0x6c>
    3236:	88 23       	and	r24, r24
    3238:	11 f0       	breq	.+4      	; 0x323e <__floatsisf+0x48>
    323a:	96 e9       	ldi	r25, 0x96	; 150
    323c:	11 c0       	rjmp	.+34     	; 0x3260 <__floatsisf+0x6a>
    323e:	77 23       	and	r23, r23
    3240:	21 f0       	breq	.+8      	; 0x324a <__floatsisf+0x54>
    3242:	9e e8       	ldi	r25, 0x8E	; 142
    3244:	87 2f       	mov	r24, r23
    3246:	76 2f       	mov	r23, r22
    3248:	05 c0       	rjmp	.+10     	; 0x3254 <__floatsisf+0x5e>
    324a:	66 23       	and	r22, r22
    324c:	71 f0       	breq	.+28     	; 0x326a <__floatsisf+0x74>
    324e:	96 e8       	ldi	r25, 0x86	; 134
    3250:	86 2f       	mov	r24, r22
    3252:	70 e0       	ldi	r23, 0x00	; 0
    3254:	60 e0       	ldi	r22, 0x00	; 0
    3256:	2a f0       	brmi	.+10     	; 0x3262 <__floatsisf+0x6c>
    3258:	9a 95       	dec	r25
    325a:	66 0f       	add	r22, r22
    325c:	77 1f       	adc	r23, r23
    325e:	88 1f       	adc	r24, r24
    3260:	da f7       	brpl	.-10     	; 0x3258 <__floatsisf+0x62>
    3262:	88 0f       	add	r24, r24
    3264:	96 95       	lsr	r25
    3266:	87 95       	ror	r24
    3268:	97 f9       	bld	r25, 7
    326a:	08 95       	ret

0000326c <__fp_inf>:
    326c:	97 f9       	bld	r25, 7
    326e:	9f 67       	ori	r25, 0x7F	; 127
    3270:	80 e8       	ldi	r24, 0x80	; 128
    3272:	70 e0       	ldi	r23, 0x00	; 0
    3274:	60 e0       	ldi	r22, 0x00	; 0
    3276:	08 95       	ret

00003278 <__fp_nan>:
    3278:	9f ef       	ldi	r25, 0xFF	; 255
    327a:	80 ec       	ldi	r24, 0xC0	; 192
    327c:	08 95       	ret

0000327e <__fp_powser>:
    327e:	df 93       	push	r29
    3280:	cf 93       	push	r28
    3282:	1f 93       	push	r17
    3284:	0f 93       	push	r16
    3286:	ff 92       	push	r15
    3288:	ef 92       	push	r14
    328a:	df 92       	push	r13
    328c:	7b 01       	movw	r14, r22
    328e:	8c 01       	movw	r16, r24
    3290:	68 94       	set
    3292:	05 c0       	rjmp	.+10     	; 0x329e <__fp_powser+0x20>
    3294:	da 2e       	mov	r13, r26
    3296:	ef 01       	movw	r28, r30
    3298:	09 d1       	rcall	.+530    	; 0x34ac <__mulsf3x>
    329a:	fe 01       	movw	r30, r28
    329c:	e8 94       	clt
    329e:	a5 91       	lpm	r26, Z+
    32a0:	25 91       	lpm	r18, Z+
    32a2:	35 91       	lpm	r19, Z+
    32a4:	45 91       	lpm	r20, Z+
    32a6:	55 91       	lpm	r21, Z+
    32a8:	ae f3       	brts	.-22     	; 0x3294 <__fp_powser+0x16>
    32aa:	ef 01       	movw	r28, r30
    32ac:	ad d1       	rcall	.+858    	; 0x3608 <__addsf3x>
    32ae:	fe 01       	movw	r30, r28
    32b0:	97 01       	movw	r18, r14
    32b2:	a8 01       	movw	r20, r16
    32b4:	da 94       	dec	r13
    32b6:	79 f7       	brne	.-34     	; 0x3296 <__fp_powser+0x18>
    32b8:	df 90       	pop	r13
    32ba:	ef 90       	pop	r14
    32bc:	ff 90       	pop	r15
    32be:	0f 91       	pop	r16
    32c0:	1f 91       	pop	r17
    32c2:	cf 91       	pop	r28
    32c4:	df 91       	pop	r29
    32c6:	08 95       	ret

000032c8 <__fp_pscA>:
    32c8:	00 24       	eor	r0, r0
    32ca:	0a 94       	dec	r0
    32cc:	16 16       	cp	r1, r22
    32ce:	17 06       	cpc	r1, r23
    32d0:	18 06       	cpc	r1, r24
    32d2:	09 06       	cpc	r0, r25
    32d4:	08 95       	ret

000032d6 <__fp_pscB>:
    32d6:	00 24       	eor	r0, r0
    32d8:	0a 94       	dec	r0
    32da:	12 16       	cp	r1, r18
    32dc:	13 06       	cpc	r1, r19
    32de:	14 06       	cpc	r1, r20
    32e0:	05 06       	cpc	r0, r21
    32e2:	08 95       	ret

000032e4 <__fp_round>:
    32e4:	09 2e       	mov	r0, r25
    32e6:	03 94       	inc	r0
    32e8:	00 0c       	add	r0, r0
    32ea:	11 f4       	brne	.+4      	; 0x32f0 <__fp_round+0xc>
    32ec:	88 23       	and	r24, r24
    32ee:	52 f0       	brmi	.+20     	; 0x3304 <__fp_round+0x20>
    32f0:	bb 0f       	add	r27, r27
    32f2:	40 f4       	brcc	.+16     	; 0x3304 <__fp_round+0x20>
    32f4:	bf 2b       	or	r27, r31
    32f6:	11 f4       	brne	.+4      	; 0x32fc <__fp_round+0x18>
    32f8:	60 ff       	sbrs	r22, 0
    32fa:	04 c0       	rjmp	.+8      	; 0x3304 <__fp_round+0x20>
    32fc:	6f 5f       	subi	r22, 0xFF	; 255
    32fe:	7f 4f       	sbci	r23, 0xFF	; 255
    3300:	8f 4f       	sbci	r24, 0xFF	; 255
    3302:	9f 4f       	sbci	r25, 0xFF	; 255
    3304:	08 95       	ret

00003306 <__fp_split3>:
    3306:	57 fd       	sbrc	r21, 7
    3308:	90 58       	subi	r25, 0x80	; 128
    330a:	44 0f       	add	r20, r20
    330c:	55 1f       	adc	r21, r21
    330e:	59 f0       	breq	.+22     	; 0x3326 <__fp_splitA+0x10>
    3310:	5f 3f       	cpi	r21, 0xFF	; 255
    3312:	71 f0       	breq	.+28     	; 0x3330 <__fp_splitA+0x1a>
    3314:	47 95       	ror	r20

00003316 <__fp_splitA>:
    3316:	88 0f       	add	r24, r24
    3318:	97 fb       	bst	r25, 7
    331a:	99 1f       	adc	r25, r25
    331c:	61 f0       	breq	.+24     	; 0x3336 <__fp_splitA+0x20>
    331e:	9f 3f       	cpi	r25, 0xFF	; 255
    3320:	79 f0       	breq	.+30     	; 0x3340 <__fp_splitA+0x2a>
    3322:	87 95       	ror	r24
    3324:	08 95       	ret
    3326:	12 16       	cp	r1, r18
    3328:	13 06       	cpc	r1, r19
    332a:	14 06       	cpc	r1, r20
    332c:	55 1f       	adc	r21, r21
    332e:	f2 cf       	rjmp	.-28     	; 0x3314 <__fp_split3+0xe>
    3330:	46 95       	lsr	r20
    3332:	f1 df       	rcall	.-30     	; 0x3316 <__fp_splitA>
    3334:	08 c0       	rjmp	.+16     	; 0x3346 <__fp_splitA+0x30>
    3336:	16 16       	cp	r1, r22
    3338:	17 06       	cpc	r1, r23
    333a:	18 06       	cpc	r1, r24
    333c:	99 1f       	adc	r25, r25
    333e:	f1 cf       	rjmp	.-30     	; 0x3322 <__fp_splitA+0xc>
    3340:	86 95       	lsr	r24
    3342:	71 05       	cpc	r23, r1
    3344:	61 05       	cpc	r22, r1
    3346:	08 94       	sec
    3348:	08 95       	ret

0000334a <__fp_zero>:
    334a:	e8 94       	clt

0000334c <__fp_szero>:
    334c:	bb 27       	eor	r27, r27
    334e:	66 27       	eor	r22, r22
    3350:	77 27       	eor	r23, r23
    3352:	cb 01       	movw	r24, r22
    3354:	97 f9       	bld	r25, 7
    3356:	08 95       	ret
    3358:	b7 df       	rcall	.-146    	; 0x32c8 <__fp_pscA>
    335a:	19 f0       	breq	.+6      	; 0x3362 <__fp_szero+0x16>
    335c:	bc df       	rcall	.-136    	; 0x32d6 <__fp_pscB>
    335e:	09 f0       	breq	.+2      	; 0x3362 <__fp_szero+0x16>
    3360:	8b cf       	rjmp	.-234    	; 0x3278 <__fp_nan>
    3362:	84 cf       	rjmp	.-248    	; 0x326c <__fp_inf>
    3364:	b9 01       	movw	r22, r18
    3366:	ca 01       	movw	r24, r20
    3368:	a2 c1       	rjmp	.+836    	; 0x36ae <__fp_mpack>

0000336a <hypot>:
    336a:	9f 77       	andi	r25, 0x7F	; 127
    336c:	5f 77       	andi	r21, 0x7F	; 127
    336e:	cb df       	rcall	.-106    	; 0x3306 <__fp_split3>
    3370:	98 f3       	brcs	.-26     	; 0x3358 <__fp_szero+0xc>
    3372:	99 23       	and	r25, r25
    3374:	b9 f3       	breq	.-18     	; 0x3364 <__fp_szero+0x18>
    3376:	55 23       	and	r21, r21
    3378:	b9 f3       	breq	.-18     	; 0x3368 <__fp_szero+0x1c>
    337a:	ff 27       	eor	r31, r31
    337c:	95 17       	cp	r25, r21
    337e:	58 f4       	brcc	.+22     	; 0x3396 <hypot+0x2c>
    3380:	e5 2f       	mov	r30, r21
    3382:	e9 1b       	sub	r30, r25
    3384:	ed 30       	cpi	r30, 0x0D	; 13
    3386:	70 f7       	brcc	.-36     	; 0x3364 <__fp_szero+0x18>
    3388:	5e 3b       	cpi	r21, 0xBE	; 190
    338a:	10 f0       	brcs	.+4      	; 0x3390 <hypot+0x26>
    338c:	f1 e4       	ldi	r31, 0x41	; 65
    338e:	1c c0       	rjmp	.+56     	; 0x33c8 <hypot+0x5e>
    3390:	90 34       	cpi	r25, 0x40	; 64
    3392:	e0 f4       	brcc	.+56     	; 0x33cc <hypot+0x62>
    3394:	0a c0       	rjmp	.+20     	; 0x33aa <hypot+0x40>
    3396:	e9 2f       	mov	r30, r25
    3398:	e5 1b       	sub	r30, r21
    339a:	ed 30       	cpi	r30, 0x0D	; 13
    339c:	28 f7       	brcc	.-54     	; 0x3368 <__fp_szero+0x1c>
    339e:	9e 3b       	cpi	r25, 0xBE	; 190
    33a0:	10 f0       	brcs	.+4      	; 0x33a6 <hypot+0x3c>
    33a2:	f1 e4       	ldi	r31, 0x41	; 65
    33a4:	11 c0       	rjmp	.+34     	; 0x33c8 <hypot+0x5e>
    33a6:	50 34       	cpi	r21, 0x40	; 64
    33a8:	88 f4       	brcc	.+34     	; 0x33cc <hypot+0x62>
    33aa:	f9 ea       	ldi	r31, 0xA9	; 169
    33ac:	88 23       	and	r24, r24
    33ae:	2a f0       	brmi	.+10     	; 0x33ba <hypot+0x50>
    33b0:	9a 95       	dec	r25
    33b2:	66 0f       	add	r22, r22
    33b4:	77 1f       	adc	r23, r23
    33b6:	88 1f       	adc	r24, r24
    33b8:	da f7       	brpl	.-10     	; 0x33b0 <hypot+0x46>
    33ba:	44 23       	and	r20, r20
    33bc:	2a f0       	brmi	.+10     	; 0x33c8 <hypot+0x5e>
    33be:	5a 95       	dec	r21
    33c0:	22 0f       	add	r18, r18
    33c2:	33 1f       	adc	r19, r19
    33c4:	44 1f       	adc	r20, r20
    33c6:	da f7       	brpl	.-10     	; 0x33be <hypot+0x54>
    33c8:	9f 1b       	sub	r25, r31
    33ca:	5f 1b       	sub	r21, r31
    33cc:	ff 93       	push	r31
    33ce:	1f 93       	push	r17
    33d0:	0f 93       	push	r16
    33d2:	ff 92       	push	r15
    33d4:	ef 92       	push	r14
    33d6:	79 01       	movw	r14, r18
    33d8:	8a 01       	movw	r16, r20
    33da:	bb 27       	eor	r27, r27
    33dc:	ab 2f       	mov	r26, r27
    33de:	9b 01       	movw	r18, r22
    33e0:	ac 01       	movw	r20, r24
    33e2:	66 d0       	rcall	.+204    	; 0x34b0 <__mulsf3_pse>
    33e4:	97 01       	movw	r18, r14
    33e6:	a8 01       	movw	r20, r16
    33e8:	bf 93       	push	r27
    33ea:	7b 01       	movw	r14, r22
    33ec:	8c 01       	movw	r16, r24
    33ee:	aa 27       	eor	r26, r26
    33f0:	ba 2f       	mov	r27, r26
    33f2:	b9 01       	movw	r22, r18
    33f4:	ca 01       	movw	r24, r20
    33f6:	5c d0       	rcall	.+184    	; 0x34b0 <__mulsf3_pse>
    33f8:	af 91       	pop	r26
    33fa:	97 01       	movw	r18, r14
    33fc:	a8 01       	movw	r20, r16
    33fe:	ef 90       	pop	r14
    3400:	ff 90       	pop	r15
    3402:	0f 91       	pop	r16
    3404:	1f 91       	pop	r17
    3406:	00 d1       	rcall	.+512    	; 0x3608 <__addsf3x>
    3408:	6d df       	rcall	.-294    	; 0x32e4 <__fp_round>
    340a:	ab d0       	rcall	.+342    	; 0x3562 <sqrt>
    340c:	4f 91       	pop	r20
    340e:	40 ff       	sbrs	r20, 0
    3410:	08 95       	ret
    3412:	55 27       	eor	r21, r21
    3414:	47 fd       	sbrc	r20, 7
    3416:	50 95       	com	r21
    3418:	09 c0       	rjmp	.+18     	; 0x342c <ldexp>

0000341a <inverse>:
    341a:	9b 01       	movw	r18, r22
    341c:	ac 01       	movw	r20, r24
    341e:	60 e0       	ldi	r22, 0x00	; 0
    3420:	70 e0       	ldi	r23, 0x00	; 0
    3422:	80 e8       	ldi	r24, 0x80	; 128
    3424:	9f e3       	ldi	r25, 0x3F	; 63
    3426:	4c ce       	rjmp	.-872    	; 0x30c0 <__divsf3>
    3428:	21 cf       	rjmp	.-446    	; 0x326c <__fp_inf>
    342a:	41 c1       	rjmp	.+642    	; 0x36ae <__fp_mpack>

0000342c <ldexp>:
    342c:	74 df       	rcall	.-280    	; 0x3316 <__fp_splitA>
    342e:	e8 f3       	brcs	.-6      	; 0x342a <inverse+0x10>
    3430:	99 23       	and	r25, r25
    3432:	d9 f3       	breq	.-10     	; 0x342a <inverse+0x10>
    3434:	94 0f       	add	r25, r20
    3436:	51 1d       	adc	r21, r1
    3438:	bb f3       	brvs	.-18     	; 0x3428 <inverse+0xe>
    343a:	91 50       	subi	r25, 0x01	; 1
    343c:	50 40       	sbci	r21, 0x00	; 0
    343e:	94 f0       	brlt	.+36     	; 0x3464 <ldexp+0x38>
    3440:	59 f0       	breq	.+22     	; 0x3458 <ldexp+0x2c>
    3442:	88 23       	and	r24, r24
    3444:	32 f0       	brmi	.+12     	; 0x3452 <ldexp+0x26>
    3446:	66 0f       	add	r22, r22
    3448:	77 1f       	adc	r23, r23
    344a:	88 1f       	adc	r24, r24
    344c:	91 50       	subi	r25, 0x01	; 1
    344e:	50 40       	sbci	r21, 0x00	; 0
    3450:	c1 f7       	brne	.-16     	; 0x3442 <ldexp+0x16>
    3452:	9e 3f       	cpi	r25, 0xFE	; 254
    3454:	51 05       	cpc	r21, r1
    3456:	44 f7       	brge	.-48     	; 0x3428 <inverse+0xe>
    3458:	88 0f       	add	r24, r24
    345a:	91 1d       	adc	r25, r1
    345c:	96 95       	lsr	r25
    345e:	87 95       	ror	r24
    3460:	97 f9       	bld	r25, 7
    3462:	08 95       	ret
    3464:	5f 3f       	cpi	r21, 0xFF	; 255
    3466:	ac f0       	brlt	.+42     	; 0x3492 <ldexp+0x66>
    3468:	98 3e       	cpi	r25, 0xE8	; 232
    346a:	9c f0       	brlt	.+38     	; 0x3492 <ldexp+0x66>
    346c:	bb 27       	eor	r27, r27
    346e:	86 95       	lsr	r24
    3470:	77 95       	ror	r23
    3472:	67 95       	ror	r22
    3474:	b7 95       	ror	r27
    3476:	08 f4       	brcc	.+2      	; 0x347a <ldexp+0x4e>
    3478:	b1 60       	ori	r27, 0x01	; 1
    347a:	93 95       	inc	r25
    347c:	c1 f7       	brne	.-16     	; 0x346e <ldexp+0x42>
    347e:	bb 0f       	add	r27, r27
    3480:	58 f7       	brcc	.-42     	; 0x3458 <ldexp+0x2c>
    3482:	11 f4       	brne	.+4      	; 0x3488 <ldexp+0x5c>
    3484:	60 ff       	sbrs	r22, 0
    3486:	e8 cf       	rjmp	.-48     	; 0x3458 <ldexp+0x2c>
    3488:	6f 5f       	subi	r22, 0xFF	; 255
    348a:	7f 4f       	sbci	r23, 0xFF	; 255
    348c:	8f 4f       	sbci	r24, 0xFF	; 255
    348e:	9f 4f       	sbci	r25, 0xFF	; 255
    3490:	e3 cf       	rjmp	.-58     	; 0x3458 <ldexp+0x2c>
    3492:	5c cf       	rjmp	.-328    	; 0x334c <__fp_szero>

00003494 <__mulsf3>:
    3494:	0b d0       	rcall	.+22     	; 0x34ac <__mulsf3x>
    3496:	26 cf       	rjmp	.-436    	; 0x32e4 <__fp_round>
    3498:	17 df       	rcall	.-466    	; 0x32c8 <__fp_pscA>
    349a:	28 f0       	brcs	.+10     	; 0x34a6 <__mulsf3+0x12>
    349c:	1c df       	rcall	.-456    	; 0x32d6 <__fp_pscB>
    349e:	18 f0       	brcs	.+6      	; 0x34a6 <__mulsf3+0x12>
    34a0:	95 23       	and	r25, r21
    34a2:	09 f0       	breq	.+2      	; 0x34a6 <__mulsf3+0x12>
    34a4:	e3 ce       	rjmp	.-570    	; 0x326c <__fp_inf>
    34a6:	e8 ce       	rjmp	.-560    	; 0x3278 <__fp_nan>
    34a8:	11 24       	eor	r1, r1
    34aa:	50 cf       	rjmp	.-352    	; 0x334c <__fp_szero>

000034ac <__mulsf3x>:
    34ac:	2c df       	rcall	.-424    	; 0x3306 <__fp_split3>
    34ae:	a0 f3       	brcs	.-24     	; 0x3498 <__mulsf3+0x4>

000034b0 <__mulsf3_pse>:
    34b0:	95 9f       	mul	r25, r21
    34b2:	d1 f3       	breq	.-12     	; 0x34a8 <__mulsf3+0x14>
    34b4:	95 0f       	add	r25, r21
    34b6:	50 e0       	ldi	r21, 0x00	; 0
    34b8:	55 1f       	adc	r21, r21
    34ba:	62 9f       	mul	r22, r18
    34bc:	f0 01       	movw	r30, r0
    34be:	72 9f       	mul	r23, r18
    34c0:	bb 27       	eor	r27, r27
    34c2:	f0 0d       	add	r31, r0
    34c4:	b1 1d       	adc	r27, r1
    34c6:	63 9f       	mul	r22, r19
    34c8:	aa 27       	eor	r26, r26
    34ca:	f0 0d       	add	r31, r0
    34cc:	b1 1d       	adc	r27, r1
    34ce:	aa 1f       	adc	r26, r26
    34d0:	64 9f       	mul	r22, r20
    34d2:	66 27       	eor	r22, r22
    34d4:	b0 0d       	add	r27, r0
    34d6:	a1 1d       	adc	r26, r1
    34d8:	66 1f       	adc	r22, r22
    34da:	82 9f       	mul	r24, r18
    34dc:	22 27       	eor	r18, r18
    34de:	b0 0d       	add	r27, r0
    34e0:	a1 1d       	adc	r26, r1
    34e2:	62 1f       	adc	r22, r18
    34e4:	73 9f       	mul	r23, r19
    34e6:	b0 0d       	add	r27, r0
    34e8:	a1 1d       	adc	r26, r1
    34ea:	62 1f       	adc	r22, r18
    34ec:	83 9f       	mul	r24, r19
    34ee:	a0 0d       	add	r26, r0
    34f0:	61 1d       	adc	r22, r1
    34f2:	22 1f       	adc	r18, r18
    34f4:	74 9f       	mul	r23, r20
    34f6:	33 27       	eor	r19, r19
    34f8:	a0 0d       	add	r26, r0
    34fa:	61 1d       	adc	r22, r1
    34fc:	23 1f       	adc	r18, r19
    34fe:	84 9f       	mul	r24, r20
    3500:	60 0d       	add	r22, r0
    3502:	21 1d       	adc	r18, r1
    3504:	82 2f       	mov	r24, r18
    3506:	76 2f       	mov	r23, r22
    3508:	6a 2f       	mov	r22, r26
    350a:	11 24       	eor	r1, r1
    350c:	9f 57       	subi	r25, 0x7F	; 127
    350e:	50 40       	sbci	r21, 0x00	; 0
    3510:	8a f0       	brmi	.+34     	; 0x3534 <__mulsf3_pse+0x84>
    3512:	e1 f0       	breq	.+56     	; 0x354c <__mulsf3_pse+0x9c>
    3514:	88 23       	and	r24, r24
    3516:	4a f0       	brmi	.+18     	; 0x352a <__mulsf3_pse+0x7a>
    3518:	ee 0f       	add	r30, r30
    351a:	ff 1f       	adc	r31, r31
    351c:	bb 1f       	adc	r27, r27
    351e:	66 1f       	adc	r22, r22
    3520:	77 1f       	adc	r23, r23
    3522:	88 1f       	adc	r24, r24
    3524:	91 50       	subi	r25, 0x01	; 1
    3526:	50 40       	sbci	r21, 0x00	; 0
    3528:	a9 f7       	brne	.-22     	; 0x3514 <__mulsf3_pse+0x64>
    352a:	9e 3f       	cpi	r25, 0xFE	; 254
    352c:	51 05       	cpc	r21, r1
    352e:	70 f0       	brcs	.+28     	; 0x354c <__mulsf3_pse+0x9c>
    3530:	9d ce       	rjmp	.-710    	; 0x326c <__fp_inf>
    3532:	0c cf       	rjmp	.-488    	; 0x334c <__fp_szero>
    3534:	5f 3f       	cpi	r21, 0xFF	; 255
    3536:	ec f3       	brlt	.-6      	; 0x3532 <__mulsf3_pse+0x82>
    3538:	98 3e       	cpi	r25, 0xE8	; 232
    353a:	dc f3       	brlt	.-10     	; 0x3532 <__mulsf3_pse+0x82>
    353c:	86 95       	lsr	r24
    353e:	77 95       	ror	r23
    3540:	67 95       	ror	r22
    3542:	b7 95       	ror	r27
    3544:	f7 95       	ror	r31
    3546:	e7 95       	ror	r30
    3548:	9f 5f       	subi	r25, 0xFF	; 255
    354a:	c1 f7       	brne	.-16     	; 0x353c <__mulsf3_pse+0x8c>
    354c:	fe 2b       	or	r31, r30
    354e:	88 0f       	add	r24, r24
    3550:	91 1d       	adc	r25, r1
    3552:	96 95       	lsr	r25
    3554:	87 95       	ror	r24
    3556:	97 f9       	bld	r25, 7
    3558:	08 95       	ret
    355a:	11 f4       	brne	.+4      	; 0x3560 <__mulsf3_pse+0xb0>
    355c:	0e f4       	brtc	.+2      	; 0x3560 <__mulsf3_pse+0xb0>
    355e:	8c ce       	rjmp	.-744    	; 0x3278 <__fp_nan>
    3560:	a6 c0       	rjmp	.+332    	; 0x36ae <__fp_mpack>

00003562 <sqrt>:
    3562:	d9 de       	rcall	.-590    	; 0x3316 <__fp_splitA>
    3564:	d0 f3       	brcs	.-12     	; 0x355a <__mulsf3_pse+0xaa>
    3566:	99 23       	and	r25, r25
    3568:	d9 f3       	breq	.-10     	; 0x3560 <__mulsf3_pse+0xb0>
    356a:	ce f3       	brts	.-14     	; 0x355e <__mulsf3_pse+0xae>
    356c:	9f 57       	subi	r25, 0x7F	; 127
    356e:	55 0b       	sbc	r21, r21
    3570:	87 ff       	sbrs	r24, 7
    3572:	ab d0       	rcall	.+342    	; 0x36ca <__fp_norm2>
    3574:	00 24       	eor	r0, r0
    3576:	a0 e6       	ldi	r26, 0x60	; 96
    3578:	40 ea       	ldi	r20, 0xA0	; 160
    357a:	90 01       	movw	r18, r0
    357c:	80 58       	subi	r24, 0x80	; 128
    357e:	56 95       	lsr	r21
    3580:	97 95       	ror	r25
    3582:	28 f4       	brcc	.+10     	; 0x358e <sqrt+0x2c>
    3584:	80 5c       	subi	r24, 0xC0	; 192
    3586:	66 0f       	add	r22, r22
    3588:	77 1f       	adc	r23, r23
    358a:	88 1f       	adc	r24, r24
    358c:	20 f0       	brcs	.+8      	; 0x3596 <sqrt+0x34>
    358e:	26 17       	cp	r18, r22
    3590:	37 07       	cpc	r19, r23
    3592:	48 07       	cpc	r20, r24
    3594:	30 f4       	brcc	.+12     	; 0x35a2 <sqrt+0x40>
    3596:	62 1b       	sub	r22, r18
    3598:	73 0b       	sbc	r23, r19
    359a:	84 0b       	sbc	r24, r20
    359c:	20 29       	or	r18, r0
    359e:	31 29       	or	r19, r1
    35a0:	4a 2b       	or	r20, r26
    35a2:	a6 95       	lsr	r26
    35a4:	17 94       	ror	r1
    35a6:	07 94       	ror	r0
    35a8:	20 25       	eor	r18, r0
    35aa:	31 25       	eor	r19, r1
    35ac:	4a 27       	eor	r20, r26
    35ae:	58 f7       	brcc	.-42     	; 0x3586 <sqrt+0x24>
    35b0:	66 0f       	add	r22, r22
    35b2:	77 1f       	adc	r23, r23
    35b4:	88 1f       	adc	r24, r24
    35b6:	20 f0       	brcs	.+8      	; 0x35c0 <sqrt+0x5e>
    35b8:	26 17       	cp	r18, r22
    35ba:	37 07       	cpc	r19, r23
    35bc:	48 07       	cpc	r20, r24
    35be:	30 f4       	brcc	.+12     	; 0x35cc <sqrt+0x6a>
    35c0:	62 0b       	sbc	r22, r18
    35c2:	73 0b       	sbc	r23, r19
    35c4:	84 0b       	sbc	r24, r20
    35c6:	20 0d       	add	r18, r0
    35c8:	31 1d       	adc	r19, r1
    35ca:	41 1d       	adc	r20, r1
    35cc:	a0 95       	com	r26
    35ce:	81 f7       	brne	.-32     	; 0x35b0 <sqrt+0x4e>
    35d0:	b9 01       	movw	r22, r18
    35d2:	84 2f       	mov	r24, r20
    35d4:	91 58       	subi	r25, 0x81	; 129
    35d6:	88 0f       	add	r24, r24
    35d8:	96 95       	lsr	r25
    35da:	87 95       	ror	r24
    35dc:	08 95       	ret

000035de <square>:
    35de:	9b 01       	movw	r18, r22
    35e0:	ac 01       	movw	r20, r24
    35e2:	58 cf       	rjmp	.-336    	; 0x3494 <__mulsf3>

000035e4 <__subsf3>:
    35e4:	50 58       	subi	r21, 0x80	; 128

000035e6 <__addsf3>:
    35e6:	bb 27       	eor	r27, r27
    35e8:	aa 27       	eor	r26, r26
    35ea:	0e d0       	rcall	.+28     	; 0x3608 <__addsf3x>
    35ec:	7b ce       	rjmp	.-778    	; 0x32e4 <__fp_round>
    35ee:	6c de       	rcall	.-808    	; 0x32c8 <__fp_pscA>
    35f0:	30 f0       	brcs	.+12     	; 0x35fe <__addsf3+0x18>
    35f2:	71 de       	rcall	.-798    	; 0x32d6 <__fp_pscB>
    35f4:	20 f0       	brcs	.+8      	; 0x35fe <__addsf3+0x18>
    35f6:	31 f4       	brne	.+12     	; 0x3604 <__addsf3+0x1e>
    35f8:	9f 3f       	cpi	r25, 0xFF	; 255
    35fa:	11 f4       	brne	.+4      	; 0x3600 <__addsf3+0x1a>
    35fc:	1e f4       	brtc	.+6      	; 0x3604 <__addsf3+0x1e>
    35fe:	3c ce       	rjmp	.-904    	; 0x3278 <__fp_nan>
    3600:	0e f4       	brtc	.+2      	; 0x3604 <__addsf3+0x1e>
    3602:	e0 95       	com	r30
    3604:	e7 fb       	bst	r30, 7
    3606:	32 ce       	rjmp	.-924    	; 0x326c <__fp_inf>

00003608 <__addsf3x>:
    3608:	e9 2f       	mov	r30, r25
    360a:	7d de       	rcall	.-774    	; 0x3306 <__fp_split3>
    360c:	80 f3       	brcs	.-32     	; 0x35ee <__addsf3+0x8>
    360e:	ba 17       	cp	r27, r26
    3610:	62 07       	cpc	r22, r18
    3612:	73 07       	cpc	r23, r19
    3614:	84 07       	cpc	r24, r20
    3616:	95 07       	cpc	r25, r21
    3618:	18 f0       	brcs	.+6      	; 0x3620 <__addsf3x+0x18>
    361a:	71 f4       	brne	.+28     	; 0x3638 <__addsf3x+0x30>
    361c:	9e f5       	brtc	.+102    	; 0x3684 <__addsf3x+0x7c>
    361e:	95 ce       	rjmp	.-726    	; 0x334a <__fp_zero>
    3620:	0e f4       	brtc	.+2      	; 0x3624 <__addsf3x+0x1c>
    3622:	e0 95       	com	r30
    3624:	0b 2e       	mov	r0, r27
    3626:	ba 2f       	mov	r27, r26
    3628:	a0 2d       	mov	r26, r0
    362a:	0b 01       	movw	r0, r22
    362c:	b9 01       	movw	r22, r18
    362e:	90 01       	movw	r18, r0
    3630:	0c 01       	movw	r0, r24
    3632:	ca 01       	movw	r24, r20
    3634:	a0 01       	movw	r20, r0
    3636:	11 24       	eor	r1, r1
    3638:	ff 27       	eor	r31, r31
    363a:	59 1b       	sub	r21, r25
    363c:	99 f0       	breq	.+38     	; 0x3664 <__addsf3x+0x5c>
    363e:	59 3f       	cpi	r21, 0xF9	; 249
    3640:	50 f4       	brcc	.+20     	; 0x3656 <__addsf3x+0x4e>
    3642:	50 3e       	cpi	r21, 0xE0	; 224
    3644:	68 f1       	brcs	.+90     	; 0x36a0 <__addsf3x+0x98>
    3646:	1a 16       	cp	r1, r26
    3648:	f0 40       	sbci	r31, 0x00	; 0
    364a:	a2 2f       	mov	r26, r18
    364c:	23 2f       	mov	r18, r19
    364e:	34 2f       	mov	r19, r20
    3650:	44 27       	eor	r20, r20
    3652:	58 5f       	subi	r21, 0xF8	; 248
    3654:	f3 cf       	rjmp	.-26     	; 0x363c <__addsf3x+0x34>
    3656:	46 95       	lsr	r20
    3658:	37 95       	ror	r19
    365a:	27 95       	ror	r18
    365c:	a7 95       	ror	r26
    365e:	f0 40       	sbci	r31, 0x00	; 0
    3660:	53 95       	inc	r21
    3662:	c9 f7       	brne	.-14     	; 0x3656 <__addsf3x+0x4e>
    3664:	7e f4       	brtc	.+30     	; 0x3684 <__addsf3x+0x7c>
    3666:	1f 16       	cp	r1, r31
    3668:	ba 0b       	sbc	r27, r26
    366a:	62 0b       	sbc	r22, r18
    366c:	73 0b       	sbc	r23, r19
    366e:	84 0b       	sbc	r24, r20
    3670:	ba f0       	brmi	.+46     	; 0x36a0 <__addsf3x+0x98>
    3672:	91 50       	subi	r25, 0x01	; 1
    3674:	a1 f0       	breq	.+40     	; 0x369e <__addsf3x+0x96>
    3676:	ff 0f       	add	r31, r31
    3678:	bb 1f       	adc	r27, r27
    367a:	66 1f       	adc	r22, r22
    367c:	77 1f       	adc	r23, r23
    367e:	88 1f       	adc	r24, r24
    3680:	c2 f7       	brpl	.-16     	; 0x3672 <__addsf3x+0x6a>
    3682:	0e c0       	rjmp	.+28     	; 0x36a0 <__addsf3x+0x98>
    3684:	ba 0f       	add	r27, r26
    3686:	62 1f       	adc	r22, r18
    3688:	73 1f       	adc	r23, r19
    368a:	84 1f       	adc	r24, r20
    368c:	48 f4       	brcc	.+18     	; 0x36a0 <__addsf3x+0x98>
    368e:	87 95       	ror	r24
    3690:	77 95       	ror	r23
    3692:	67 95       	ror	r22
    3694:	b7 95       	ror	r27
    3696:	f7 95       	ror	r31
    3698:	9e 3f       	cpi	r25, 0xFE	; 254
    369a:	08 f0       	brcs	.+2      	; 0x369e <__addsf3x+0x96>
    369c:	b3 cf       	rjmp	.-154    	; 0x3604 <__addsf3+0x1e>
    369e:	93 95       	inc	r25
    36a0:	88 0f       	add	r24, r24
    36a2:	08 f0       	brcs	.+2      	; 0x36a6 <__addsf3x+0x9e>
    36a4:	99 27       	eor	r25, r25
    36a6:	ee 0f       	add	r30, r30
    36a8:	97 95       	ror	r25
    36aa:	87 95       	ror	r24
    36ac:	08 95       	ret

000036ae <__fp_mpack>:
    36ae:	9f 3f       	cpi	r25, 0xFF	; 255
    36b0:	31 f0       	breq	.+12     	; 0x36be <__fp_mpack_finite+0xc>

000036b2 <__fp_mpack_finite>:
    36b2:	91 50       	subi	r25, 0x01	; 1
    36b4:	20 f4       	brcc	.+8      	; 0x36be <__fp_mpack_finite+0xc>
    36b6:	87 95       	ror	r24
    36b8:	77 95       	ror	r23
    36ba:	67 95       	ror	r22
    36bc:	b7 95       	ror	r27
    36be:	88 0f       	add	r24, r24
    36c0:	91 1d       	adc	r25, r1
    36c2:	96 95       	lsr	r25
    36c4:	87 95       	ror	r24
    36c6:	97 f9       	bld	r25, 7
    36c8:	08 95       	ret

000036ca <__fp_norm2>:
    36ca:	91 50       	subi	r25, 0x01	; 1
    36cc:	50 40       	sbci	r21, 0x00	; 0
    36ce:	66 0f       	add	r22, r22
    36d0:	77 1f       	adc	r23, r23
    36d2:	88 1f       	adc	r24, r24
    36d4:	d2 f7       	brpl	.-12     	; 0x36ca <__fp_norm2>
    36d6:	08 95       	ret

000036d8 <vfprintf>:
    36d8:	a3 e1       	ldi	r26, 0x13	; 19
    36da:	b0 e0       	ldi	r27, 0x00	; 0
    36dc:	e2 e7       	ldi	r30, 0x72	; 114
    36de:	fb e1       	ldi	r31, 0x1B	; 27
    36e0:	0c 94 67 20 	jmp	0x40ce	; 0x40ce <__prologue_saves__>
    36e4:	7c 01       	movw	r14, r24
    36e6:	1b 01       	movw	r2, r22
    36e8:	6a 01       	movw	r12, r20
    36ea:	fc 01       	movw	r30, r24
    36ec:	17 82       	std	Z+7, r1	; 0x07
    36ee:	16 82       	std	Z+6, r1	; 0x06
    36f0:	83 81       	ldd	r24, Z+3	; 0x03
    36f2:	81 ff       	sbrs	r24, 1
    36f4:	66 c3       	rjmp	.+1740   	; 0x3dc2 <vfprintf+0x6ea>
    36f6:	be 01       	movw	r22, r28
    36f8:	6f 5f       	subi	r22, 0xFF	; 255
    36fa:	7f 4f       	sbci	r23, 0xFF	; 255
    36fc:	4b 01       	movw	r8, r22
    36fe:	f7 01       	movw	r30, r14
    3700:	93 81       	ldd	r25, Z+3	; 0x03
    3702:	f1 01       	movw	r30, r2
    3704:	93 fd       	sbrc	r25, 3
    3706:	85 91       	lpm	r24, Z+
    3708:	93 ff       	sbrs	r25, 3
    370a:	81 91       	ld	r24, Z+
    370c:	1f 01       	movw	r2, r30
    370e:	88 23       	and	r24, r24
    3710:	09 f4       	brne	.+2      	; 0x3714 <vfprintf+0x3c>
    3712:	53 c3       	rjmp	.+1702   	; 0x3dba <vfprintf+0x6e2>
    3714:	85 32       	cpi	r24, 0x25	; 37
    3716:	39 f4       	brne	.+14     	; 0x3726 <vfprintf+0x4e>
    3718:	93 fd       	sbrc	r25, 3
    371a:	85 91       	lpm	r24, Z+
    371c:	93 ff       	sbrs	r25, 3
    371e:	81 91       	ld	r24, Z+
    3720:	1f 01       	movw	r2, r30
    3722:	85 32       	cpi	r24, 0x25	; 37
    3724:	39 f4       	brne	.+14     	; 0x3734 <vfprintf+0x5c>
    3726:	b7 01       	movw	r22, r14
    3728:	90 e0       	ldi	r25, 0x00	; 0
    372a:	0e 94 d6 22 	call	0x45ac	; 0x45ac <fputc>
    372e:	56 01       	movw	r10, r12
    3730:	65 01       	movw	r12, r10
    3732:	e5 cf       	rjmp	.-54     	; 0x36fe <vfprintf+0x26>
    3734:	10 e0       	ldi	r17, 0x00	; 0
    3736:	51 2c       	mov	r5, r1
    3738:	20 e0       	ldi	r18, 0x00	; 0
    373a:	20 32       	cpi	r18, 0x20	; 32
    373c:	a0 f4       	brcc	.+40     	; 0x3766 <vfprintf+0x8e>
    373e:	8b 32       	cpi	r24, 0x2B	; 43
    3740:	69 f0       	breq	.+26     	; 0x375c <vfprintf+0x84>
    3742:	30 f4       	brcc	.+12     	; 0x3750 <vfprintf+0x78>
    3744:	80 32       	cpi	r24, 0x20	; 32
    3746:	59 f0       	breq	.+22     	; 0x375e <vfprintf+0x86>
    3748:	83 32       	cpi	r24, 0x23	; 35
    374a:	69 f4       	brne	.+26     	; 0x3766 <vfprintf+0x8e>
    374c:	20 61       	ori	r18, 0x10	; 16
    374e:	2c c0       	rjmp	.+88     	; 0x37a8 <vfprintf+0xd0>
    3750:	8d 32       	cpi	r24, 0x2D	; 45
    3752:	39 f0       	breq	.+14     	; 0x3762 <vfprintf+0x8a>
    3754:	80 33       	cpi	r24, 0x30	; 48
    3756:	39 f4       	brne	.+14     	; 0x3766 <vfprintf+0x8e>
    3758:	21 60       	ori	r18, 0x01	; 1
    375a:	26 c0       	rjmp	.+76     	; 0x37a8 <vfprintf+0xd0>
    375c:	22 60       	ori	r18, 0x02	; 2
    375e:	24 60       	ori	r18, 0x04	; 4
    3760:	23 c0       	rjmp	.+70     	; 0x37a8 <vfprintf+0xd0>
    3762:	28 60       	ori	r18, 0x08	; 8
    3764:	21 c0       	rjmp	.+66     	; 0x37a8 <vfprintf+0xd0>
    3766:	27 fd       	sbrc	r18, 7
    3768:	27 c0       	rjmp	.+78     	; 0x37b8 <vfprintf+0xe0>
    376a:	30 ed       	ldi	r19, 0xD0	; 208
    376c:	38 0f       	add	r19, r24
    376e:	3a 30       	cpi	r19, 0x0A	; 10
    3770:	78 f4       	brcc	.+30     	; 0x3790 <vfprintf+0xb8>
    3772:	26 ff       	sbrs	r18, 6
    3774:	06 c0       	rjmp	.+12     	; 0x3782 <vfprintf+0xaa>
    3776:	fa e0       	ldi	r31, 0x0A	; 10
    3778:	1f 9f       	mul	r17, r31
    377a:	30 0d       	add	r19, r0
    377c:	11 24       	eor	r1, r1
    377e:	13 2f       	mov	r17, r19
    3780:	13 c0       	rjmp	.+38     	; 0x37a8 <vfprintf+0xd0>
    3782:	6a e0       	ldi	r22, 0x0A	; 10
    3784:	56 9e       	mul	r5, r22
    3786:	30 0d       	add	r19, r0
    3788:	11 24       	eor	r1, r1
    378a:	53 2e       	mov	r5, r19
    378c:	20 62       	ori	r18, 0x20	; 32
    378e:	0c c0       	rjmp	.+24     	; 0x37a8 <vfprintf+0xd0>
    3790:	8e 32       	cpi	r24, 0x2E	; 46
    3792:	21 f4       	brne	.+8      	; 0x379c <vfprintf+0xc4>
    3794:	26 fd       	sbrc	r18, 6
    3796:	11 c3       	rjmp	.+1570   	; 0x3dba <vfprintf+0x6e2>
    3798:	20 64       	ori	r18, 0x40	; 64
    379a:	06 c0       	rjmp	.+12     	; 0x37a8 <vfprintf+0xd0>
    379c:	8c 36       	cpi	r24, 0x6C	; 108
    379e:	11 f4       	brne	.+4      	; 0x37a4 <vfprintf+0xcc>
    37a0:	20 68       	ori	r18, 0x80	; 128
    37a2:	02 c0       	rjmp	.+4      	; 0x37a8 <vfprintf+0xd0>
    37a4:	88 36       	cpi	r24, 0x68	; 104
    37a6:	41 f4       	brne	.+16     	; 0x37b8 <vfprintf+0xe0>
    37a8:	f1 01       	movw	r30, r2
    37aa:	93 fd       	sbrc	r25, 3
    37ac:	85 91       	lpm	r24, Z+
    37ae:	93 ff       	sbrs	r25, 3
    37b0:	81 91       	ld	r24, Z+
    37b2:	1f 01       	movw	r2, r30
    37b4:	81 11       	cpse	r24, r1
    37b6:	c1 cf       	rjmp	.-126    	; 0x373a <vfprintf+0x62>
    37b8:	9b eb       	ldi	r25, 0xBB	; 187
    37ba:	98 0f       	add	r25, r24
    37bc:	93 30       	cpi	r25, 0x03	; 3
    37be:	18 f4       	brcc	.+6      	; 0x37c6 <vfprintf+0xee>
    37c0:	20 61       	ori	r18, 0x10	; 16
    37c2:	80 5e       	subi	r24, 0xE0	; 224
    37c4:	06 c0       	rjmp	.+12     	; 0x37d2 <vfprintf+0xfa>
    37c6:	9b e9       	ldi	r25, 0x9B	; 155
    37c8:	98 0f       	add	r25, r24
    37ca:	93 30       	cpi	r25, 0x03	; 3
    37cc:	08 f0       	brcs	.+2      	; 0x37d0 <vfprintf+0xf8>
    37ce:	aa c1       	rjmp	.+852    	; 0x3b24 <vfprintf+0x44c>
    37d0:	2f 7e       	andi	r18, 0xEF	; 239
    37d2:	26 ff       	sbrs	r18, 6
    37d4:	16 e0       	ldi	r17, 0x06	; 6
    37d6:	2f 73       	andi	r18, 0x3F	; 63
    37d8:	72 2e       	mov	r7, r18
    37da:	85 36       	cpi	r24, 0x65	; 101
    37dc:	21 f4       	brne	.+8      	; 0x37e6 <vfprintf+0x10e>
    37de:	f2 2f       	mov	r31, r18
    37e0:	f0 64       	ori	r31, 0x40	; 64
    37e2:	7f 2e       	mov	r7, r31
    37e4:	08 c0       	rjmp	.+16     	; 0x37f6 <vfprintf+0x11e>
    37e6:	86 36       	cpi	r24, 0x66	; 102
    37e8:	21 f4       	brne	.+8      	; 0x37f2 <vfprintf+0x11a>
    37ea:	62 2f       	mov	r22, r18
    37ec:	60 68       	ori	r22, 0x80	; 128
    37ee:	76 2e       	mov	r7, r22
    37f0:	02 c0       	rjmp	.+4      	; 0x37f6 <vfprintf+0x11e>
    37f2:	11 11       	cpse	r17, r1
    37f4:	11 50       	subi	r17, 0x01	; 1
    37f6:	77 fe       	sbrs	r7, 7
    37f8:	07 c0       	rjmp	.+14     	; 0x3808 <vfprintf+0x130>
    37fa:	1c 33       	cpi	r17, 0x3C	; 60
    37fc:	48 f4       	brcc	.+18     	; 0x3810 <vfprintf+0x138>
    37fe:	44 24       	eor	r4, r4
    3800:	43 94       	inc	r4
    3802:	41 0e       	add	r4, r17
    3804:	27 e0       	ldi	r18, 0x07	; 7
    3806:	0b c0       	rjmp	.+22     	; 0x381e <vfprintf+0x146>
    3808:	18 30       	cpi	r17, 0x08	; 8
    380a:	30 f4       	brcc	.+12     	; 0x3818 <vfprintf+0x140>
    380c:	21 2f       	mov	r18, r17
    380e:	06 c0       	rjmp	.+12     	; 0x381c <vfprintf+0x144>
    3810:	27 e0       	ldi	r18, 0x07	; 7
    3812:	4c e3       	ldi	r20, 0x3C	; 60
    3814:	44 2e       	mov	r4, r20
    3816:	03 c0       	rjmp	.+6      	; 0x381e <vfprintf+0x146>
    3818:	27 e0       	ldi	r18, 0x07	; 7
    381a:	17 e0       	ldi	r17, 0x07	; 7
    381c:	41 2c       	mov	r4, r1
    381e:	56 01       	movw	r10, r12
    3820:	74 e0       	ldi	r23, 0x04	; 4
    3822:	a7 0e       	add	r10, r23
    3824:	b1 1c       	adc	r11, r1
    3826:	f6 01       	movw	r30, r12
    3828:	60 81       	ld	r22, Z
    382a:	71 81       	ldd	r23, Z+1	; 0x01
    382c:	82 81       	ldd	r24, Z+2	; 0x02
    382e:	93 81       	ldd	r25, Z+3	; 0x03
    3830:	04 2d       	mov	r16, r4
    3832:	a4 01       	movw	r20, r8
    3834:	0e 94 e8 21 	call	0x43d0	; 0x43d0 <__ftoa_engine>
    3838:	6c 01       	movw	r12, r24
    383a:	09 81       	ldd	r16, Y+1	; 0x01
    383c:	00 ff       	sbrs	r16, 0
    383e:	02 c0       	rjmp	.+4      	; 0x3844 <vfprintf+0x16c>
    3840:	03 ff       	sbrs	r16, 3
    3842:	06 c0       	rjmp	.+12     	; 0x3850 <vfprintf+0x178>
    3844:	71 fc       	sbrc	r7, 1
    3846:	07 c0       	rjmp	.+14     	; 0x3856 <vfprintf+0x17e>
    3848:	72 fc       	sbrc	r7, 2
    384a:	08 c0       	rjmp	.+16     	; 0x385c <vfprintf+0x184>
    384c:	61 2c       	mov	r6, r1
    384e:	08 c0       	rjmp	.+16     	; 0x3860 <vfprintf+0x188>
    3850:	3d e2       	ldi	r19, 0x2D	; 45
    3852:	63 2e       	mov	r6, r19
    3854:	05 c0       	rjmp	.+10     	; 0x3860 <vfprintf+0x188>
    3856:	2b e2       	ldi	r18, 0x2B	; 43
    3858:	62 2e       	mov	r6, r18
    385a:	02 c0       	rjmp	.+4      	; 0x3860 <vfprintf+0x188>
    385c:	90 e2       	ldi	r25, 0x20	; 32
    385e:	69 2e       	mov	r6, r25
    3860:	80 2f       	mov	r24, r16
    3862:	8c 70       	andi	r24, 0x0C	; 12
    3864:	99 f1       	breq	.+102    	; 0x38cc <vfprintf+0x1f4>
    3866:	66 20       	and	r6, r6
    3868:	11 f0       	breq	.+4      	; 0x386e <vfprintf+0x196>
    386a:	84 e0       	ldi	r24, 0x04	; 4
    386c:	01 c0       	rjmp	.+2      	; 0x3870 <vfprintf+0x198>
    386e:	83 e0       	ldi	r24, 0x03	; 3
    3870:	85 15       	cp	r24, r5
    3872:	10 f0       	brcs	.+4      	; 0x3878 <vfprintf+0x1a0>
    3874:	51 2c       	mov	r5, r1
    3876:	0b c0       	rjmp	.+22     	; 0x388e <vfprintf+0x1b6>
    3878:	58 1a       	sub	r5, r24
    387a:	73 fc       	sbrc	r7, 3
    387c:	08 c0       	rjmp	.+16     	; 0x388e <vfprintf+0x1b6>
    387e:	b7 01       	movw	r22, r14
    3880:	80 e2       	ldi	r24, 0x20	; 32
    3882:	90 e0       	ldi	r25, 0x00	; 0
    3884:	0e 94 d6 22 	call	0x45ac	; 0x45ac <fputc>
    3888:	5a 94       	dec	r5
    388a:	c9 f7       	brne	.-14     	; 0x387e <vfprintf+0x1a6>
    388c:	f3 cf       	rjmp	.-26     	; 0x3874 <vfprintf+0x19c>
    388e:	66 20       	and	r6, r6
    3890:	29 f0       	breq	.+10     	; 0x389c <vfprintf+0x1c4>
    3892:	b7 01       	movw	r22, r14
    3894:	86 2d       	mov	r24, r6
    3896:	90 e0       	ldi	r25, 0x00	; 0
    3898:	0e 94 d6 22 	call	0x45ac	; 0x45ac <fputc>
    389c:	03 fd       	sbrc	r16, 3
    389e:	03 c0       	rjmp	.+6      	; 0x38a6 <vfprintf+0x1ce>
    38a0:	01 e9       	ldi	r16, 0x91	; 145
    38a2:	15 e0       	ldi	r17, 0x05	; 5
    38a4:	02 c0       	rjmp	.+4      	; 0x38aa <vfprintf+0x1d2>
    38a6:	0d e8       	ldi	r16, 0x8D	; 141
    38a8:	15 e0       	ldi	r17, 0x05	; 5
    38aa:	f7 2d       	mov	r31, r7
    38ac:	f0 71       	andi	r31, 0x10	; 16
    38ae:	7f 2e       	mov	r7, r31
    38b0:	f8 01       	movw	r30, r16
    38b2:	84 91       	lpm	r24, Z
    38b4:	88 23       	and	r24, r24
    38b6:	09 f4       	brne	.+2      	; 0x38ba <vfprintf+0x1e2>
    38b8:	76 c2       	rjmp	.+1260   	; 0x3da6 <vfprintf+0x6ce>
    38ba:	71 10       	cpse	r7, r1
    38bc:	80 52       	subi	r24, 0x20	; 32
    38be:	b7 01       	movw	r22, r14
    38c0:	90 e0       	ldi	r25, 0x00	; 0
    38c2:	0e 94 d6 22 	call	0x45ac	; 0x45ac <fputc>
    38c6:	0f 5f       	subi	r16, 0xFF	; 255
    38c8:	1f 4f       	sbci	r17, 0xFF	; 255
    38ca:	f2 cf       	rjmp	.-28     	; 0x38b0 <vfprintf+0x1d8>
    38cc:	77 fe       	sbrs	r7, 7
    38ce:	0f c0       	rjmp	.+30     	; 0x38ee <vfprintf+0x216>
    38d0:	4c 0c       	add	r4, r12
    38d2:	04 ff       	sbrs	r16, 4
    38d4:	04 c0       	rjmp	.+8      	; 0x38de <vfprintf+0x206>
    38d6:	8a 81       	ldd	r24, Y+2	; 0x02
    38d8:	81 33       	cpi	r24, 0x31	; 49
    38da:	09 f4       	brne	.+2      	; 0x38de <vfprintf+0x206>
    38dc:	4a 94       	dec	r4
    38de:	14 14       	cp	r1, r4
    38e0:	74 f5       	brge	.+92     	; 0x393e <vfprintf+0x266>
    38e2:	f8 e0       	ldi	r31, 0x08	; 8
    38e4:	f4 15       	cp	r31, r4
    38e6:	78 f5       	brcc	.+94     	; 0x3946 <vfprintf+0x26e>
    38e8:	88 e0       	ldi	r24, 0x08	; 8
    38ea:	48 2e       	mov	r4, r24
    38ec:	2c c0       	rjmp	.+88     	; 0x3946 <vfprintf+0x26e>
    38ee:	76 fc       	sbrc	r7, 6
    38f0:	2a c0       	rjmp	.+84     	; 0x3946 <vfprintf+0x26e>
    38f2:	81 2f       	mov	r24, r17
    38f4:	90 e0       	ldi	r25, 0x00	; 0
    38f6:	8c 15       	cp	r24, r12
    38f8:	9d 05       	cpc	r25, r13
    38fa:	9c f0       	brlt	.+38     	; 0x3922 <vfprintf+0x24a>
    38fc:	6c ef       	ldi	r22, 0xFC	; 252
    38fe:	c6 16       	cp	r12, r22
    3900:	6f ef       	ldi	r22, 0xFF	; 255
    3902:	d6 06       	cpc	r13, r22
    3904:	74 f0       	brlt	.+28     	; 0x3922 <vfprintf+0x24a>
    3906:	77 2d       	mov	r23, r7
    3908:	70 68       	ori	r23, 0x80	; 128
    390a:	77 2e       	mov	r7, r23
    390c:	0a c0       	rjmp	.+20     	; 0x3922 <vfprintf+0x24a>
    390e:	e2 e0       	ldi	r30, 0x02	; 2
    3910:	f0 e0       	ldi	r31, 0x00	; 0
    3912:	ec 0f       	add	r30, r28
    3914:	fd 1f       	adc	r31, r29
    3916:	e1 0f       	add	r30, r17
    3918:	f1 1d       	adc	r31, r1
    391a:	80 81       	ld	r24, Z
    391c:	80 33       	cpi	r24, 0x30	; 48
    391e:	19 f4       	brne	.+6      	; 0x3926 <vfprintf+0x24e>
    3920:	11 50       	subi	r17, 0x01	; 1
    3922:	11 11       	cpse	r17, r1
    3924:	f4 cf       	rjmp	.-24     	; 0x390e <vfprintf+0x236>
    3926:	77 fe       	sbrs	r7, 7
    3928:	0e c0       	rjmp	.+28     	; 0x3946 <vfprintf+0x26e>
    392a:	44 24       	eor	r4, r4
    392c:	43 94       	inc	r4
    392e:	41 0e       	add	r4, r17
    3930:	81 2f       	mov	r24, r17
    3932:	90 e0       	ldi	r25, 0x00	; 0
    3934:	c8 16       	cp	r12, r24
    3936:	d9 06       	cpc	r13, r25
    3938:	2c f4       	brge	.+10     	; 0x3944 <vfprintf+0x26c>
    393a:	1c 19       	sub	r17, r12
    393c:	04 c0       	rjmp	.+8      	; 0x3946 <vfprintf+0x26e>
    393e:	44 24       	eor	r4, r4
    3940:	43 94       	inc	r4
    3942:	01 c0       	rjmp	.+2      	; 0x3946 <vfprintf+0x26e>
    3944:	10 e0       	ldi	r17, 0x00	; 0
    3946:	77 fe       	sbrs	r7, 7
    3948:	07 c0       	rjmp	.+14     	; 0x3958 <vfprintf+0x280>
    394a:	1c 14       	cp	r1, r12
    394c:	1d 04       	cpc	r1, r13
    394e:	3c f4       	brge	.+14     	; 0x395e <vfprintf+0x286>
    3950:	96 01       	movw	r18, r12
    3952:	2f 5f       	subi	r18, 0xFF	; 255
    3954:	3f 4f       	sbci	r19, 0xFF	; 255
    3956:	05 c0       	rjmp	.+10     	; 0x3962 <vfprintf+0x28a>
    3958:	25 e0       	ldi	r18, 0x05	; 5
    395a:	30 e0       	ldi	r19, 0x00	; 0
    395c:	02 c0       	rjmp	.+4      	; 0x3962 <vfprintf+0x28a>
    395e:	21 e0       	ldi	r18, 0x01	; 1
    3960:	30 e0       	ldi	r19, 0x00	; 0
    3962:	66 20       	and	r6, r6
    3964:	11 f0       	breq	.+4      	; 0x396a <vfprintf+0x292>
    3966:	2f 5f       	subi	r18, 0xFF	; 255
    3968:	3f 4f       	sbci	r19, 0xFF	; 255
    396a:	11 23       	and	r17, r17
    396c:	31 f0       	breq	.+12     	; 0x397a <vfprintf+0x2a2>
    396e:	41 2f       	mov	r20, r17
    3970:	50 e0       	ldi	r21, 0x00	; 0
    3972:	4f 5f       	subi	r20, 0xFF	; 255
    3974:	5f 4f       	sbci	r21, 0xFF	; 255
    3976:	24 0f       	add	r18, r20
    3978:	35 1f       	adc	r19, r21
    397a:	45 2d       	mov	r20, r5
    397c:	50 e0       	ldi	r21, 0x00	; 0
    397e:	24 17       	cp	r18, r20
    3980:	35 07       	cpc	r19, r21
    3982:	14 f4       	brge	.+4      	; 0x3988 <vfprintf+0x2b0>
    3984:	52 1a       	sub	r5, r18
    3986:	01 c0       	rjmp	.+2      	; 0x398a <vfprintf+0x2b2>
    3988:	51 2c       	mov	r5, r1
    398a:	87 2d       	mov	r24, r7
    398c:	89 70       	andi	r24, 0x09	; 9
    398e:	49 f4       	brne	.+18     	; 0x39a2 <vfprintf+0x2ca>
    3990:	55 20       	and	r5, r5
    3992:	39 f0       	breq	.+14     	; 0x39a2 <vfprintf+0x2ca>
    3994:	b7 01       	movw	r22, r14
    3996:	80 e2       	ldi	r24, 0x20	; 32
    3998:	90 e0       	ldi	r25, 0x00	; 0
    399a:	0e 94 d6 22 	call	0x45ac	; 0x45ac <fputc>
    399e:	5a 94       	dec	r5
    39a0:	f7 cf       	rjmp	.-18     	; 0x3990 <vfprintf+0x2b8>
    39a2:	66 20       	and	r6, r6
    39a4:	29 f0       	breq	.+10     	; 0x39b0 <vfprintf+0x2d8>
    39a6:	b7 01       	movw	r22, r14
    39a8:	86 2d       	mov	r24, r6
    39aa:	90 e0       	ldi	r25, 0x00	; 0
    39ac:	0e 94 d6 22 	call	0x45ac	; 0x45ac <fputc>
    39b0:	73 fc       	sbrc	r7, 3
    39b2:	09 c0       	rjmp	.+18     	; 0x39c6 <vfprintf+0x2ee>
    39b4:	55 20       	and	r5, r5
    39b6:	39 f0       	breq	.+14     	; 0x39c6 <vfprintf+0x2ee>
    39b8:	b7 01       	movw	r22, r14
    39ba:	80 e3       	ldi	r24, 0x30	; 48
    39bc:	90 e0       	ldi	r25, 0x00	; 0
    39be:	0e 94 d6 22 	call	0x45ac	; 0x45ac <fputc>
    39c2:	5a 94       	dec	r5
    39c4:	f7 cf       	rjmp	.-18     	; 0x39b4 <vfprintf+0x2dc>
    39c6:	77 fe       	sbrs	r7, 7
    39c8:	5f c0       	rjmp	.+190    	; 0x3a88 <vfprintf+0x3b0>
    39ca:	9c 2d       	mov	r25, r12
    39cc:	8d 2d       	mov	r24, r13
    39ce:	d7 fe       	sbrs	r13, 7
    39d0:	02 c0       	rjmp	.+4      	; 0x39d6 <vfprintf+0x2fe>
    39d2:	90 e0       	ldi	r25, 0x00	; 0
    39d4:	80 e0       	ldi	r24, 0x00	; 0
    39d6:	69 2e       	mov	r6, r25
    39d8:	78 2e       	mov	r7, r24
    39da:	40 e0       	ldi	r20, 0x00	; 0
    39dc:	50 e0       	ldi	r21, 0x00	; 0
    39de:	c6 01       	movw	r24, r12
    39e0:	84 19       	sub	r24, r4
    39e2:	91 09       	sbc	r25, r1
    39e4:	9d 87       	std	Y+13, r25	; 0x0d
    39e6:	8c 87       	std	Y+12, r24	; 0x0c
    39e8:	96 01       	movw	r18, r12
    39ea:	26 19       	sub	r18, r6
    39ec:	37 09       	sbc	r19, r7
    39ee:	28 0d       	add	r18, r8
    39f0:	39 1d       	adc	r19, r9
    39f2:	81 2f       	mov	r24, r17
    39f4:	90 e0       	ldi	r25, 0x00	; 0
    39f6:	ee 27       	eor	r30, r30
    39f8:	ff 27       	eor	r31, r31
    39fa:	e8 1b       	sub	r30, r24
    39fc:	f9 0b       	sbc	r31, r25
    39fe:	ff 87       	std	Y+15, r31	; 0x0f
    3a00:	ee 87       	std	Y+14, r30	; 0x0e
    3a02:	ff ef       	ldi	r31, 0xFF	; 255
    3a04:	6f 16       	cp	r6, r31
    3a06:	7f 06       	cpc	r7, r31
    3a08:	69 f4       	brne	.+26     	; 0x3a24 <vfprintf+0x34c>
    3a0a:	b7 01       	movw	r22, r14
    3a0c:	8e e2       	ldi	r24, 0x2E	; 46
    3a0e:	90 e0       	ldi	r25, 0x00	; 0
    3a10:	2b 8b       	std	Y+19, r18	; 0x13
    3a12:	3a 8b       	std	Y+18, r19	; 0x12
    3a14:	48 8b       	std	Y+16, r20	; 0x10
    3a16:	59 8b       	std	Y+17, r21	; 0x11
    3a18:	0e 94 d6 22 	call	0x45ac	; 0x45ac <fputc>
    3a1c:	59 89       	ldd	r21, Y+17	; 0x11
    3a1e:	48 89       	ldd	r20, Y+16	; 0x10
    3a20:	3a 89       	ldd	r19, Y+18	; 0x12
    3a22:	2b 89       	ldd	r18, Y+19	; 0x13
    3a24:	c6 14       	cp	r12, r6
    3a26:	d7 04       	cpc	r13, r7
    3a28:	54 f0       	brlt	.+20     	; 0x3a3e <vfprintf+0x366>
    3a2a:	6c 85       	ldd	r22, Y+12	; 0x0c
    3a2c:	7d 85       	ldd	r23, Y+13	; 0x0d
    3a2e:	66 15       	cp	r22, r6
    3a30:	77 05       	cpc	r23, r7
    3a32:	2c f4       	brge	.+10     	; 0x3a3e <vfprintf+0x366>
    3a34:	f9 01       	movw	r30, r18
    3a36:	e4 0f       	add	r30, r20
    3a38:	f5 1f       	adc	r31, r21
    3a3a:	81 81       	ldd	r24, Z+1	; 0x01
    3a3c:	01 c0       	rjmp	.+2      	; 0x3a40 <vfprintf+0x368>
    3a3e:	80 e3       	ldi	r24, 0x30	; 48
    3a40:	71 e0       	ldi	r23, 0x01	; 1
    3a42:	67 1a       	sub	r6, r23
    3a44:	71 08       	sbc	r7, r1
    3a46:	4f 5f       	subi	r20, 0xFF	; 255
    3a48:	5f 4f       	sbci	r21, 0xFF	; 255
    3a4a:	ee 85       	ldd	r30, Y+14	; 0x0e
    3a4c:	ff 85       	ldd	r31, Y+15	; 0x0f
    3a4e:	6e 16       	cp	r6, r30
    3a50:	7f 06       	cpc	r7, r31
    3a52:	6c f0       	brlt	.+26     	; 0x3a6e <vfprintf+0x396>
    3a54:	b7 01       	movw	r22, r14
    3a56:	90 e0       	ldi	r25, 0x00	; 0
    3a58:	2b 8b       	std	Y+19, r18	; 0x13
    3a5a:	3a 8b       	std	Y+18, r19	; 0x12
    3a5c:	48 8b       	std	Y+16, r20	; 0x10
    3a5e:	59 8b       	std	Y+17, r21	; 0x11
    3a60:	0e 94 d6 22 	call	0x45ac	; 0x45ac <fputc>
    3a64:	2b 89       	ldd	r18, Y+19	; 0x13
    3a66:	3a 89       	ldd	r19, Y+18	; 0x12
    3a68:	48 89       	ldd	r20, Y+16	; 0x10
    3a6a:	59 89       	ldd	r21, Y+17	; 0x11
    3a6c:	ca cf       	rjmp	.-108    	; 0x3a02 <vfprintf+0x32a>
    3a6e:	6c 14       	cp	r6, r12
    3a70:	7d 04       	cpc	r7, r13
    3a72:	39 f4       	brne	.+14     	; 0x3a82 <vfprintf+0x3aa>
    3a74:	9a 81       	ldd	r25, Y+2	; 0x02
    3a76:	96 33       	cpi	r25, 0x36	; 54
    3a78:	18 f4       	brcc	.+6      	; 0x3a80 <vfprintf+0x3a8>
    3a7a:	95 33       	cpi	r25, 0x35	; 53
    3a7c:	11 f4       	brne	.+4      	; 0x3a82 <vfprintf+0x3aa>
    3a7e:	04 ff       	sbrs	r16, 4
    3a80:	81 e3       	ldi	r24, 0x31	; 49
    3a82:	b7 01       	movw	r22, r14
    3a84:	90 e0       	ldi	r25, 0x00	; 0
    3a86:	4b c0       	rjmp	.+150    	; 0x3b1e <vfprintf+0x446>
    3a88:	8a 81       	ldd	r24, Y+2	; 0x02
    3a8a:	81 33       	cpi	r24, 0x31	; 49
    3a8c:	09 f0       	breq	.+2      	; 0x3a90 <vfprintf+0x3b8>
    3a8e:	0f 7e       	andi	r16, 0xEF	; 239
    3a90:	b7 01       	movw	r22, r14
    3a92:	90 e0       	ldi	r25, 0x00	; 0
    3a94:	0e 94 d6 22 	call	0x45ac	; 0x45ac <fputc>
    3a98:	11 11       	cpse	r17, r1
    3a9a:	05 c0       	rjmp	.+10     	; 0x3aa6 <vfprintf+0x3ce>
    3a9c:	74 fe       	sbrs	r7, 4
    3a9e:	18 c0       	rjmp	.+48     	; 0x3ad0 <vfprintf+0x3f8>
    3aa0:	85 e4       	ldi	r24, 0x45	; 69
    3aa2:	90 e0       	ldi	r25, 0x00	; 0
    3aa4:	17 c0       	rjmp	.+46     	; 0x3ad4 <vfprintf+0x3fc>
    3aa6:	b7 01       	movw	r22, r14
    3aa8:	8e e2       	ldi	r24, 0x2E	; 46
    3aaa:	90 e0       	ldi	r25, 0x00	; 0
    3aac:	0e 94 d6 22 	call	0x45ac	; 0x45ac <fputc>
    3ab0:	82 e0       	ldi	r24, 0x02	; 2
    3ab2:	66 24       	eor	r6, r6
    3ab4:	63 94       	inc	r6
    3ab6:	68 0e       	add	r6, r24
    3ab8:	f4 01       	movw	r30, r8
    3aba:	e8 0f       	add	r30, r24
    3abc:	f1 1d       	adc	r31, r1
    3abe:	80 81       	ld	r24, Z
    3ac0:	b7 01       	movw	r22, r14
    3ac2:	90 e0       	ldi	r25, 0x00	; 0
    3ac4:	0e 94 d6 22 	call	0x45ac	; 0x45ac <fputc>
    3ac8:	11 50       	subi	r17, 0x01	; 1
    3aca:	41 f3       	breq	.-48     	; 0x3a9c <vfprintf+0x3c4>
    3acc:	86 2d       	mov	r24, r6
    3ace:	f1 cf       	rjmp	.-30     	; 0x3ab2 <vfprintf+0x3da>
    3ad0:	85 e6       	ldi	r24, 0x65	; 101
    3ad2:	90 e0       	ldi	r25, 0x00	; 0
    3ad4:	b7 01       	movw	r22, r14
    3ad6:	0e 94 d6 22 	call	0x45ac	; 0x45ac <fputc>
    3ada:	d7 fc       	sbrc	r13, 7
    3adc:	05 c0       	rjmp	.+10     	; 0x3ae8 <vfprintf+0x410>
    3ade:	c1 14       	cp	r12, r1
    3ae0:	d1 04       	cpc	r13, r1
    3ae2:	39 f4       	brne	.+14     	; 0x3af2 <vfprintf+0x41a>
    3ae4:	04 ff       	sbrs	r16, 4
    3ae6:	05 c0       	rjmp	.+10     	; 0x3af2 <vfprintf+0x41a>
    3ae8:	d1 94       	neg	r13
    3aea:	c1 94       	neg	r12
    3aec:	d1 08       	sbc	r13, r1
    3aee:	8d e2       	ldi	r24, 0x2D	; 45
    3af0:	01 c0       	rjmp	.+2      	; 0x3af4 <vfprintf+0x41c>
    3af2:	8b e2       	ldi	r24, 0x2B	; 43
    3af4:	b7 01       	movw	r22, r14
    3af6:	90 e0       	ldi	r25, 0x00	; 0
    3af8:	0e 94 d6 22 	call	0x45ac	; 0x45ac <fputc>
    3afc:	80 e3       	ldi	r24, 0x30	; 48
    3afe:	6a e0       	ldi	r22, 0x0A	; 10
    3b00:	c6 16       	cp	r12, r22
    3b02:	d1 04       	cpc	r13, r1
    3b04:	2c f0       	brlt	.+10     	; 0x3b10 <vfprintf+0x438>
    3b06:	8f 5f       	subi	r24, 0xFF	; 255
    3b08:	fa e0       	ldi	r31, 0x0A	; 10
    3b0a:	cf 1a       	sub	r12, r31
    3b0c:	d1 08       	sbc	r13, r1
    3b0e:	f7 cf       	rjmp	.-18     	; 0x3afe <vfprintf+0x426>
    3b10:	b7 01       	movw	r22, r14
    3b12:	90 e0       	ldi	r25, 0x00	; 0
    3b14:	0e 94 d6 22 	call	0x45ac	; 0x45ac <fputc>
    3b18:	b7 01       	movw	r22, r14
    3b1a:	c6 01       	movw	r24, r12
    3b1c:	c0 96       	adiw	r24, 0x30	; 48
    3b1e:	0e 94 d6 22 	call	0x45ac	; 0x45ac <fputc>
    3b22:	41 c1       	rjmp	.+642    	; 0x3da6 <vfprintf+0x6ce>
    3b24:	83 36       	cpi	r24, 0x63	; 99
    3b26:	31 f0       	breq	.+12     	; 0x3b34 <vfprintf+0x45c>
    3b28:	83 37       	cpi	r24, 0x73	; 115
    3b2a:	79 f0       	breq	.+30     	; 0x3b4a <vfprintf+0x472>
    3b2c:	83 35       	cpi	r24, 0x53	; 83
    3b2e:	09 f0       	breq	.+2      	; 0x3b32 <vfprintf+0x45a>
    3b30:	58 c0       	rjmp	.+176    	; 0x3be2 <vfprintf+0x50a>
    3b32:	21 c0       	rjmp	.+66     	; 0x3b76 <vfprintf+0x49e>
    3b34:	56 01       	movw	r10, r12
    3b36:	72 e0       	ldi	r23, 0x02	; 2
    3b38:	a7 0e       	add	r10, r23
    3b3a:	b1 1c       	adc	r11, r1
    3b3c:	f6 01       	movw	r30, r12
    3b3e:	80 81       	ld	r24, Z
    3b40:	89 83       	std	Y+1, r24	; 0x01
    3b42:	01 e0       	ldi	r16, 0x01	; 1
    3b44:	10 e0       	ldi	r17, 0x00	; 0
    3b46:	64 01       	movw	r12, r8
    3b48:	14 c0       	rjmp	.+40     	; 0x3b72 <vfprintf+0x49a>
    3b4a:	56 01       	movw	r10, r12
    3b4c:	f2 e0       	ldi	r31, 0x02	; 2
    3b4e:	af 0e       	add	r10, r31
    3b50:	b1 1c       	adc	r11, r1
    3b52:	f6 01       	movw	r30, r12
    3b54:	c0 80       	ld	r12, Z
    3b56:	d1 80       	ldd	r13, Z+1	; 0x01
    3b58:	26 ff       	sbrs	r18, 6
    3b5a:	03 c0       	rjmp	.+6      	; 0x3b62 <vfprintf+0x48a>
    3b5c:	61 2f       	mov	r22, r17
    3b5e:	70 e0       	ldi	r23, 0x00	; 0
    3b60:	02 c0       	rjmp	.+4      	; 0x3b66 <vfprintf+0x48e>
    3b62:	6f ef       	ldi	r22, 0xFF	; 255
    3b64:	7f ef       	ldi	r23, 0xFF	; 255
    3b66:	c6 01       	movw	r24, r12
    3b68:	2b 8b       	std	Y+19, r18	; 0x13
    3b6a:	0e 94 cb 22 	call	0x4596	; 0x4596 <strnlen>
    3b6e:	8c 01       	movw	r16, r24
    3b70:	2b 89       	ldd	r18, Y+19	; 0x13
    3b72:	2f 77       	andi	r18, 0x7F	; 127
    3b74:	15 c0       	rjmp	.+42     	; 0x3ba0 <vfprintf+0x4c8>
    3b76:	56 01       	movw	r10, r12
    3b78:	f2 e0       	ldi	r31, 0x02	; 2
    3b7a:	af 0e       	add	r10, r31
    3b7c:	b1 1c       	adc	r11, r1
    3b7e:	f6 01       	movw	r30, r12
    3b80:	c0 80       	ld	r12, Z
    3b82:	d1 80       	ldd	r13, Z+1	; 0x01
    3b84:	26 ff       	sbrs	r18, 6
    3b86:	03 c0       	rjmp	.+6      	; 0x3b8e <vfprintf+0x4b6>
    3b88:	61 2f       	mov	r22, r17
    3b8a:	70 e0       	ldi	r23, 0x00	; 0
    3b8c:	02 c0       	rjmp	.+4      	; 0x3b92 <vfprintf+0x4ba>
    3b8e:	6f ef       	ldi	r22, 0xFF	; 255
    3b90:	7f ef       	ldi	r23, 0xFF	; 255
    3b92:	c6 01       	movw	r24, r12
    3b94:	2b 8b       	std	Y+19, r18	; 0x13
    3b96:	0e 94 c0 22 	call	0x4580	; 0x4580 <strnlen_P>
    3b9a:	8c 01       	movw	r16, r24
    3b9c:	2b 89       	ldd	r18, Y+19	; 0x13
    3b9e:	20 68       	ori	r18, 0x80	; 128
    3ba0:	72 2e       	mov	r7, r18
    3ba2:	23 fd       	sbrc	r18, 3
    3ba4:	1a c0       	rjmp	.+52     	; 0x3bda <vfprintf+0x502>
    3ba6:	85 2d       	mov	r24, r5
    3ba8:	90 e0       	ldi	r25, 0x00	; 0
    3baa:	08 17       	cp	r16, r24
    3bac:	19 07       	cpc	r17, r25
    3bae:	a8 f4       	brcc	.+42     	; 0x3bda <vfprintf+0x502>
    3bb0:	b7 01       	movw	r22, r14
    3bb2:	80 e2       	ldi	r24, 0x20	; 32
    3bb4:	90 e0       	ldi	r25, 0x00	; 0
    3bb6:	0e 94 d6 22 	call	0x45ac	; 0x45ac <fputc>
    3bba:	5a 94       	dec	r5
    3bbc:	f4 cf       	rjmp	.-24     	; 0x3ba6 <vfprintf+0x4ce>
    3bbe:	f6 01       	movw	r30, r12
    3bc0:	77 fc       	sbrc	r7, 7
    3bc2:	85 91       	lpm	r24, Z+
    3bc4:	77 fe       	sbrs	r7, 7
    3bc6:	81 91       	ld	r24, Z+
    3bc8:	6f 01       	movw	r12, r30
    3bca:	b7 01       	movw	r22, r14
    3bcc:	90 e0       	ldi	r25, 0x00	; 0
    3bce:	0e 94 d6 22 	call	0x45ac	; 0x45ac <fputc>
    3bd2:	51 10       	cpse	r5, r1
    3bd4:	5a 94       	dec	r5
    3bd6:	01 50       	subi	r16, 0x01	; 1
    3bd8:	11 09       	sbc	r17, r1
    3bda:	01 15       	cp	r16, r1
    3bdc:	11 05       	cpc	r17, r1
    3bde:	79 f7       	brne	.-34     	; 0x3bbe <vfprintf+0x4e6>
    3be0:	e2 c0       	rjmp	.+452    	; 0x3da6 <vfprintf+0x6ce>
    3be2:	84 36       	cpi	r24, 0x64	; 100
    3be4:	11 f0       	breq	.+4      	; 0x3bea <vfprintf+0x512>
    3be6:	89 36       	cpi	r24, 0x69	; 105
    3be8:	51 f5       	brne	.+84     	; 0x3c3e <vfprintf+0x566>
    3bea:	56 01       	movw	r10, r12
    3bec:	27 ff       	sbrs	r18, 7
    3bee:	09 c0       	rjmp	.+18     	; 0x3c02 <vfprintf+0x52a>
    3bf0:	f4 e0       	ldi	r31, 0x04	; 4
    3bf2:	af 0e       	add	r10, r31
    3bf4:	b1 1c       	adc	r11, r1
    3bf6:	f6 01       	movw	r30, r12
    3bf8:	60 81       	ld	r22, Z
    3bfa:	71 81       	ldd	r23, Z+1	; 0x01
    3bfc:	82 81       	ldd	r24, Z+2	; 0x02
    3bfe:	93 81       	ldd	r25, Z+3	; 0x03
    3c00:	0a c0       	rjmp	.+20     	; 0x3c16 <vfprintf+0x53e>
    3c02:	f2 e0       	ldi	r31, 0x02	; 2
    3c04:	af 0e       	add	r10, r31
    3c06:	b1 1c       	adc	r11, r1
    3c08:	f6 01       	movw	r30, r12
    3c0a:	60 81       	ld	r22, Z
    3c0c:	71 81       	ldd	r23, Z+1	; 0x01
    3c0e:	88 27       	eor	r24, r24
    3c10:	77 fd       	sbrc	r23, 7
    3c12:	80 95       	com	r24
    3c14:	98 2f       	mov	r25, r24
    3c16:	02 2f       	mov	r16, r18
    3c18:	0f 76       	andi	r16, 0x6F	; 111
    3c1a:	97 ff       	sbrs	r25, 7
    3c1c:	08 c0       	rjmp	.+16     	; 0x3c2e <vfprintf+0x556>
    3c1e:	90 95       	com	r25
    3c20:	80 95       	com	r24
    3c22:	70 95       	com	r23
    3c24:	61 95       	neg	r22
    3c26:	7f 4f       	sbci	r23, 0xFF	; 255
    3c28:	8f 4f       	sbci	r24, 0xFF	; 255
    3c2a:	9f 4f       	sbci	r25, 0xFF	; 255
    3c2c:	00 68       	ori	r16, 0x80	; 128
    3c2e:	2a e0       	ldi	r18, 0x0A	; 10
    3c30:	30 e0       	ldi	r19, 0x00	; 0
    3c32:	a4 01       	movw	r20, r8
    3c34:	0e 94 1c 23 	call	0x4638	; 0x4638 <__ultoa_invert>
    3c38:	c8 2e       	mov	r12, r24
    3c3a:	c8 18       	sub	r12, r8
    3c3c:	3e c0       	rjmp	.+124    	; 0x3cba <vfprintf+0x5e2>
    3c3e:	02 2f       	mov	r16, r18
    3c40:	85 37       	cpi	r24, 0x75	; 117
    3c42:	21 f4       	brne	.+8      	; 0x3c4c <vfprintf+0x574>
    3c44:	0f 7e       	andi	r16, 0xEF	; 239
    3c46:	2a e0       	ldi	r18, 0x0A	; 10
    3c48:	30 e0       	ldi	r19, 0x00	; 0
    3c4a:	1d c0       	rjmp	.+58     	; 0x3c86 <vfprintf+0x5ae>
    3c4c:	09 7f       	andi	r16, 0xF9	; 249
    3c4e:	8f 36       	cpi	r24, 0x6F	; 111
    3c50:	91 f0       	breq	.+36     	; 0x3c76 <vfprintf+0x59e>
    3c52:	18 f4       	brcc	.+6      	; 0x3c5a <vfprintf+0x582>
    3c54:	88 35       	cpi	r24, 0x58	; 88
    3c56:	59 f0       	breq	.+22     	; 0x3c6e <vfprintf+0x596>
    3c58:	b0 c0       	rjmp	.+352    	; 0x3dba <vfprintf+0x6e2>
    3c5a:	80 37       	cpi	r24, 0x70	; 112
    3c5c:	19 f0       	breq	.+6      	; 0x3c64 <vfprintf+0x58c>
    3c5e:	88 37       	cpi	r24, 0x78	; 120
    3c60:	11 f0       	breq	.+4      	; 0x3c66 <vfprintf+0x58e>
    3c62:	ab c0       	rjmp	.+342    	; 0x3dba <vfprintf+0x6e2>
    3c64:	00 61       	ori	r16, 0x10	; 16
    3c66:	04 ff       	sbrs	r16, 4
    3c68:	09 c0       	rjmp	.+18     	; 0x3c7c <vfprintf+0x5a4>
    3c6a:	04 60       	ori	r16, 0x04	; 4
    3c6c:	07 c0       	rjmp	.+14     	; 0x3c7c <vfprintf+0x5a4>
    3c6e:	24 ff       	sbrs	r18, 4
    3c70:	08 c0       	rjmp	.+16     	; 0x3c82 <vfprintf+0x5aa>
    3c72:	06 60       	ori	r16, 0x06	; 6
    3c74:	06 c0       	rjmp	.+12     	; 0x3c82 <vfprintf+0x5aa>
    3c76:	28 e0       	ldi	r18, 0x08	; 8
    3c78:	30 e0       	ldi	r19, 0x00	; 0
    3c7a:	05 c0       	rjmp	.+10     	; 0x3c86 <vfprintf+0x5ae>
    3c7c:	20 e1       	ldi	r18, 0x10	; 16
    3c7e:	30 e0       	ldi	r19, 0x00	; 0
    3c80:	02 c0       	rjmp	.+4      	; 0x3c86 <vfprintf+0x5ae>
    3c82:	20 e1       	ldi	r18, 0x10	; 16
    3c84:	32 e0       	ldi	r19, 0x02	; 2
    3c86:	56 01       	movw	r10, r12
    3c88:	07 ff       	sbrs	r16, 7
    3c8a:	09 c0       	rjmp	.+18     	; 0x3c9e <vfprintf+0x5c6>
    3c8c:	f4 e0       	ldi	r31, 0x04	; 4
    3c8e:	af 0e       	add	r10, r31
    3c90:	b1 1c       	adc	r11, r1
    3c92:	f6 01       	movw	r30, r12
    3c94:	60 81       	ld	r22, Z
    3c96:	71 81       	ldd	r23, Z+1	; 0x01
    3c98:	82 81       	ldd	r24, Z+2	; 0x02
    3c9a:	93 81       	ldd	r25, Z+3	; 0x03
    3c9c:	08 c0       	rjmp	.+16     	; 0x3cae <vfprintf+0x5d6>
    3c9e:	f2 e0       	ldi	r31, 0x02	; 2
    3ca0:	af 0e       	add	r10, r31
    3ca2:	b1 1c       	adc	r11, r1
    3ca4:	f6 01       	movw	r30, r12
    3ca6:	60 81       	ld	r22, Z
    3ca8:	71 81       	ldd	r23, Z+1	; 0x01
    3caa:	80 e0       	ldi	r24, 0x00	; 0
    3cac:	90 e0       	ldi	r25, 0x00	; 0
    3cae:	a4 01       	movw	r20, r8
    3cb0:	0e 94 1c 23 	call	0x4638	; 0x4638 <__ultoa_invert>
    3cb4:	c8 2e       	mov	r12, r24
    3cb6:	c8 18       	sub	r12, r8
    3cb8:	0f 77       	andi	r16, 0x7F	; 127
    3cba:	06 ff       	sbrs	r16, 6
    3cbc:	0b c0       	rjmp	.+22     	; 0x3cd4 <vfprintf+0x5fc>
    3cbe:	20 2f       	mov	r18, r16
    3cc0:	2e 7f       	andi	r18, 0xFE	; 254
    3cc2:	c1 16       	cp	r12, r17
    3cc4:	50 f4       	brcc	.+20     	; 0x3cda <vfprintf+0x602>
    3cc6:	04 ff       	sbrs	r16, 4
    3cc8:	0a c0       	rjmp	.+20     	; 0x3cde <vfprintf+0x606>
    3cca:	02 fd       	sbrc	r16, 2
    3ccc:	08 c0       	rjmp	.+16     	; 0x3cde <vfprintf+0x606>
    3cce:	20 2f       	mov	r18, r16
    3cd0:	2e 7e       	andi	r18, 0xEE	; 238
    3cd2:	05 c0       	rjmp	.+10     	; 0x3cde <vfprintf+0x606>
    3cd4:	dc 2c       	mov	r13, r12
    3cd6:	20 2f       	mov	r18, r16
    3cd8:	03 c0       	rjmp	.+6      	; 0x3ce0 <vfprintf+0x608>
    3cda:	dc 2c       	mov	r13, r12
    3cdc:	01 c0       	rjmp	.+2      	; 0x3ce0 <vfprintf+0x608>
    3cde:	d1 2e       	mov	r13, r17
    3ce0:	24 ff       	sbrs	r18, 4
    3ce2:	0d c0       	rjmp	.+26     	; 0x3cfe <vfprintf+0x626>
    3ce4:	fe 01       	movw	r30, r28
    3ce6:	ec 0d       	add	r30, r12
    3ce8:	f1 1d       	adc	r31, r1
    3cea:	80 81       	ld	r24, Z
    3cec:	80 33       	cpi	r24, 0x30	; 48
    3cee:	11 f4       	brne	.+4      	; 0x3cf4 <vfprintf+0x61c>
    3cf0:	29 7e       	andi	r18, 0xE9	; 233
    3cf2:	09 c0       	rjmp	.+18     	; 0x3d06 <vfprintf+0x62e>
    3cf4:	22 ff       	sbrs	r18, 2
    3cf6:	06 c0       	rjmp	.+12     	; 0x3d04 <vfprintf+0x62c>
    3cf8:	d3 94       	inc	r13
    3cfa:	d3 94       	inc	r13
    3cfc:	04 c0       	rjmp	.+8      	; 0x3d06 <vfprintf+0x62e>
    3cfe:	82 2f       	mov	r24, r18
    3d00:	86 78       	andi	r24, 0x86	; 134
    3d02:	09 f0       	breq	.+2      	; 0x3d06 <vfprintf+0x62e>
    3d04:	d3 94       	inc	r13
    3d06:	23 fd       	sbrc	r18, 3
    3d08:	13 c0       	rjmp	.+38     	; 0x3d30 <vfprintf+0x658>
    3d0a:	20 ff       	sbrs	r18, 0
    3d0c:	06 c0       	rjmp	.+12     	; 0x3d1a <vfprintf+0x642>
    3d0e:	1c 2d       	mov	r17, r12
    3d10:	d5 14       	cp	r13, r5
    3d12:	18 f4       	brcc	.+6      	; 0x3d1a <vfprintf+0x642>
    3d14:	15 0d       	add	r17, r5
    3d16:	1d 19       	sub	r17, r13
    3d18:	d5 2c       	mov	r13, r5
    3d1a:	d5 14       	cp	r13, r5
    3d1c:	68 f4       	brcc	.+26     	; 0x3d38 <vfprintf+0x660>
    3d1e:	b7 01       	movw	r22, r14
    3d20:	80 e2       	ldi	r24, 0x20	; 32
    3d22:	90 e0       	ldi	r25, 0x00	; 0
    3d24:	2b 8b       	std	Y+19, r18	; 0x13
    3d26:	0e 94 d6 22 	call	0x45ac	; 0x45ac <fputc>
    3d2a:	d3 94       	inc	r13
    3d2c:	2b 89       	ldd	r18, Y+19	; 0x13
    3d2e:	f5 cf       	rjmp	.-22     	; 0x3d1a <vfprintf+0x642>
    3d30:	d5 14       	cp	r13, r5
    3d32:	10 f4       	brcc	.+4      	; 0x3d38 <vfprintf+0x660>
    3d34:	5d 18       	sub	r5, r13
    3d36:	01 c0       	rjmp	.+2      	; 0x3d3a <vfprintf+0x662>
    3d38:	51 2c       	mov	r5, r1
    3d3a:	24 ff       	sbrs	r18, 4
    3d3c:	12 c0       	rjmp	.+36     	; 0x3d62 <vfprintf+0x68a>
    3d3e:	b7 01       	movw	r22, r14
    3d40:	80 e3       	ldi	r24, 0x30	; 48
    3d42:	90 e0       	ldi	r25, 0x00	; 0
    3d44:	2b 8b       	std	Y+19, r18	; 0x13
    3d46:	0e 94 d6 22 	call	0x45ac	; 0x45ac <fputc>
    3d4a:	2b 89       	ldd	r18, Y+19	; 0x13
    3d4c:	22 ff       	sbrs	r18, 2
    3d4e:	17 c0       	rjmp	.+46     	; 0x3d7e <vfprintf+0x6a6>
    3d50:	21 ff       	sbrs	r18, 1
    3d52:	03 c0       	rjmp	.+6      	; 0x3d5a <vfprintf+0x682>
    3d54:	88 e5       	ldi	r24, 0x58	; 88
    3d56:	90 e0       	ldi	r25, 0x00	; 0
    3d58:	02 c0       	rjmp	.+4      	; 0x3d5e <vfprintf+0x686>
    3d5a:	88 e7       	ldi	r24, 0x78	; 120
    3d5c:	90 e0       	ldi	r25, 0x00	; 0
    3d5e:	b7 01       	movw	r22, r14
    3d60:	0c c0       	rjmp	.+24     	; 0x3d7a <vfprintf+0x6a2>
    3d62:	82 2f       	mov	r24, r18
    3d64:	86 78       	andi	r24, 0x86	; 134
    3d66:	59 f0       	breq	.+22     	; 0x3d7e <vfprintf+0x6a6>
    3d68:	21 fd       	sbrc	r18, 1
    3d6a:	02 c0       	rjmp	.+4      	; 0x3d70 <vfprintf+0x698>
    3d6c:	80 e2       	ldi	r24, 0x20	; 32
    3d6e:	01 c0       	rjmp	.+2      	; 0x3d72 <vfprintf+0x69a>
    3d70:	8b e2       	ldi	r24, 0x2B	; 43
    3d72:	27 fd       	sbrc	r18, 7
    3d74:	8d e2       	ldi	r24, 0x2D	; 45
    3d76:	b7 01       	movw	r22, r14
    3d78:	90 e0       	ldi	r25, 0x00	; 0
    3d7a:	0e 94 d6 22 	call	0x45ac	; 0x45ac <fputc>
    3d7e:	c1 16       	cp	r12, r17
    3d80:	38 f4       	brcc	.+14     	; 0x3d90 <vfprintf+0x6b8>
    3d82:	b7 01       	movw	r22, r14
    3d84:	80 e3       	ldi	r24, 0x30	; 48
    3d86:	90 e0       	ldi	r25, 0x00	; 0
    3d88:	0e 94 d6 22 	call	0x45ac	; 0x45ac <fputc>
    3d8c:	11 50       	subi	r17, 0x01	; 1
    3d8e:	f7 cf       	rjmp	.-18     	; 0x3d7e <vfprintf+0x6a6>
    3d90:	ca 94       	dec	r12
    3d92:	f4 01       	movw	r30, r8
    3d94:	ec 0d       	add	r30, r12
    3d96:	f1 1d       	adc	r31, r1
    3d98:	80 81       	ld	r24, Z
    3d9a:	b7 01       	movw	r22, r14
    3d9c:	90 e0       	ldi	r25, 0x00	; 0
    3d9e:	0e 94 d6 22 	call	0x45ac	; 0x45ac <fputc>
    3da2:	c1 10       	cpse	r12, r1
    3da4:	f5 cf       	rjmp	.-22     	; 0x3d90 <vfprintf+0x6b8>
    3da6:	55 20       	and	r5, r5
    3da8:	09 f4       	brne	.+2      	; 0x3dac <vfprintf+0x6d4>
    3daa:	c2 cc       	rjmp	.-1660   	; 0x3730 <vfprintf+0x58>
    3dac:	b7 01       	movw	r22, r14
    3dae:	80 e2       	ldi	r24, 0x20	; 32
    3db0:	90 e0       	ldi	r25, 0x00	; 0
    3db2:	0e 94 d6 22 	call	0x45ac	; 0x45ac <fputc>
    3db6:	5a 94       	dec	r5
    3db8:	f6 cf       	rjmp	.-20     	; 0x3da6 <vfprintf+0x6ce>
    3dba:	f7 01       	movw	r30, r14
    3dbc:	86 81       	ldd	r24, Z+6	; 0x06
    3dbe:	97 81       	ldd	r25, Z+7	; 0x07
    3dc0:	02 c0       	rjmp	.+4      	; 0x3dc6 <vfprintf+0x6ee>
    3dc2:	8f ef       	ldi	r24, 0xFF	; 255
    3dc4:	9f ef       	ldi	r25, 0xFF	; 255
    3dc6:	63 96       	adiw	r28, 0x13	; 19
    3dc8:	e2 e1       	ldi	r30, 0x12	; 18
    3dca:	0c 94 83 20 	jmp	0x4106	; 0x4106 <__epilogue_restores__>

00003dce <lrint>:
    3dce:	a3 da       	rcall	.-2746   	; 0x3316 <__fp_splitA>
    3dd0:	a8 f1       	brcs	.+106    	; 0x3e3c <lrint+0x6e>
    3dd2:	9e 57       	subi	r25, 0x7E	; 126
    3dd4:	a8 f1       	brcs	.+106    	; 0x3e40 <lrint+0x72>
    3dd6:	98 51       	subi	r25, 0x18	; 24
    3dd8:	60 f0       	brcs	.+24     	; 0x3df2 <lrint+0x24>
    3dda:	39 f1       	breq	.+78     	; 0x3e2a <lrint+0x5c>
    3ddc:	98 30       	cpi	r25, 0x08	; 8
    3dde:	70 f5       	brcc	.+92     	; 0x3e3c <lrint+0x6e>
    3de0:	09 2e       	mov	r0, r25
    3de2:	99 27       	eor	r25, r25
    3de4:	66 0f       	add	r22, r22
    3de6:	77 1f       	adc	r23, r23
    3de8:	88 1f       	adc	r24, r24
    3dea:	99 1f       	adc	r25, r25
    3dec:	0a 94       	dec	r0
    3dee:	d1 f7       	brne	.-12     	; 0x3de4 <lrint+0x16>
    3df0:	1c c0       	rjmp	.+56     	; 0x3e2a <lrint+0x5c>
    3df2:	bb 27       	eor	r27, r27
    3df4:	99 3f       	cpi	r25, 0xF9	; 249
    3df6:	4c f4       	brge	.+18     	; 0x3e0a <lrint+0x3c>
    3df8:	b1 11       	cpse	r27, r1
    3dfa:	b1 e0       	ldi	r27, 0x01	; 1
    3dfc:	b6 2b       	or	r27, r22
    3dfe:	67 2f       	mov	r22, r23
    3e00:	78 2f       	mov	r23, r24
    3e02:	88 27       	eor	r24, r24
    3e04:	98 5f       	subi	r25, 0xF8	; 248
    3e06:	b1 f7       	brne	.-20     	; 0x3df4 <lrint+0x26>
    3e08:	08 c0       	rjmp	.+16     	; 0x3e1a <lrint+0x4c>
    3e0a:	86 95       	lsr	r24
    3e0c:	77 95       	ror	r23
    3e0e:	67 95       	ror	r22
    3e10:	b7 95       	ror	r27
    3e12:	08 f4       	brcc	.+2      	; 0x3e16 <lrint+0x48>
    3e14:	b1 60       	ori	r27, 0x01	; 1
    3e16:	93 95       	inc	r25
    3e18:	c1 f7       	brne	.-16     	; 0x3e0a <lrint+0x3c>
    3e1a:	bb 0f       	add	r27, r27
    3e1c:	30 f4       	brcc	.+12     	; 0x3e2a <lrint+0x5c>
    3e1e:	11 f4       	brne	.+4      	; 0x3e24 <lrint+0x56>
    3e20:	60 ff       	sbrs	r22, 0
    3e22:	03 c0       	rjmp	.+6      	; 0x3e2a <lrint+0x5c>
    3e24:	6f 5f       	subi	r22, 0xFF	; 255
    3e26:	7f 4f       	sbci	r23, 0xFF	; 255
    3e28:	8f 4f       	sbci	r24, 0xFF	; 255
    3e2a:	3e f4       	brtc	.+14     	; 0x3e3a <lrint+0x6c>
    3e2c:	90 95       	com	r25
    3e2e:	80 95       	com	r24
    3e30:	70 95       	com	r23
    3e32:	61 95       	neg	r22
    3e34:	7f 4f       	sbci	r23, 0xFF	; 255
    3e36:	8f 4f       	sbci	r24, 0xFF	; 255
    3e38:	9f 4f       	sbci	r25, 0xFF	; 255
    3e3a:	08 95       	ret
    3e3c:	68 94       	set
    3e3e:	86 ca       	rjmp	.-2804   	; 0x334c <__fp_szero>
    3e40:	84 ca       	rjmp	.-2808   	; 0x334a <__fp_zero>

00003e42 <pow>:
    3e42:	fa 01       	movw	r30, r20
    3e44:	ee 0f       	add	r30, r30
    3e46:	ff 1f       	adc	r31, r31
    3e48:	30 96       	adiw	r30, 0x00	; 0
    3e4a:	21 05       	cpc	r18, r1
    3e4c:	31 05       	cpc	r19, r1
    3e4e:	99 f1       	breq	.+102    	; 0x3eb6 <pow+0x74>
    3e50:	61 15       	cp	r22, r1
    3e52:	71 05       	cpc	r23, r1
    3e54:	61 f4       	brne	.+24     	; 0x3e6e <pow+0x2c>
    3e56:	80 38       	cpi	r24, 0x80	; 128
    3e58:	bf e3       	ldi	r27, 0x3F	; 63
    3e5a:	9b 07       	cpc	r25, r27
    3e5c:	49 f1       	breq	.+82     	; 0x3eb0 <pow+0x6e>
    3e5e:	68 94       	set
    3e60:	90 38       	cpi	r25, 0x80	; 128
    3e62:	81 05       	cpc	r24, r1
    3e64:	61 f0       	breq	.+24     	; 0x3e7e <pow+0x3c>
    3e66:	80 38       	cpi	r24, 0x80	; 128
    3e68:	bf ef       	ldi	r27, 0xFF	; 255
    3e6a:	9b 07       	cpc	r25, r27
    3e6c:	41 f0       	breq	.+16     	; 0x3e7e <pow+0x3c>
    3e6e:	99 23       	and	r25, r25
    3e70:	42 f5       	brpl	.+80     	; 0x3ec2 <pow+0x80>
    3e72:	ff 3f       	cpi	r31, 0xFF	; 255
    3e74:	e1 05       	cpc	r30, r1
    3e76:	31 05       	cpc	r19, r1
    3e78:	21 05       	cpc	r18, r1
    3e7a:	11 f1       	breq	.+68     	; 0x3ec0 <pow+0x7e>
    3e7c:	e8 94       	clt
    3e7e:	08 94       	sec
    3e80:	e7 95       	ror	r30
    3e82:	d9 01       	movw	r26, r18
    3e84:	aa 23       	and	r26, r26
    3e86:	29 f4       	brne	.+10     	; 0x3e92 <pow+0x50>
    3e88:	ab 2f       	mov	r26, r27
    3e8a:	be 2f       	mov	r27, r30
    3e8c:	f8 5f       	subi	r31, 0xF8	; 248
    3e8e:	d0 f3       	brcs	.-12     	; 0x3e84 <pow+0x42>
    3e90:	10 c0       	rjmp	.+32     	; 0x3eb2 <pow+0x70>
    3e92:	ff 5f       	subi	r31, 0xFF	; 255
    3e94:	70 f4       	brcc	.+28     	; 0x3eb2 <pow+0x70>
    3e96:	a6 95       	lsr	r26
    3e98:	e0 f7       	brcc	.-8      	; 0x3e92 <pow+0x50>
    3e9a:	f7 39       	cpi	r31, 0x97	; 151
    3e9c:	50 f0       	brcs	.+20     	; 0x3eb2 <pow+0x70>
    3e9e:	19 f0       	breq	.+6      	; 0x3ea6 <pow+0x64>
    3ea0:	ff 3a       	cpi	r31, 0xAF	; 175
    3ea2:	38 f4       	brcc	.+14     	; 0x3eb2 <pow+0x70>
    3ea4:	9f 77       	andi	r25, 0x7F	; 127
    3ea6:	9f 93       	push	r25
    3ea8:	0c d0       	rcall	.+24     	; 0x3ec2 <pow+0x80>
    3eaa:	0f 90       	pop	r0
    3eac:	07 fc       	sbrc	r0, 7
    3eae:	90 58       	subi	r25, 0x80	; 128
    3eb0:	08 95       	ret
    3eb2:	3e f0       	brts	.+14     	; 0x3ec2 <pow+0x80>
    3eb4:	e1 c9       	rjmp	.-3134   	; 0x3278 <__fp_nan>
    3eb6:	60 e0       	ldi	r22, 0x00	; 0
    3eb8:	70 e0       	ldi	r23, 0x00	; 0
    3eba:	80 e8       	ldi	r24, 0x80	; 128
    3ebc:	9f e3       	ldi	r25, 0x3F	; 63
    3ebe:	08 95       	ret
    3ec0:	4f e7       	ldi	r20, 0x7F	; 127
    3ec2:	9f 77       	andi	r25, 0x7F	; 127
    3ec4:	5f 93       	push	r21
    3ec6:	4f 93       	push	r20
    3ec8:	3f 93       	push	r19
    3eca:	2f 93       	push	r18
    3ecc:	3c d0       	rcall	.+120    	; 0x3f46 <log>
    3ece:	2f 91       	pop	r18
    3ed0:	3f 91       	pop	r19
    3ed2:	4f 91       	pop	r20
    3ed4:	5f 91       	pop	r21
    3ed6:	de da       	rcall	.-2628   	; 0x3494 <__mulsf3>
    3ed8:	05 c0       	rjmp	.+10     	; 0x3ee4 <exp>
    3eda:	19 f4       	brne	.+6      	; 0x3ee2 <pow+0xa0>
    3edc:	0e f0       	brts	.+2      	; 0x3ee0 <pow+0x9e>
    3ede:	c6 c9       	rjmp	.-3188   	; 0x326c <__fp_inf>
    3ee0:	34 ca       	rjmp	.-2968   	; 0x334a <__fp_zero>
    3ee2:	ca c9       	rjmp	.-3180   	; 0x3278 <__fp_nan>

00003ee4 <exp>:
    3ee4:	18 da       	rcall	.-3024   	; 0x3316 <__fp_splitA>
    3ee6:	c8 f3       	brcs	.-14     	; 0x3eda <pow+0x98>
    3ee8:	96 38       	cpi	r25, 0x86	; 134
    3eea:	c0 f7       	brcc	.-16     	; 0x3edc <pow+0x9a>
    3eec:	07 f8       	bld	r0, 7
    3eee:	0f 92       	push	r0
    3ef0:	e8 94       	clt
    3ef2:	2b e3       	ldi	r18, 0x3B	; 59
    3ef4:	3a ea       	ldi	r19, 0xAA	; 170
    3ef6:	48 eb       	ldi	r20, 0xB8	; 184
    3ef8:	5f e7       	ldi	r21, 0x7F	; 127
    3efa:	da da       	rcall	.-2636   	; 0x34b0 <__mulsf3_pse>
    3efc:	0f 92       	push	r0
    3efe:	0f 92       	push	r0
    3f00:	0f 92       	push	r0
    3f02:	4d b7       	in	r20, 0x3d	; 61
    3f04:	5e b7       	in	r21, 0x3e	; 62
    3f06:	0f 92       	push	r0
    3f08:	5e d0       	rcall	.+188    	; 0x3fc6 <modf>
    3f0a:	e6 ef       	ldi	r30, 0xF6	; 246
    3f0c:	f0 e0       	ldi	r31, 0x00	; 0
    3f0e:	b7 d9       	rcall	.-3218   	; 0x327e <__fp_powser>
    3f10:	4f 91       	pop	r20
    3f12:	5f 91       	pop	r21
    3f14:	ef 91       	pop	r30
    3f16:	ff 91       	pop	r31
    3f18:	e5 95       	asr	r30
    3f1a:	ee 1f       	adc	r30, r30
    3f1c:	ff 1f       	adc	r31, r31
    3f1e:	49 f0       	breq	.+18     	; 0x3f32 <exp+0x4e>
    3f20:	fe 57       	subi	r31, 0x7E	; 126
    3f22:	e0 68       	ori	r30, 0x80	; 128
    3f24:	44 27       	eor	r20, r20
    3f26:	ee 0f       	add	r30, r30
    3f28:	44 1f       	adc	r20, r20
    3f2a:	fa 95       	dec	r31
    3f2c:	e1 f7       	brne	.-8      	; 0x3f26 <exp+0x42>
    3f2e:	41 95       	neg	r20
    3f30:	55 0b       	sbc	r21, r21
    3f32:	7c da       	rcall	.-2824   	; 0x342c <ldexp>
    3f34:	0f 90       	pop	r0
    3f36:	07 fe       	sbrs	r0, 7
    3f38:	70 ca       	rjmp	.-2848   	; 0x341a <inverse>
    3f3a:	08 95       	ret
    3f3c:	0e f0       	brts	.+2      	; 0x3f40 <exp+0x5c>
    3f3e:	b7 cb       	rjmp	.-2194   	; 0x36ae <__fp_mpack>
    3f40:	9b c9       	rjmp	.-3274   	; 0x3278 <__fp_nan>
    3f42:	68 94       	set
    3f44:	93 c9       	rjmp	.-3290   	; 0x326c <__fp_inf>

00003f46 <log>:
    3f46:	e7 d9       	rcall	.-3122   	; 0x3316 <__fp_splitA>
    3f48:	c8 f3       	brcs	.-14     	; 0x3f3c <exp+0x58>
    3f4a:	99 23       	and	r25, r25
    3f4c:	d1 f3       	breq	.-12     	; 0x3f42 <exp+0x5e>
    3f4e:	c6 f3       	brts	.-16     	; 0x3f40 <exp+0x5c>
    3f50:	df 93       	push	r29
    3f52:	cf 93       	push	r28
    3f54:	1f 93       	push	r17
    3f56:	0f 93       	push	r16
    3f58:	ff 92       	push	r15
    3f5a:	c9 2f       	mov	r28, r25
    3f5c:	dd 27       	eor	r29, r29
    3f5e:	88 23       	and	r24, r24
    3f60:	2a f0       	brmi	.+10     	; 0x3f6c <log+0x26>
    3f62:	21 97       	sbiw	r28, 0x01	; 1
    3f64:	66 0f       	add	r22, r22
    3f66:	77 1f       	adc	r23, r23
    3f68:	88 1f       	adc	r24, r24
    3f6a:	da f7       	brpl	.-10     	; 0x3f62 <log+0x1c>
    3f6c:	20 e0       	ldi	r18, 0x00	; 0
    3f6e:	30 e0       	ldi	r19, 0x00	; 0
    3f70:	40 e8       	ldi	r20, 0x80	; 128
    3f72:	5f eb       	ldi	r21, 0xBF	; 191
    3f74:	9f e3       	ldi	r25, 0x3F	; 63
    3f76:	88 39       	cpi	r24, 0x98	; 152
    3f78:	20 f0       	brcs	.+8      	; 0x3f82 <log+0x3c>
    3f7a:	80 3e       	cpi	r24, 0xE0	; 224
    3f7c:	30 f0       	brcs	.+12     	; 0x3f8a <log+0x44>
    3f7e:	21 96       	adiw	r28, 0x01	; 1
    3f80:	8f 77       	andi	r24, 0x7F	; 127
    3f82:	31 db       	rcall	.-2462   	; 0x35e6 <__addsf3>
    3f84:	ee e1       	ldi	r30, 0x1E	; 30
    3f86:	f1 e0       	ldi	r31, 0x01	; 1
    3f88:	03 c0       	rjmp	.+6      	; 0x3f90 <log+0x4a>
    3f8a:	2d db       	rcall	.-2470   	; 0x35e6 <__addsf3>
    3f8c:	eb e4       	ldi	r30, 0x4B	; 75
    3f8e:	f1 e0       	ldi	r31, 0x01	; 1
    3f90:	76 d9       	rcall	.-3348   	; 0x327e <__fp_powser>
    3f92:	8b 01       	movw	r16, r22
    3f94:	be 01       	movw	r22, r28
    3f96:	ec 01       	movw	r28, r24
    3f98:	fb 2e       	mov	r15, r27
    3f9a:	6f 57       	subi	r22, 0x7F	; 127
    3f9c:	71 09       	sbc	r23, r1
    3f9e:	75 95       	asr	r23
    3fa0:	77 1f       	adc	r23, r23
    3fa2:	88 0b       	sbc	r24, r24
    3fa4:	99 0b       	sbc	r25, r25
    3fa6:	27 d9       	rcall	.-3506   	; 0x31f6 <__floatsisf>
    3fa8:	28 e1       	ldi	r18, 0x18	; 24
    3faa:	32 e7       	ldi	r19, 0x72	; 114
    3fac:	41 e3       	ldi	r20, 0x31	; 49
    3fae:	5f e3       	ldi	r21, 0x3F	; 63
    3fb0:	7d da       	rcall	.-2822   	; 0x34ac <__mulsf3x>
    3fb2:	af 2d       	mov	r26, r15
    3fb4:	98 01       	movw	r18, r16
    3fb6:	ae 01       	movw	r20, r28
    3fb8:	ff 90       	pop	r15
    3fba:	0f 91       	pop	r16
    3fbc:	1f 91       	pop	r17
    3fbe:	cf 91       	pop	r28
    3fc0:	df 91       	pop	r29
    3fc2:	22 db       	rcall	.-2492   	; 0x3608 <__addsf3x>
    3fc4:	8f c9       	rjmp	.-3298   	; 0x32e4 <__fp_round>

00003fc6 <modf>:
    3fc6:	fa 01       	movw	r30, r20
    3fc8:	dc 01       	movw	r26, r24
    3fca:	aa 0f       	add	r26, r26
    3fcc:	bb 1f       	adc	r27, r27
    3fce:	9b 01       	movw	r18, r22
    3fd0:	ac 01       	movw	r20, r24
    3fd2:	bf 57       	subi	r27, 0x7F	; 127
    3fd4:	28 f4       	brcc	.+10     	; 0x3fe0 <modf+0x1a>
    3fd6:	22 27       	eor	r18, r18
    3fd8:	33 27       	eor	r19, r19
    3fda:	44 27       	eor	r20, r20
    3fdc:	50 78       	andi	r21, 0x80	; 128
    3fde:	1f c0       	rjmp	.+62     	; 0x401e <modf+0x58>
    3fe0:	b7 51       	subi	r27, 0x17	; 23
    3fe2:	88 f4       	brcc	.+34     	; 0x4006 <modf+0x40>
    3fe4:	ab 2f       	mov	r26, r27
    3fe6:	00 24       	eor	r0, r0
    3fe8:	46 95       	lsr	r20
    3fea:	37 95       	ror	r19
    3fec:	27 95       	ror	r18
    3fee:	01 1c       	adc	r0, r1
    3ff0:	a3 95       	inc	r26
    3ff2:	d2 f3       	brmi	.-12     	; 0x3fe8 <modf+0x22>
    3ff4:	00 20       	and	r0, r0
    3ff6:	69 f0       	breq	.+26     	; 0x4012 <modf+0x4c>
    3ff8:	22 0f       	add	r18, r18
    3ffa:	33 1f       	adc	r19, r19
    3ffc:	44 1f       	adc	r20, r20
    3ffe:	b3 95       	inc	r27
    4000:	da f3       	brmi	.-10     	; 0x3ff8 <modf+0x32>
    4002:	0d d0       	rcall	.+26     	; 0x401e <modf+0x58>
    4004:	ef ca       	rjmp	.-2594   	; 0x35e4 <__subsf3>
    4006:	61 30       	cpi	r22, 0x01	; 1
    4008:	71 05       	cpc	r23, r1
    400a:	a0 e8       	ldi	r26, 0x80	; 128
    400c:	8a 07       	cpc	r24, r26
    400e:	b9 46       	sbci	r27, 0x69	; 105
    4010:	30 f4       	brcc	.+12     	; 0x401e <modf+0x58>
    4012:	9b 01       	movw	r18, r22
    4014:	ac 01       	movw	r20, r24
    4016:	66 27       	eor	r22, r22
    4018:	77 27       	eor	r23, r23
    401a:	88 27       	eor	r24, r24
    401c:	90 78       	andi	r25, 0x80	; 128
    401e:	30 96       	adiw	r30, 0x00	; 0
    4020:	21 f0       	breq	.+8      	; 0x402a <modf+0x64>
    4022:	20 83       	st	Z, r18
    4024:	31 83       	std	Z+1, r19	; 0x01
    4026:	42 83       	std	Z+2, r20	; 0x02
    4028:	53 83       	std	Z+3, r21	; 0x03
    402a:	08 95       	ret

0000402c <__mulsi3>:
    402c:	db 01       	movw	r26, r22
    402e:	8f 93       	push	r24
    4030:	9f 93       	push	r25
    4032:	0e 94 5c 20 	call	0x40b8	; 0x40b8 <__muluhisi3>
    4036:	bf 91       	pop	r27
    4038:	af 91       	pop	r26
    403a:	a2 9f       	mul	r26, r18
    403c:	80 0d       	add	r24, r0
    403e:	91 1d       	adc	r25, r1
    4040:	a3 9f       	mul	r26, r19
    4042:	90 0d       	add	r25, r0
    4044:	b2 9f       	mul	r27, r18
    4046:	90 0d       	add	r25, r0
    4048:	11 24       	eor	r1, r1
    404a:	08 95       	ret

0000404c <__divmodhi4>:
    404c:	97 fb       	bst	r25, 7
    404e:	07 2e       	mov	r0, r23
    4050:	16 f4       	brtc	.+4      	; 0x4056 <__divmodhi4+0xa>
    4052:	00 94       	com	r0
    4054:	07 d0       	rcall	.+14     	; 0x4064 <__divmodhi4_neg1>
    4056:	77 fd       	sbrc	r23, 7
    4058:	09 d0       	rcall	.+18     	; 0x406c <__divmodhi4_neg2>
    405a:	0e 94 9e 20 	call	0x413c	; 0x413c <__udivmodhi4>
    405e:	07 fc       	sbrc	r0, 7
    4060:	05 d0       	rcall	.+10     	; 0x406c <__divmodhi4_neg2>
    4062:	3e f4       	brtc	.+14     	; 0x4072 <__divmodhi4_exit>

00004064 <__divmodhi4_neg1>:
    4064:	90 95       	com	r25
    4066:	81 95       	neg	r24
    4068:	9f 4f       	sbci	r25, 0xFF	; 255
    406a:	08 95       	ret

0000406c <__divmodhi4_neg2>:
    406c:	70 95       	com	r23
    406e:	61 95       	neg	r22
    4070:	7f 4f       	sbci	r23, 0xFF	; 255

00004072 <__divmodhi4_exit>:
    4072:	08 95       	ret

00004074 <__udivmodsi4>:
    4074:	a1 e2       	ldi	r26, 0x21	; 33
    4076:	1a 2e       	mov	r1, r26
    4078:	aa 1b       	sub	r26, r26
    407a:	bb 1b       	sub	r27, r27
    407c:	fd 01       	movw	r30, r26
    407e:	0d c0       	rjmp	.+26     	; 0x409a <__udivmodsi4_ep>

00004080 <__udivmodsi4_loop>:
    4080:	aa 1f       	adc	r26, r26
    4082:	bb 1f       	adc	r27, r27
    4084:	ee 1f       	adc	r30, r30
    4086:	ff 1f       	adc	r31, r31
    4088:	a2 17       	cp	r26, r18
    408a:	b3 07       	cpc	r27, r19
    408c:	e4 07       	cpc	r30, r20
    408e:	f5 07       	cpc	r31, r21
    4090:	20 f0       	brcs	.+8      	; 0x409a <__udivmodsi4_ep>
    4092:	a2 1b       	sub	r26, r18
    4094:	b3 0b       	sbc	r27, r19
    4096:	e4 0b       	sbc	r30, r20
    4098:	f5 0b       	sbc	r31, r21

0000409a <__udivmodsi4_ep>:
    409a:	66 1f       	adc	r22, r22
    409c:	77 1f       	adc	r23, r23
    409e:	88 1f       	adc	r24, r24
    40a0:	99 1f       	adc	r25, r25
    40a2:	1a 94       	dec	r1
    40a4:	69 f7       	brne	.-38     	; 0x4080 <__udivmodsi4_loop>
    40a6:	60 95       	com	r22
    40a8:	70 95       	com	r23
    40aa:	80 95       	com	r24
    40ac:	90 95       	com	r25
    40ae:	9b 01       	movw	r18, r22
    40b0:	ac 01       	movw	r20, r24
    40b2:	bd 01       	movw	r22, r26
    40b4:	cf 01       	movw	r24, r30
    40b6:	08 95       	ret

000040b8 <__muluhisi3>:
    40b8:	0e 94 b2 20 	call	0x4164	; 0x4164 <__umulhisi3>
    40bc:	a5 9f       	mul	r26, r21
    40be:	90 0d       	add	r25, r0
    40c0:	b4 9f       	mul	r27, r20
    40c2:	90 0d       	add	r25, r0
    40c4:	a4 9f       	mul	r26, r20
    40c6:	80 0d       	add	r24, r0
    40c8:	91 1d       	adc	r25, r1
    40ca:	11 24       	eor	r1, r1
    40cc:	08 95       	ret

000040ce <__prologue_saves__>:
    40ce:	2f 92       	push	r2
    40d0:	3f 92       	push	r3
    40d2:	4f 92       	push	r4
    40d4:	5f 92       	push	r5
    40d6:	6f 92       	push	r6
    40d8:	7f 92       	push	r7
    40da:	8f 92       	push	r8
    40dc:	9f 92       	push	r9
    40de:	af 92       	push	r10
    40e0:	bf 92       	push	r11
    40e2:	cf 92       	push	r12
    40e4:	df 92       	push	r13
    40e6:	ef 92       	push	r14
    40e8:	ff 92       	push	r15
    40ea:	0f 93       	push	r16
    40ec:	1f 93       	push	r17
    40ee:	cf 93       	push	r28
    40f0:	df 93       	push	r29
    40f2:	cd b7       	in	r28, 0x3d	; 61
    40f4:	de b7       	in	r29, 0x3e	; 62
    40f6:	ca 1b       	sub	r28, r26
    40f8:	db 0b       	sbc	r29, r27
    40fa:	0f b6       	in	r0, 0x3f	; 63
    40fc:	f8 94       	cli
    40fe:	de bf       	out	0x3e, r29	; 62
    4100:	0f be       	out	0x3f, r0	; 63
    4102:	cd bf       	out	0x3d, r28	; 61
    4104:	09 94       	ijmp

00004106 <__epilogue_restores__>:
    4106:	2a 88       	ldd	r2, Y+18	; 0x12
    4108:	39 88       	ldd	r3, Y+17	; 0x11
    410a:	48 88       	ldd	r4, Y+16	; 0x10
    410c:	5f 84       	ldd	r5, Y+15	; 0x0f
    410e:	6e 84       	ldd	r6, Y+14	; 0x0e
    4110:	7d 84       	ldd	r7, Y+13	; 0x0d
    4112:	8c 84       	ldd	r8, Y+12	; 0x0c
    4114:	9b 84       	ldd	r9, Y+11	; 0x0b
    4116:	aa 84       	ldd	r10, Y+10	; 0x0a
    4118:	b9 84       	ldd	r11, Y+9	; 0x09
    411a:	c8 84       	ldd	r12, Y+8	; 0x08
    411c:	df 80       	ldd	r13, Y+7	; 0x07
    411e:	ee 80       	ldd	r14, Y+6	; 0x06
    4120:	fd 80       	ldd	r15, Y+5	; 0x05
    4122:	0c 81       	ldd	r16, Y+4	; 0x04
    4124:	1b 81       	ldd	r17, Y+3	; 0x03
    4126:	aa 81       	ldd	r26, Y+2	; 0x02
    4128:	b9 81       	ldd	r27, Y+1	; 0x01
    412a:	ce 0f       	add	r28, r30
    412c:	d1 1d       	adc	r29, r1
    412e:	0f b6       	in	r0, 0x3f	; 63
    4130:	f8 94       	cli
    4132:	de bf       	out	0x3e, r29	; 62
    4134:	0f be       	out	0x3f, r0	; 63
    4136:	cd bf       	out	0x3d, r28	; 61
    4138:	ed 01       	movw	r28, r26
    413a:	08 95       	ret

0000413c <__udivmodhi4>:
    413c:	aa 1b       	sub	r26, r26
    413e:	bb 1b       	sub	r27, r27
    4140:	51 e1       	ldi	r21, 0x11	; 17
    4142:	07 c0       	rjmp	.+14     	; 0x4152 <__udivmodhi4_ep>

00004144 <__udivmodhi4_loop>:
    4144:	aa 1f       	adc	r26, r26
    4146:	bb 1f       	adc	r27, r27
    4148:	a6 17       	cp	r26, r22
    414a:	b7 07       	cpc	r27, r23
    414c:	10 f0       	brcs	.+4      	; 0x4152 <__udivmodhi4_ep>
    414e:	a6 1b       	sub	r26, r22
    4150:	b7 0b       	sbc	r27, r23

00004152 <__udivmodhi4_ep>:
    4152:	88 1f       	adc	r24, r24
    4154:	99 1f       	adc	r25, r25
    4156:	5a 95       	dec	r21
    4158:	a9 f7       	brne	.-22     	; 0x4144 <__udivmodhi4_loop>
    415a:	80 95       	com	r24
    415c:	90 95       	com	r25
    415e:	bc 01       	movw	r22, r24
    4160:	cd 01       	movw	r24, r26
    4162:	08 95       	ret

00004164 <__umulhisi3>:
    4164:	a2 9f       	mul	r26, r18
    4166:	b0 01       	movw	r22, r0
    4168:	b3 9f       	mul	r27, r19
    416a:	c0 01       	movw	r24, r0
    416c:	a3 9f       	mul	r26, r19
    416e:	70 0d       	add	r23, r0
    4170:	81 1d       	adc	r24, r1
    4172:	11 24       	eor	r1, r1
    4174:	91 1d       	adc	r25, r1
    4176:	b2 9f       	mul	r27, r18
    4178:	70 0d       	add	r23, r0
    417a:	81 1d       	adc	r24, r1
    417c:	11 24       	eor	r1, r1
    417e:	91 1d       	adc	r25, r1
    4180:	08 95       	ret

00004182 <malloc>:
    4182:	cf 93       	push	r28
    4184:	df 93       	push	r29
    4186:	82 30       	cpi	r24, 0x02	; 2
    4188:	91 05       	cpc	r25, r1
    418a:	10 f4       	brcc	.+4      	; 0x4190 <malloc+0xe>
    418c:	82 e0       	ldi	r24, 0x02	; 2
    418e:	90 e0       	ldi	r25, 0x00	; 0
    4190:	e0 91 ca 02 	lds	r30, 0x02CA
    4194:	f0 91 cb 02 	lds	r31, 0x02CB
    4198:	20 e0       	ldi	r18, 0x00	; 0
    419a:	30 e0       	ldi	r19, 0x00	; 0
    419c:	a0 e0       	ldi	r26, 0x00	; 0
    419e:	b0 e0       	ldi	r27, 0x00	; 0
    41a0:	30 97       	sbiw	r30, 0x00	; 0
    41a2:	39 f1       	breq	.+78     	; 0x41f2 <malloc+0x70>
    41a4:	40 81       	ld	r20, Z
    41a6:	51 81       	ldd	r21, Z+1	; 0x01
    41a8:	48 17       	cp	r20, r24
    41aa:	59 07       	cpc	r21, r25
    41ac:	b8 f0       	brcs	.+46     	; 0x41dc <malloc+0x5a>
    41ae:	48 17       	cp	r20, r24
    41b0:	59 07       	cpc	r21, r25
    41b2:	71 f4       	brne	.+28     	; 0x41d0 <malloc+0x4e>
    41b4:	82 81       	ldd	r24, Z+2	; 0x02
    41b6:	93 81       	ldd	r25, Z+3	; 0x03
    41b8:	10 97       	sbiw	r26, 0x00	; 0
    41ba:	29 f0       	breq	.+10     	; 0x41c6 <malloc+0x44>
    41bc:	13 96       	adiw	r26, 0x03	; 3
    41be:	9c 93       	st	X, r25
    41c0:	8e 93       	st	-X, r24
    41c2:	12 97       	sbiw	r26, 0x02	; 2
    41c4:	2c c0       	rjmp	.+88     	; 0x421e <malloc+0x9c>
    41c6:	90 93 cb 02 	sts	0x02CB, r25
    41ca:	80 93 ca 02 	sts	0x02CA, r24
    41ce:	27 c0       	rjmp	.+78     	; 0x421e <malloc+0x9c>
    41d0:	21 15       	cp	r18, r1
    41d2:	31 05       	cpc	r19, r1
    41d4:	31 f0       	breq	.+12     	; 0x41e2 <malloc+0x60>
    41d6:	42 17       	cp	r20, r18
    41d8:	53 07       	cpc	r21, r19
    41da:	18 f0       	brcs	.+6      	; 0x41e2 <malloc+0x60>
    41dc:	a9 01       	movw	r20, r18
    41de:	db 01       	movw	r26, r22
    41e0:	01 c0       	rjmp	.+2      	; 0x41e4 <malloc+0x62>
    41e2:	ef 01       	movw	r28, r30
    41e4:	9a 01       	movw	r18, r20
    41e6:	bd 01       	movw	r22, r26
    41e8:	df 01       	movw	r26, r30
    41ea:	02 80       	ldd	r0, Z+2	; 0x02
    41ec:	f3 81       	ldd	r31, Z+3	; 0x03
    41ee:	e0 2d       	mov	r30, r0
    41f0:	d7 cf       	rjmp	.-82     	; 0x41a0 <malloc+0x1e>
    41f2:	21 15       	cp	r18, r1
    41f4:	31 05       	cpc	r19, r1
    41f6:	f9 f0       	breq	.+62     	; 0x4236 <malloc+0xb4>
    41f8:	28 1b       	sub	r18, r24
    41fa:	39 0b       	sbc	r19, r25
    41fc:	24 30       	cpi	r18, 0x04	; 4
    41fe:	31 05       	cpc	r19, r1
    4200:	80 f4       	brcc	.+32     	; 0x4222 <malloc+0xa0>
    4202:	8a 81       	ldd	r24, Y+2	; 0x02
    4204:	9b 81       	ldd	r25, Y+3	; 0x03
    4206:	61 15       	cp	r22, r1
    4208:	71 05       	cpc	r23, r1
    420a:	21 f0       	breq	.+8      	; 0x4214 <malloc+0x92>
    420c:	fb 01       	movw	r30, r22
    420e:	93 83       	std	Z+3, r25	; 0x03
    4210:	82 83       	std	Z+2, r24	; 0x02
    4212:	04 c0       	rjmp	.+8      	; 0x421c <malloc+0x9a>
    4214:	90 93 cb 02 	sts	0x02CB, r25
    4218:	80 93 ca 02 	sts	0x02CA, r24
    421c:	fe 01       	movw	r30, r28
    421e:	32 96       	adiw	r30, 0x02	; 2
    4220:	44 c0       	rjmp	.+136    	; 0x42aa <malloc+0x128>
    4222:	fe 01       	movw	r30, r28
    4224:	e2 0f       	add	r30, r18
    4226:	f3 1f       	adc	r31, r19
    4228:	81 93       	st	Z+, r24
    422a:	91 93       	st	Z+, r25
    422c:	22 50       	subi	r18, 0x02	; 2
    422e:	31 09       	sbc	r19, r1
    4230:	39 83       	std	Y+1, r19	; 0x01
    4232:	28 83       	st	Y, r18
    4234:	3a c0       	rjmp	.+116    	; 0x42aa <malloc+0x128>
    4236:	20 91 c8 02 	lds	r18, 0x02C8
    423a:	30 91 c9 02 	lds	r19, 0x02C9
    423e:	23 2b       	or	r18, r19
    4240:	41 f4       	brne	.+16     	; 0x4252 <malloc+0xd0>
    4242:	20 91 1e 01 	lds	r18, 0x011E
    4246:	30 91 1f 01 	lds	r19, 0x011F
    424a:	30 93 c9 02 	sts	0x02C9, r19
    424e:	20 93 c8 02 	sts	0x02C8, r18
    4252:	20 91 1c 01 	lds	r18, 0x011C
    4256:	30 91 1d 01 	lds	r19, 0x011D
    425a:	21 15       	cp	r18, r1
    425c:	31 05       	cpc	r19, r1
    425e:	41 f4       	brne	.+16     	; 0x4270 <malloc+0xee>
    4260:	2d b7       	in	r18, 0x3d	; 61
    4262:	3e b7       	in	r19, 0x3e	; 62
    4264:	40 91 20 01 	lds	r20, 0x0120
    4268:	50 91 21 01 	lds	r21, 0x0121
    426c:	24 1b       	sub	r18, r20
    426e:	35 0b       	sbc	r19, r21
    4270:	e0 91 c8 02 	lds	r30, 0x02C8
    4274:	f0 91 c9 02 	lds	r31, 0x02C9
    4278:	e2 17       	cp	r30, r18
    427a:	f3 07       	cpc	r31, r19
    427c:	a0 f4       	brcc	.+40     	; 0x42a6 <malloc+0x124>
    427e:	2e 1b       	sub	r18, r30
    4280:	3f 0b       	sbc	r19, r31
    4282:	28 17       	cp	r18, r24
    4284:	39 07       	cpc	r19, r25
    4286:	78 f0       	brcs	.+30     	; 0x42a6 <malloc+0x124>
    4288:	ac 01       	movw	r20, r24
    428a:	4e 5f       	subi	r20, 0xFE	; 254
    428c:	5f 4f       	sbci	r21, 0xFF	; 255
    428e:	24 17       	cp	r18, r20
    4290:	35 07       	cpc	r19, r21
    4292:	48 f0       	brcs	.+18     	; 0x42a6 <malloc+0x124>
    4294:	4e 0f       	add	r20, r30
    4296:	5f 1f       	adc	r21, r31
    4298:	50 93 c9 02 	sts	0x02C9, r21
    429c:	40 93 c8 02 	sts	0x02C8, r20
    42a0:	81 93       	st	Z+, r24
    42a2:	91 93       	st	Z+, r25
    42a4:	02 c0       	rjmp	.+4      	; 0x42aa <malloc+0x128>
    42a6:	e0 e0       	ldi	r30, 0x00	; 0
    42a8:	f0 e0       	ldi	r31, 0x00	; 0
    42aa:	cf 01       	movw	r24, r30
    42ac:	df 91       	pop	r29
    42ae:	cf 91       	pop	r28
    42b0:	08 95       	ret

000042b2 <free>:
    42b2:	cf 93       	push	r28
    42b4:	df 93       	push	r29
    42b6:	00 97       	sbiw	r24, 0x00	; 0
    42b8:	09 f4       	brne	.+2      	; 0x42bc <free+0xa>
    42ba:	87 c0       	rjmp	.+270    	; 0x43ca <free+0x118>
    42bc:	fc 01       	movw	r30, r24
    42be:	32 97       	sbiw	r30, 0x02	; 2
    42c0:	13 82       	std	Z+3, r1	; 0x03
    42c2:	12 82       	std	Z+2, r1	; 0x02
    42c4:	c0 91 ca 02 	lds	r28, 0x02CA
    42c8:	d0 91 cb 02 	lds	r29, 0x02CB
    42cc:	20 97       	sbiw	r28, 0x00	; 0
    42ce:	81 f4       	brne	.+32     	; 0x42f0 <free+0x3e>
    42d0:	20 81       	ld	r18, Z
    42d2:	31 81       	ldd	r19, Z+1	; 0x01
    42d4:	28 0f       	add	r18, r24
    42d6:	39 1f       	adc	r19, r25
    42d8:	80 91 c8 02 	lds	r24, 0x02C8
    42dc:	90 91 c9 02 	lds	r25, 0x02C9
    42e0:	82 17       	cp	r24, r18
    42e2:	93 07       	cpc	r25, r19
    42e4:	79 f5       	brne	.+94     	; 0x4344 <free+0x92>
    42e6:	f0 93 c9 02 	sts	0x02C9, r31
    42ea:	e0 93 c8 02 	sts	0x02C8, r30
    42ee:	6d c0       	rjmp	.+218    	; 0x43ca <free+0x118>
    42f0:	de 01       	movw	r26, r28
    42f2:	20 e0       	ldi	r18, 0x00	; 0
    42f4:	30 e0       	ldi	r19, 0x00	; 0
    42f6:	ae 17       	cp	r26, r30
    42f8:	bf 07       	cpc	r27, r31
    42fa:	50 f4       	brcc	.+20     	; 0x4310 <free+0x5e>
    42fc:	12 96       	adiw	r26, 0x02	; 2
    42fe:	4d 91       	ld	r20, X+
    4300:	5c 91       	ld	r21, X
    4302:	13 97       	sbiw	r26, 0x03	; 3
    4304:	9d 01       	movw	r18, r26
    4306:	41 15       	cp	r20, r1
    4308:	51 05       	cpc	r21, r1
    430a:	09 f1       	breq	.+66     	; 0x434e <free+0x9c>
    430c:	da 01       	movw	r26, r20
    430e:	f3 cf       	rjmp	.-26     	; 0x42f6 <free+0x44>
    4310:	b3 83       	std	Z+3, r27	; 0x03
    4312:	a2 83       	std	Z+2, r26	; 0x02
    4314:	40 81       	ld	r20, Z
    4316:	51 81       	ldd	r21, Z+1	; 0x01
    4318:	84 0f       	add	r24, r20
    431a:	95 1f       	adc	r25, r21
    431c:	8a 17       	cp	r24, r26
    431e:	9b 07       	cpc	r25, r27
    4320:	71 f4       	brne	.+28     	; 0x433e <free+0x8c>
    4322:	8d 91       	ld	r24, X+
    4324:	9c 91       	ld	r25, X
    4326:	11 97       	sbiw	r26, 0x01	; 1
    4328:	84 0f       	add	r24, r20
    432a:	95 1f       	adc	r25, r21
    432c:	02 96       	adiw	r24, 0x02	; 2
    432e:	91 83       	std	Z+1, r25	; 0x01
    4330:	80 83       	st	Z, r24
    4332:	12 96       	adiw	r26, 0x02	; 2
    4334:	8d 91       	ld	r24, X+
    4336:	9c 91       	ld	r25, X
    4338:	13 97       	sbiw	r26, 0x03	; 3
    433a:	93 83       	std	Z+3, r25	; 0x03
    433c:	82 83       	std	Z+2, r24	; 0x02
    433e:	21 15       	cp	r18, r1
    4340:	31 05       	cpc	r19, r1
    4342:	29 f4       	brne	.+10     	; 0x434e <free+0x9c>
    4344:	f0 93 cb 02 	sts	0x02CB, r31
    4348:	e0 93 ca 02 	sts	0x02CA, r30
    434c:	3e c0       	rjmp	.+124    	; 0x43ca <free+0x118>
    434e:	d9 01       	movw	r26, r18
    4350:	13 96       	adiw	r26, 0x03	; 3
    4352:	fc 93       	st	X, r31
    4354:	ee 93       	st	-X, r30
    4356:	12 97       	sbiw	r26, 0x02	; 2
    4358:	4d 91       	ld	r20, X+
    435a:	5d 91       	ld	r21, X+
    435c:	a4 0f       	add	r26, r20
    435e:	b5 1f       	adc	r27, r21
    4360:	ea 17       	cp	r30, r26
    4362:	fb 07       	cpc	r31, r27
    4364:	79 f4       	brne	.+30     	; 0x4384 <free+0xd2>
    4366:	80 81       	ld	r24, Z
    4368:	91 81       	ldd	r25, Z+1	; 0x01
    436a:	84 0f       	add	r24, r20
    436c:	95 1f       	adc	r25, r21
    436e:	02 96       	adiw	r24, 0x02	; 2
    4370:	d9 01       	movw	r26, r18
    4372:	11 96       	adiw	r26, 0x01	; 1
    4374:	9c 93       	st	X, r25
    4376:	8e 93       	st	-X, r24
    4378:	82 81       	ldd	r24, Z+2	; 0x02
    437a:	93 81       	ldd	r25, Z+3	; 0x03
    437c:	13 96       	adiw	r26, 0x03	; 3
    437e:	9c 93       	st	X, r25
    4380:	8e 93       	st	-X, r24
    4382:	12 97       	sbiw	r26, 0x02	; 2
    4384:	e0 e0       	ldi	r30, 0x00	; 0
    4386:	f0 e0       	ldi	r31, 0x00	; 0
    4388:	8a 81       	ldd	r24, Y+2	; 0x02
    438a:	9b 81       	ldd	r25, Y+3	; 0x03
    438c:	00 97       	sbiw	r24, 0x00	; 0
    438e:	19 f0       	breq	.+6      	; 0x4396 <free+0xe4>
    4390:	fe 01       	movw	r30, r28
    4392:	ec 01       	movw	r28, r24
    4394:	f9 cf       	rjmp	.-14     	; 0x4388 <free+0xd6>
    4396:	ce 01       	movw	r24, r28
    4398:	02 96       	adiw	r24, 0x02	; 2
    439a:	28 81       	ld	r18, Y
    439c:	39 81       	ldd	r19, Y+1	; 0x01
    439e:	82 0f       	add	r24, r18
    43a0:	93 1f       	adc	r25, r19
    43a2:	20 91 c8 02 	lds	r18, 0x02C8
    43a6:	30 91 c9 02 	lds	r19, 0x02C9
    43aa:	28 17       	cp	r18, r24
    43ac:	39 07       	cpc	r19, r25
    43ae:	69 f4       	brne	.+26     	; 0x43ca <free+0x118>
    43b0:	30 97       	sbiw	r30, 0x00	; 0
    43b2:	29 f4       	brne	.+10     	; 0x43be <free+0x10c>
    43b4:	10 92 cb 02 	sts	0x02CB, r1
    43b8:	10 92 ca 02 	sts	0x02CA, r1
    43bc:	02 c0       	rjmp	.+4      	; 0x43c2 <free+0x110>
    43be:	13 82       	std	Z+3, r1	; 0x03
    43c0:	12 82       	std	Z+2, r1	; 0x02
    43c2:	d0 93 c9 02 	sts	0x02C9, r29
    43c6:	c0 93 c8 02 	sts	0x02C8, r28
    43ca:	df 91       	pop	r29
    43cc:	cf 91       	pop	r28
    43ce:	08 95       	ret

000043d0 <__ftoa_engine>:
    43d0:	28 30       	cpi	r18, 0x08	; 8
    43d2:	08 f0       	brcs	.+2      	; 0x43d6 <__ftoa_engine+0x6>
    43d4:	27 e0       	ldi	r18, 0x07	; 7
    43d6:	33 27       	eor	r19, r19
    43d8:	da 01       	movw	r26, r20
    43da:	99 0f       	add	r25, r25
    43dc:	31 1d       	adc	r19, r1
    43de:	87 fd       	sbrc	r24, 7
    43e0:	91 60       	ori	r25, 0x01	; 1
    43e2:	00 96       	adiw	r24, 0x00	; 0
    43e4:	61 05       	cpc	r22, r1
    43e6:	71 05       	cpc	r23, r1
    43e8:	39 f4       	brne	.+14     	; 0x43f8 <__ftoa_engine+0x28>
    43ea:	32 60       	ori	r19, 0x02	; 2
    43ec:	2e 5f       	subi	r18, 0xFE	; 254
    43ee:	3d 93       	st	X+, r19
    43f0:	30 e3       	ldi	r19, 0x30	; 48
    43f2:	2a 95       	dec	r18
    43f4:	e1 f7       	brne	.-8      	; 0x43ee <__ftoa_engine+0x1e>
    43f6:	08 95       	ret
    43f8:	9f 3f       	cpi	r25, 0xFF	; 255
    43fa:	30 f0       	brcs	.+12     	; 0x4408 <__ftoa_engine+0x38>
    43fc:	80 38       	cpi	r24, 0x80	; 128
    43fe:	71 05       	cpc	r23, r1
    4400:	61 05       	cpc	r22, r1
    4402:	09 f0       	breq	.+2      	; 0x4406 <__ftoa_engine+0x36>
    4404:	3c 5f       	subi	r19, 0xFC	; 252
    4406:	3c 5f       	subi	r19, 0xFC	; 252
    4408:	3d 93       	st	X+, r19
    440a:	91 30       	cpi	r25, 0x01	; 1
    440c:	08 f0       	brcs	.+2      	; 0x4410 <__ftoa_engine+0x40>
    440e:	80 68       	ori	r24, 0x80	; 128
    4410:	91 1d       	adc	r25, r1
    4412:	df 93       	push	r29
    4414:	cf 93       	push	r28
    4416:	1f 93       	push	r17
    4418:	0f 93       	push	r16
    441a:	ff 92       	push	r15
    441c:	ef 92       	push	r14
    441e:	19 2f       	mov	r17, r25
    4420:	98 7f       	andi	r25, 0xF8	; 248
    4422:	96 95       	lsr	r25
    4424:	e9 2f       	mov	r30, r25
    4426:	96 95       	lsr	r25
    4428:	96 95       	lsr	r25
    442a:	e9 0f       	add	r30, r25
    442c:	ff 27       	eor	r31, r31
    442e:	e1 51       	subi	r30, 0x11	; 17
    4430:	fa 4f       	sbci	r31, 0xFA	; 250
    4432:	99 27       	eor	r25, r25
    4434:	33 27       	eor	r19, r19
    4436:	ee 24       	eor	r14, r14
    4438:	ff 24       	eor	r15, r15
    443a:	a7 01       	movw	r20, r14
    443c:	e7 01       	movw	r28, r14
    443e:	05 90       	lpm	r0, Z+
    4440:	08 94       	sec
    4442:	07 94       	ror	r0
    4444:	28 f4       	brcc	.+10     	; 0x4450 <__ftoa_engine+0x80>
    4446:	36 0f       	add	r19, r22
    4448:	e7 1e       	adc	r14, r23
    444a:	f8 1e       	adc	r15, r24
    444c:	49 1f       	adc	r20, r25
    444e:	51 1d       	adc	r21, r1
    4450:	66 0f       	add	r22, r22
    4452:	77 1f       	adc	r23, r23
    4454:	88 1f       	adc	r24, r24
    4456:	99 1f       	adc	r25, r25
    4458:	06 94       	lsr	r0
    445a:	a1 f7       	brne	.-24     	; 0x4444 <__ftoa_engine+0x74>
    445c:	05 90       	lpm	r0, Z+
    445e:	07 94       	ror	r0
    4460:	28 f4       	brcc	.+10     	; 0x446c <__ftoa_engine+0x9c>
    4462:	e7 0e       	add	r14, r23
    4464:	f8 1e       	adc	r15, r24
    4466:	49 1f       	adc	r20, r25
    4468:	56 1f       	adc	r21, r22
    446a:	c1 1d       	adc	r28, r1
    446c:	77 0f       	add	r23, r23
    446e:	88 1f       	adc	r24, r24
    4470:	99 1f       	adc	r25, r25
    4472:	66 1f       	adc	r22, r22
    4474:	06 94       	lsr	r0
    4476:	a1 f7       	brne	.-24     	; 0x4460 <__ftoa_engine+0x90>
    4478:	05 90       	lpm	r0, Z+
    447a:	07 94       	ror	r0
    447c:	28 f4       	brcc	.+10     	; 0x4488 <__ftoa_engine+0xb8>
    447e:	f8 0e       	add	r15, r24
    4480:	49 1f       	adc	r20, r25
    4482:	56 1f       	adc	r21, r22
    4484:	c7 1f       	adc	r28, r23
    4486:	d1 1d       	adc	r29, r1
    4488:	88 0f       	add	r24, r24
    448a:	99 1f       	adc	r25, r25
    448c:	66 1f       	adc	r22, r22
    448e:	77 1f       	adc	r23, r23
    4490:	06 94       	lsr	r0
    4492:	a1 f7       	brne	.-24     	; 0x447c <__ftoa_engine+0xac>
    4494:	05 90       	lpm	r0, Z+
    4496:	07 94       	ror	r0
    4498:	20 f4       	brcc	.+8      	; 0x44a2 <__ftoa_engine+0xd2>
    449a:	49 0f       	add	r20, r25
    449c:	56 1f       	adc	r21, r22
    449e:	c7 1f       	adc	r28, r23
    44a0:	d8 1f       	adc	r29, r24
    44a2:	99 0f       	add	r25, r25
    44a4:	66 1f       	adc	r22, r22
    44a6:	77 1f       	adc	r23, r23
    44a8:	88 1f       	adc	r24, r24
    44aa:	06 94       	lsr	r0
    44ac:	a9 f7       	brne	.-22     	; 0x4498 <__ftoa_engine+0xc8>
    44ae:	84 91       	lpm	r24, Z
    44b0:	10 95       	com	r17
    44b2:	17 70       	andi	r17, 0x07	; 7
    44b4:	41 f0       	breq	.+16     	; 0x44c6 <__ftoa_engine+0xf6>
    44b6:	d6 95       	lsr	r29
    44b8:	c7 95       	ror	r28
    44ba:	57 95       	ror	r21
    44bc:	47 95       	ror	r20
    44be:	f7 94       	ror	r15
    44c0:	e7 94       	ror	r14
    44c2:	1a 95       	dec	r17
    44c4:	c1 f7       	brne	.-16     	; 0x44b6 <__ftoa_engine+0xe6>
    44c6:	e5 e9       	ldi	r30, 0x95	; 149
    44c8:	f5 e0       	ldi	r31, 0x05	; 5
    44ca:	68 94       	set
    44cc:	15 90       	lpm	r1, Z+
    44ce:	15 91       	lpm	r17, Z+
    44d0:	35 91       	lpm	r19, Z+
    44d2:	65 91       	lpm	r22, Z+
    44d4:	95 91       	lpm	r25, Z+
    44d6:	05 90       	lpm	r0, Z+
    44d8:	7f e2       	ldi	r23, 0x2F	; 47
    44da:	73 95       	inc	r23
    44dc:	e1 18       	sub	r14, r1
    44de:	f1 0a       	sbc	r15, r17
    44e0:	43 0b       	sbc	r20, r19
    44e2:	56 0b       	sbc	r21, r22
    44e4:	c9 0b       	sbc	r28, r25
    44e6:	d0 09       	sbc	r29, r0
    44e8:	c0 f7       	brcc	.-16     	; 0x44da <__ftoa_engine+0x10a>
    44ea:	e1 0c       	add	r14, r1
    44ec:	f1 1e       	adc	r15, r17
    44ee:	43 1f       	adc	r20, r19
    44f0:	56 1f       	adc	r21, r22
    44f2:	c9 1f       	adc	r28, r25
    44f4:	d0 1d       	adc	r29, r0
    44f6:	7e f4       	brtc	.+30     	; 0x4516 <__ftoa_engine+0x146>
    44f8:	70 33       	cpi	r23, 0x30	; 48
    44fa:	11 f4       	brne	.+4      	; 0x4500 <__ftoa_engine+0x130>
    44fc:	8a 95       	dec	r24
    44fe:	e6 cf       	rjmp	.-52     	; 0x44cc <__ftoa_engine+0xfc>
    4500:	e8 94       	clt
    4502:	01 50       	subi	r16, 0x01	; 1
    4504:	30 f0       	brcs	.+12     	; 0x4512 <__ftoa_engine+0x142>
    4506:	08 0f       	add	r16, r24
    4508:	0a f4       	brpl	.+2      	; 0x450c <__ftoa_engine+0x13c>
    450a:	00 27       	eor	r16, r16
    450c:	02 17       	cp	r16, r18
    450e:	08 f4       	brcc	.+2      	; 0x4512 <__ftoa_engine+0x142>
    4510:	20 2f       	mov	r18, r16
    4512:	23 95       	inc	r18
    4514:	02 2f       	mov	r16, r18
    4516:	7a 33       	cpi	r23, 0x3A	; 58
    4518:	28 f0       	brcs	.+10     	; 0x4524 <__ftoa_engine+0x154>
    451a:	79 e3       	ldi	r23, 0x39	; 57
    451c:	7d 93       	st	X+, r23
    451e:	2a 95       	dec	r18
    4520:	e9 f7       	brne	.-6      	; 0x451c <__ftoa_engine+0x14c>
    4522:	10 c0       	rjmp	.+32     	; 0x4544 <__ftoa_engine+0x174>
    4524:	7d 93       	st	X+, r23
    4526:	2a 95       	dec	r18
    4528:	89 f6       	brne	.-94     	; 0x44cc <__ftoa_engine+0xfc>
    452a:	06 94       	lsr	r0
    452c:	97 95       	ror	r25
    452e:	67 95       	ror	r22
    4530:	37 95       	ror	r19
    4532:	17 95       	ror	r17
    4534:	17 94       	ror	r1
    4536:	e1 18       	sub	r14, r1
    4538:	f1 0a       	sbc	r15, r17
    453a:	43 0b       	sbc	r20, r19
    453c:	56 0b       	sbc	r21, r22
    453e:	c9 0b       	sbc	r28, r25
    4540:	d0 09       	sbc	r29, r0
    4542:	98 f0       	brcs	.+38     	; 0x456a <__ftoa_engine+0x19a>
    4544:	23 95       	inc	r18
    4546:	7e 91       	ld	r23, -X
    4548:	73 95       	inc	r23
    454a:	7a 33       	cpi	r23, 0x3A	; 58
    454c:	08 f0       	brcs	.+2      	; 0x4550 <__ftoa_engine+0x180>
    454e:	70 e3       	ldi	r23, 0x30	; 48
    4550:	7c 93       	st	X, r23
    4552:	20 13       	cpse	r18, r16
    4554:	b8 f7       	brcc	.-18     	; 0x4544 <__ftoa_engine+0x174>
    4556:	7e 91       	ld	r23, -X
    4558:	70 61       	ori	r23, 0x10	; 16
    455a:	7d 93       	st	X+, r23
    455c:	30 f0       	brcs	.+12     	; 0x456a <__ftoa_engine+0x19a>
    455e:	83 95       	inc	r24
    4560:	71 e3       	ldi	r23, 0x31	; 49
    4562:	7d 93       	st	X+, r23
    4564:	70 e3       	ldi	r23, 0x30	; 48
    4566:	2a 95       	dec	r18
    4568:	e1 f7       	brne	.-8      	; 0x4562 <__ftoa_engine+0x192>
    456a:	11 24       	eor	r1, r1
    456c:	ef 90       	pop	r14
    456e:	ff 90       	pop	r15
    4570:	0f 91       	pop	r16
    4572:	1f 91       	pop	r17
    4574:	cf 91       	pop	r28
    4576:	df 91       	pop	r29
    4578:	99 27       	eor	r25, r25
    457a:	87 fd       	sbrc	r24, 7
    457c:	90 95       	com	r25
    457e:	08 95       	ret

00004580 <strnlen_P>:
    4580:	fc 01       	movw	r30, r24
    4582:	05 90       	lpm	r0, Z+
    4584:	61 50       	subi	r22, 0x01	; 1
    4586:	70 40       	sbci	r23, 0x00	; 0
    4588:	01 10       	cpse	r0, r1
    458a:	d8 f7       	brcc	.-10     	; 0x4582 <strnlen_P+0x2>
    458c:	80 95       	com	r24
    458e:	90 95       	com	r25
    4590:	8e 0f       	add	r24, r30
    4592:	9f 1f       	adc	r25, r31
    4594:	08 95       	ret

00004596 <strnlen>:
    4596:	fc 01       	movw	r30, r24
    4598:	61 50       	subi	r22, 0x01	; 1
    459a:	70 40       	sbci	r23, 0x00	; 0
    459c:	01 90       	ld	r0, Z+
    459e:	01 10       	cpse	r0, r1
    45a0:	d8 f7       	brcc	.-10     	; 0x4598 <strnlen+0x2>
    45a2:	80 95       	com	r24
    45a4:	90 95       	com	r25
    45a6:	8e 0f       	add	r24, r30
    45a8:	9f 1f       	adc	r25, r31
    45aa:	08 95       	ret

000045ac <fputc>:
    45ac:	0f 93       	push	r16
    45ae:	1f 93       	push	r17
    45b0:	cf 93       	push	r28
    45b2:	df 93       	push	r29
    45b4:	18 2f       	mov	r17, r24
    45b6:	09 2f       	mov	r16, r25
    45b8:	eb 01       	movw	r28, r22
    45ba:	8b 81       	ldd	r24, Y+3	; 0x03
    45bc:	81 fd       	sbrc	r24, 1
    45be:	03 c0       	rjmp	.+6      	; 0x45c6 <fputc+0x1a>
    45c0:	8f ef       	ldi	r24, 0xFF	; 255
    45c2:	9f ef       	ldi	r25, 0xFF	; 255
    45c4:	20 c0       	rjmp	.+64     	; 0x4606 <fputc+0x5a>
    45c6:	82 ff       	sbrs	r24, 2
    45c8:	10 c0       	rjmp	.+32     	; 0x45ea <fputc+0x3e>
    45ca:	4e 81       	ldd	r20, Y+6	; 0x06
    45cc:	5f 81       	ldd	r21, Y+7	; 0x07
    45ce:	2c 81       	ldd	r18, Y+4	; 0x04
    45d0:	3d 81       	ldd	r19, Y+5	; 0x05
    45d2:	42 17       	cp	r20, r18
    45d4:	53 07       	cpc	r21, r19
    45d6:	7c f4       	brge	.+30     	; 0x45f6 <fputc+0x4a>
    45d8:	e8 81       	ld	r30, Y
    45da:	f9 81       	ldd	r31, Y+1	; 0x01
    45dc:	9f 01       	movw	r18, r30
    45de:	2f 5f       	subi	r18, 0xFF	; 255
    45e0:	3f 4f       	sbci	r19, 0xFF	; 255
    45e2:	39 83       	std	Y+1, r19	; 0x01
    45e4:	28 83       	st	Y, r18
    45e6:	10 83       	st	Z, r17
    45e8:	06 c0       	rjmp	.+12     	; 0x45f6 <fputc+0x4a>
    45ea:	e8 85       	ldd	r30, Y+8	; 0x08
    45ec:	f9 85       	ldd	r31, Y+9	; 0x09
    45ee:	81 2f       	mov	r24, r17
    45f0:	09 95       	icall
    45f2:	89 2b       	or	r24, r25
    45f4:	29 f7       	brne	.-54     	; 0x45c0 <fputc+0x14>
    45f6:	2e 81       	ldd	r18, Y+6	; 0x06
    45f8:	3f 81       	ldd	r19, Y+7	; 0x07
    45fa:	2f 5f       	subi	r18, 0xFF	; 255
    45fc:	3f 4f       	sbci	r19, 0xFF	; 255
    45fe:	3f 83       	std	Y+7, r19	; 0x07
    4600:	2e 83       	std	Y+6, r18	; 0x06
    4602:	81 2f       	mov	r24, r17
    4604:	90 2f       	mov	r25, r16
    4606:	df 91       	pop	r29
    4608:	cf 91       	pop	r28
    460a:	1f 91       	pop	r17
    460c:	0f 91       	pop	r16
    460e:	08 95       	ret

00004610 <printf>:
    4610:	a0 e0       	ldi	r26, 0x00	; 0
    4612:	b0 e0       	ldi	r27, 0x00	; 0
    4614:	ee e0       	ldi	r30, 0x0E	; 14
    4616:	f3 e2       	ldi	r31, 0x23	; 35
    4618:	0c 94 77 20 	jmp	0x40ee	; 0x40ee <__prologue_saves__+0x20>
    461c:	fe 01       	movw	r30, r28
    461e:	35 96       	adiw	r30, 0x05	; 5
    4620:	61 91       	ld	r22, Z+
    4622:	71 91       	ld	r23, Z+
    4624:	af 01       	movw	r20, r30
    4626:	80 91 ce 02 	lds	r24, 0x02CE
    462a:	90 91 cf 02 	lds	r25, 0x02CF
    462e:	0e 94 6c 1b 	call	0x36d8	; 0x36d8 <vfprintf>
    4632:	e2 e0       	ldi	r30, 0x02	; 2
    4634:	0c 94 93 20 	jmp	0x4126	; 0x4126 <__epilogue_restores__+0x20>

00004638 <__ultoa_invert>:
    4638:	fa 01       	movw	r30, r20
    463a:	aa 27       	eor	r26, r26
    463c:	28 30       	cpi	r18, 0x08	; 8
    463e:	51 f1       	breq	.+84     	; 0x4694 <__ultoa_invert+0x5c>
    4640:	20 31       	cpi	r18, 0x10	; 16
    4642:	81 f1       	breq	.+96     	; 0x46a4 <__ultoa_invert+0x6c>
    4644:	e8 94       	clt
    4646:	6f 93       	push	r22
    4648:	6e 7f       	andi	r22, 0xFE	; 254
    464a:	6e 5f       	subi	r22, 0xFE	; 254
    464c:	7f 4f       	sbci	r23, 0xFF	; 255
    464e:	8f 4f       	sbci	r24, 0xFF	; 255
    4650:	9f 4f       	sbci	r25, 0xFF	; 255
    4652:	af 4f       	sbci	r26, 0xFF	; 255
    4654:	b1 e0       	ldi	r27, 0x01	; 1
    4656:	3e d0       	rcall	.+124    	; 0x46d4 <__ultoa_invert+0x9c>
    4658:	b4 e0       	ldi	r27, 0x04	; 4
    465a:	3c d0       	rcall	.+120    	; 0x46d4 <__ultoa_invert+0x9c>
    465c:	67 0f       	add	r22, r23
    465e:	78 1f       	adc	r23, r24
    4660:	89 1f       	adc	r24, r25
    4662:	9a 1f       	adc	r25, r26
    4664:	a1 1d       	adc	r26, r1
    4666:	68 0f       	add	r22, r24
    4668:	79 1f       	adc	r23, r25
    466a:	8a 1f       	adc	r24, r26
    466c:	91 1d       	adc	r25, r1
    466e:	a1 1d       	adc	r26, r1
    4670:	6a 0f       	add	r22, r26
    4672:	71 1d       	adc	r23, r1
    4674:	81 1d       	adc	r24, r1
    4676:	91 1d       	adc	r25, r1
    4678:	a1 1d       	adc	r26, r1
    467a:	20 d0       	rcall	.+64     	; 0x46bc <__ultoa_invert+0x84>
    467c:	09 f4       	brne	.+2      	; 0x4680 <__ultoa_invert+0x48>
    467e:	68 94       	set
    4680:	3f 91       	pop	r19
    4682:	2a e0       	ldi	r18, 0x0A	; 10
    4684:	26 9f       	mul	r18, r22
    4686:	11 24       	eor	r1, r1
    4688:	30 19       	sub	r19, r0
    468a:	30 5d       	subi	r19, 0xD0	; 208
    468c:	31 93       	st	Z+, r19
    468e:	de f6       	brtc	.-74     	; 0x4646 <__ultoa_invert+0xe>
    4690:	cf 01       	movw	r24, r30
    4692:	08 95       	ret
    4694:	46 2f       	mov	r20, r22
    4696:	47 70       	andi	r20, 0x07	; 7
    4698:	40 5d       	subi	r20, 0xD0	; 208
    469a:	41 93       	st	Z+, r20
    469c:	b3 e0       	ldi	r27, 0x03	; 3
    469e:	0f d0       	rcall	.+30     	; 0x46be <__ultoa_invert+0x86>
    46a0:	c9 f7       	brne	.-14     	; 0x4694 <__ultoa_invert+0x5c>
    46a2:	f6 cf       	rjmp	.-20     	; 0x4690 <__ultoa_invert+0x58>
    46a4:	46 2f       	mov	r20, r22
    46a6:	4f 70       	andi	r20, 0x0F	; 15
    46a8:	40 5d       	subi	r20, 0xD0	; 208
    46aa:	4a 33       	cpi	r20, 0x3A	; 58
    46ac:	18 f0       	brcs	.+6      	; 0x46b4 <__ultoa_invert+0x7c>
    46ae:	49 5d       	subi	r20, 0xD9	; 217
    46b0:	31 fd       	sbrc	r19, 1
    46b2:	40 52       	subi	r20, 0x20	; 32
    46b4:	41 93       	st	Z+, r20
    46b6:	02 d0       	rcall	.+4      	; 0x46bc <__ultoa_invert+0x84>
    46b8:	a9 f7       	brne	.-22     	; 0x46a4 <__ultoa_invert+0x6c>
    46ba:	ea cf       	rjmp	.-44     	; 0x4690 <__ultoa_invert+0x58>
    46bc:	b4 e0       	ldi	r27, 0x04	; 4
    46be:	a6 95       	lsr	r26
    46c0:	97 95       	ror	r25
    46c2:	87 95       	ror	r24
    46c4:	77 95       	ror	r23
    46c6:	67 95       	ror	r22
    46c8:	ba 95       	dec	r27
    46ca:	c9 f7       	brne	.-14     	; 0x46be <__ultoa_invert+0x86>
    46cc:	00 97       	sbiw	r24, 0x00	; 0
    46ce:	61 05       	cpc	r22, r1
    46d0:	71 05       	cpc	r23, r1
    46d2:	08 95       	ret
    46d4:	9b 01       	movw	r18, r22
    46d6:	ac 01       	movw	r20, r24
    46d8:	0a 2e       	mov	r0, r26
    46da:	06 94       	lsr	r0
    46dc:	57 95       	ror	r21
    46de:	47 95       	ror	r20
    46e0:	37 95       	ror	r19
    46e2:	27 95       	ror	r18
    46e4:	ba 95       	dec	r27
    46e6:	c9 f7       	brne	.-14     	; 0x46da <__ultoa_invert+0xa2>
    46e8:	62 0f       	add	r22, r18
    46ea:	73 1f       	adc	r23, r19
    46ec:	84 1f       	adc	r24, r20
    46ee:	95 1f       	adc	r25, r21
    46f0:	a0 1d       	adc	r26, r0
    46f2:	08 95       	ret

000046f4 <_exit>:
    46f4:	f8 94       	cli

000046f6 <__stop_program>:
    46f6:	ff cf       	rjmp	.-2      	; 0x46f6 <__stop_program>
