
lab4demo.elf:     file format elf32-avr

Sections:
Idx Name          Size      VMA       LMA       File off  Algn
  0 .data         0000029c  00800100  00006b0a  00006b9e  2**0
                  CONTENTS, ALLOC, LOAD, DATA
  1 .text         00006b0a  00000000  00000000  00000094  2**1
                  CONTENTS, ALLOC, LOAD, READONLY, CODE
  2 .bss          000000f4  0080039c  0080039c  00006e3a  2**0
                  ALLOC
  3 .comment      0000005c  00000000  00000000  00006e3a  2**0
                  CONTENTS, READONLY
  4 .debug_aranges 00000108  00000000  00000000  00006e96  2**0
                  CONTENTS, READONLY, DEBUGGING
  5 .debug_info   000032b3  00000000  00000000  00006f9e  2**0
                  CONTENTS, READONLY, DEBUGGING
  6 .debug_abbrev 000003de  00000000  00000000  0000a251  2**0
                  CONTENTS, READONLY, DEBUGGING
  7 .debug_line   000007a8  00000000  00000000  0000a62f  2**0
                  CONTENTS, READONLY, DEBUGGING
  8 .debug_frame  00000a2c  00000000  00000000  0000add8  2**2
                  CONTENTS, READONLY, DEBUGGING
  9 .debug_str    000009d0  00000000  00000000  0000b804  2**0
                  CONTENTS, READONLY, DEBUGGING
 10 .debug_loc    00003d9f  00000000  00000000  0000c1d4  2**0
                  CONTENTS, READONLY, DEBUGGING
 11 .debug_ranges 000000f8  00000000  00000000  0000ff73  2**0
                  CONTENTS, READONLY, DEBUGGING

Disassembly of section .text:

00000000 <__vectors>:
       0:	0c 94 57 03 	jmp	0x6ae	; 0x6ae <__ctors_end>
       4:	0c 94 74 03 	jmp	0x6e8	; 0x6e8 <__bad_interrupt>
       8:	0c 94 74 03 	jmp	0x6e8	; 0x6e8 <__bad_interrupt>
       c:	0c 94 74 03 	jmp	0x6e8	; 0x6e8 <__bad_interrupt>
      10:	0c 94 be 0c 	jmp	0x197c	; 0x197c <__vector_4>
      14:	0c 94 e7 0c 	jmp	0x19ce	; 0x19ce <__vector_5>
      18:	0c 94 10 0d 	jmp	0x1a20	; 0x1a20 <__vector_6>
      1c:	0c 94 39 0d 	jmp	0x1a72	; 0x1a72 <__vector_7>
      20:	0c 94 74 03 	jmp	0x6e8	; 0x6e8 <__bad_interrupt>
      24:	0c 94 9f 0b 	jmp	0x173e	; 0x173e <__vector_9>
      28:	0c 94 c8 0b 	jmp	0x1790	; 0x1790 <__vector_10>
      2c:	0c 94 f1 0b 	jmp	0x17e2	; 0x17e2 <__vector_11>
      30:	0c 94 6c 0c 	jmp	0x18d8	; 0x18d8 <__vector_12>
      34:	0c 94 1a 0c 	jmp	0x1834	; 0x1834 <__vector_13>
      38:	0c 94 43 0c 	jmp	0x1886	; 0x1886 <__vector_14>
      3c:	0c 94 95 0c 	jmp	0x192a	; 0x192a <__vector_15>
      40:	0c 94 24 0b 	jmp	0x1648	; 0x1648 <__vector_16>
      44:	0c 94 4d 0b 	jmp	0x169a	; 0x169a <__vector_17>
      48:	0c 94 76 0b 	jmp	0x16ec	; 0x16ec <__vector_18>
      4c:	0c 94 74 03 	jmp	0x6e8	; 0x6e8 <__bad_interrupt>
      50:	0c 94 74 03 	jmp	0x6e8	; 0x6e8 <__bad_interrupt>
      54:	0c 94 74 03 	jmp	0x6e8	; 0x6e8 <__bad_interrupt>
      58:	0c 94 74 03 	jmp	0x6e8	; 0x6e8 <__bad_interrupt>
      5c:	0c 94 74 03 	jmp	0x6e8	; 0x6e8 <__bad_interrupt>
      60:	0c 94 74 03 	jmp	0x6e8	; 0x6e8 <__bad_interrupt>
      64:	0c 94 74 03 	jmp	0x6e8	; 0x6e8 <__bad_interrupt>
      68:	0c 94 74 03 	jmp	0x6e8	; 0x6e8 <__bad_interrupt>
      6c:	0c 94 74 03 	jmp	0x6e8	; 0x6e8 <__bad_interrupt>
      70:	0c 94 74 03 	jmp	0x6e8	; 0x6e8 <__bad_interrupt>
      74:	0c 94 74 03 	jmp	0x6e8	; 0x6e8 <__bad_interrupt>
      78:	0c 94 74 03 	jmp	0x6e8	; 0x6e8 <__bad_interrupt>
      7c:	08 4a       	sbci	r16, 0xA8	; 168
      7e:	d7 3b       	cpi	r29, 0xB7	; 183
      80:	3b ce       	rjmp	.-906    	; 0xfffffcf8 <__eeprom_end+0xff7efcf8>
      82:	01 6e       	ori	r16, 0xE1	; 225
      84:	84 bc       	out	0x24, r8	; 36
      86:	bf fd       	.word	0xfdbf	; ????
      88:	c1 2f       	mov	r28, r17
      8a:	3d 6c       	ori	r19, 0xCD	; 205
      8c:	74 31       	cpi	r23, 0x14	; 20
      8e:	9a bd       	out	0x2a, r25	; 42
      90:	56 83       	std	Z+6, r21	; 0x06
      92:	3d da       	rcall	.-2950   	; 0xfffff50e <__eeprom_end+0xff7ef50e>
      94:	3d 00       	.word	0x003d	; ????
      96:	c7 7f       	andi	r28, 0xF7	; 247
      98:	11 be       	out	0x31, r1	; 49
      9a:	d9 e4       	ldi	r29, 0x49	; 73
      9c:	bb 4c       	sbci	r27, 0xCB	; 203
      9e:	3e 91       	ld	r19, -X
      a0:	6b aa       	std	Y+51, r6	; 0x33
      a2:	aa be       	out	0x3a, r10	; 58
      a4:	00 00       	nop
      a6:	00 80       	ld	r0, Z
      a8:	3f 05       	cpc	r19, r15
      aa:	a8 4c       	sbci	r26, 0xC8	; 200
      ac:	cd b2       	in	r12, 0x1d	; 29
      ae:	d4 4e       	sbci	r29, 0xE4	; 228
      b0:	b9 38       	cpi	r27, 0x89	; 137
      b2:	36 a9       	ldd	r19, Z+54	; 0x36
      b4:	02 0c       	add	r0, r2
      b6:	50 b9       	out	0x00, r21	; 0
      b8:	91 86       	std	Z+9, r9	; 0x09
      ba:	88 08       	sbc	r8, r8
      bc:	3c a6       	std	Y+44, r3	; 0x2c
      be:	aa aa       	std	Y+50, r10	; 0x32
      c0:	2a be       	out	0x3a, r2	; 58
      c2:	00 00       	nop
      c4:	00 80       	ld	r0, Z
      c6:	3f 00       	.word	0x003f	; ????
      c8:	8d 09       	sbc	r24, r13
      ca:	90 09       	sbc	r25, r0
      cc:	93 09       	sbc	r25, r3
      ce:	96 09       	sbc	r25, r6
      d0:	9f 09       	sbc	r25, r15
      d2:	99 09       	sbc	r25, r9
      d4:	9c 09       	sbc	r25, r12
      d6:	a2 09       	sbc	r26, r2
      d8:	a5 09       	sbc	r26, r5
      da:	a8 09       	sbc	r26, r8
      dc:	ab 09       	sbc	r26, r11
      de:	ae 09       	sbc	r26, r14
      e0:	b1 09       	sbc	r27, r1
      e2:	b4 09       	sbc	r27, r4
      e4:	b7 09       	sbc	r27, r7
      e6:	ba 09       	sbc	r27, r10
      e8:	bd 09       	sbc	r27, r13
      ea:	c0 09       	sbc	r28, r0
      ec:	c3 09       	sbc	r28, r3
      ee:	d4 09       	sbc	r29, r4
      f0:	d7 09       	sbc	r29, r7
      f2:	da 09       	sbc	r29, r10
      f4:	dd 09       	sbc	r29, r13
      f6:	e6 09       	sbc	r30, r6
      f8:	e0 09       	sbc	r30, r0
      fa:	e3 09       	sbc	r30, r3
      fc:	e9 09       	sbc	r30, r9
      fe:	ec 09       	sbc	r30, r12
     100:	ef 09       	sbc	r30, r15
     102:	f2 09       	sbc	r31, r2
     104:	f5 09       	sbc	r31, r5
     106:	f8 09       	sbc	r31, r8
     108:	fb 09       	sbc	r31, r11
     10a:	fe 09       	sbc	r31, r14
     10c:	01 0a       	sbc	r0, r17
     10e:	04 0a       	sbc	r0, r20
     110:	07 0a       	sbc	r0, r23
     112:	0a 0a       	sbc	r0, r26
     114:	07 63       	ori	r16, 0x37	; 55
     116:	42 36       	cpi	r20, 0x62	; 98
     118:	b7 9b       	sbis	0x16, 7	; 22
     11a:	d8 a7       	std	Y+40, r29	; 0x28
     11c:	1a 39       	cpi	r17, 0x9A	; 154
     11e:	68 56       	subi	r22, 0x68	; 104
     120:	18 ae       	std	Y+56, r1	; 0x38
     122:	ba ab       	std	Y+50, r27	; 0x32
     124:	55 8c       	ldd	r5, Z+29	; 0x1d
     126:	1d 3c       	cpi	r17, 0xCD	; 205
     128:	b7 cc       	rjmp	.-1682   	; 0xfffffa98 <__eeprom_end+0xff7efa98>
     12a:	57 63       	ori	r21, 0x37	; 55
     12c:	bd 6d       	ori	r27, 0xDD	; 221
     12e:	ed fd       	.word	0xfded	; ????
     130:	75 3e       	cpi	r23, 0xE5	; 229
     132:	f6 17       	cp	r31, r22
     134:	72 31       	cpi	r23, 0x12	; 18
     136:	bf 00       	.word	0x00bf	; ????
     138:	00 00       	nop
     13a:	80 3f       	cpi	r24, 0xF0	; 240
     13c:	08 00       	.word	0x0008	; ????
     13e:	00 00       	nop
     140:	be 92       	st	-X, r11
     142:	24 49       	sbci	r18, 0x94	; 148
     144:	12 3e       	cpi	r17, 0xE2	; 226
     146:	ab aa       	std	Y+51, r10	; 0x33
     148:	aa 2a       	or	r10, r26
     14a:	be cd       	rjmp	.-1156   	; 0xfffffcc8 <__eeprom_end+0xff7efcc8>
     14c:	cc cc       	rjmp	.-1640   	; 0xfffffae6 <__eeprom_end+0xff7efae6>
     14e:	4c 3e       	cpi	r20, 0xEC	; 236
     150:	00 00       	nop
     152:	00 80       	ld	r0, Z
     154:	be ab       	std	Y+54, r27	; 0x36
     156:	aa aa       	std	Y+50, r10	; 0x32
     158:	aa 3e       	cpi	r26, 0xEA	; 234
     15a:	00 00       	nop
     15c:	00 00       	nop
     15e:	bf 00       	.word	0x00bf	; ????
     160:	00 00       	nop
     162:	80 3f       	cpi	r24, 0xF0	; 240
     164:	00 00       	nop
     166:	00 00       	nop
     168:	00 08       	sbc	r0, r0
     16a:	41 78       	andi	r20, 0x81	; 129
     16c:	d3 bb       	out	0x13, r29	; 19
     16e:	43 87       	std	Z+11, r20	; 0x0b
     170:	d1 13       	cpse	r29, r17
     172:	3d 19       	sub	r19, r13
     174:	0e 3c       	cpi	r16, 0xCE	; 206
     176:	c3 bd       	out	0x23, r28	; 35
     178:	42 82       	std	Z+2, r4	; 0x02
     17a:	ad 2b       	or	r26, r29
     17c:	3e 68       	ori	r19, 0x8E	; 142
     17e:	ec 82       	std	Y+4, r14	; 0x04
     180:	76 be       	out	0x36, r7	; 54
     182:	d9 8f       	std	Y+25, r29	; 0x19
     184:	e1 a9       	ldd	r30, Z+49	; 0x31
     186:	3e 4c       	sbci	r19, 0xCE	; 206
     188:	80 ef       	ldi	r24, 0xF0	; 240
     18a:	ff be       	out	0x3f, r15	; 63
     18c:	01 c4       	rjmp	.+2050   	; 0x990 <LCD_set_PGC_addr+0x2c>
     18e:	ff 7f       	andi	r31, 0xFF	; 255
     190:	3f 00       	.word	0x003f	; ????
     192:	00 00       	nop
	...

00000196 <__trampolines_end>:
     196:	16 05       	cpc	r17, r6
     198:	01 00       	.word	0x0001	; ????
     19a:	00 00       	nop
     19c:	00 00       	nop
     19e:	00 00       	nop
     1a0:	fa 00       	.word	0x00fa	; ????
     1a2:	00 00       	nop
     1a4:	e0 00       	.word	0x00e0	; ????
     1a6:	e0 00       	.word	0x00e0	; ????
     1a8:	28 fe       	.word	0xfe28	; ????
     1aa:	28 fe       	.word	0xfe28	; ????
     1ac:	28 24       	eor	r2, r8
     1ae:	54 fe       	sbrs	r5, 4
     1b0:	54 48       	sbci	r21, 0x84	; 132
     1b2:	c4 c8       	rjmp	.-3704   	; 0xfffff33c <__eeprom_end+0xff7ef33c>
     1b4:	10 26       	eor	r1, r16
     1b6:	46 6c       	ori	r20, 0xC6	; 198
     1b8:	92 aa       	std	Z+50, r9	; 0x32
     1ba:	44 a0       	ldd	r4, Z+36	; 0x24
     1bc:	00 a0       	ldd	r0, Z+32	; 0x20
     1be:	c0 00       	.word	0x00c0	; ????
     1c0:	00 00       	nop
     1c2:	38 44       	sbci	r19, 0x48	; 72
     1c4:	82 00       	.word	0x0082	; ????
     1c6:	00 82       	st	Z, r0
     1c8:	44 38       	cpi	r20, 0x84	; 132
     1ca:	00 28       	or	r0, r0
     1cc:	10 7c       	andi	r17, 0xC0	; 192
     1ce:	10 28       	or	r1, r0
     1d0:	10 10       	cpse	r1, r0
     1d2:	7c 10       	cpse	r7, r12
     1d4:	10 00       	.word	0x0010	; ????
     1d6:	0a 0c       	add	r0, r10
     1d8:	00 00       	nop
     1da:	10 10       	cpse	r1, r0
     1dc:	10 10       	cpse	r1, r0
     1de:	10 00       	.word	0x0010	; ????
     1e0:	06 06       	cpc	r0, r22
     1e2:	00 00       	nop
     1e4:	04 08       	sbc	r0, r4
     1e6:	10 20       	and	r1, r0
     1e8:	40 7c       	andi	r20, 0xC0	; 192
     1ea:	8a 92       	st	-Y, r8
     1ec:	a2 7c       	andi	r26, 0xC2	; 194
     1ee:	00 42       	sbci	r16, 0x20	; 32
     1f0:	fe 02       	muls	r31, r30
     1f2:	00 42       	sbci	r16, 0x20	; 32
     1f4:	86 8a       	std	Z+22, r8	; 0x16
     1f6:	92 62       	ori	r25, 0x22	; 34
     1f8:	84 82       	std	Z+4, r8	; 0x04
     1fa:	a2 d2       	rcall	.+1348   	; 0x740 <ADC_sample+0x38>
     1fc:	8c 18       	sub	r8, r12
     1fe:	28 48       	sbci	r18, 0x88	; 136
     200:	fe 08       	sbc	r15, r14
     202:	e4 a2       	std	Z+36, r14	; 0x24
     204:	a2 a2       	std	Z+34, r10	; 0x22
     206:	9c 3c       	cpi	r25, 0xCC	; 204
     208:	52 92       	st	-Z, r5
     20a:	92 0c       	add	r9, r2
     20c:	80 8e       	std	Z+24, r8	; 0x18
     20e:	90 a0       	ldd	r9, Z+32	; 0x20
     210:	c0 6c       	ori	r28, 0xC0	; 192
     212:	92 92       	st	-Z, r9
     214:	92 6c       	ori	r25, 0xC2	; 194
     216:	60 92 92 94 	sts	0x9492, r6
     21a:	78 00       	.word	0x0078	; ????
     21c:	6c 6c       	ori	r22, 0xCC	; 204
     21e:	00 00       	nop
     220:	00 6a       	ori	r16, 0xA0	; 160
     222:	6c 00       	.word	0x006c	; ????
     224:	00 10       	cpse	r0, r0
     226:	28 44       	sbci	r18, 0x48	; 72
     228:	82 00       	.word	0x0082	; ????
     22a:	28 28       	or	r2, r8
     22c:	28 28       	or	r2, r8
     22e:	28 00       	.word	0x0028	; ????
     230:	82 44       	sbci	r24, 0x42	; 66
     232:	28 10       	cpse	r2, r8
     234:	40 80       	ld	r4, Z
     236:	8a 90       	ld	r8, -Y
     238:	60 4c       	sbci	r22, 0xC0	; 192
     23a:	92 9e       	mul	r9, r18
     23c:	82 7c       	andi	r24, 0xC2	; 194
     23e:	7e 88       	ldd	r7, Y+22	; 0x16
     240:	88 88       	ldd	r8, Y+16	; 0x10
     242:	7e fe       	.word	0xfe7e	; ????
     244:	92 92       	st	-Z, r9
     246:	92 6c       	ori	r25, 0xC2	; 194
     248:	7c 82       	std	Y+4, r7	; 0x04
     24a:	82 82       	std	Z+2, r8	; 0x02
     24c:	44 fe       	sbrs	r4, 4
     24e:	82 82       	std	Z+2, r8	; 0x02
     250:	44 38       	cpi	r20, 0x84	; 132
     252:	fe 92       	st	-X, r15
     254:	92 92       	st	-Z, r9
     256:	82 fe       	sbrs	r8, 2
     258:	90 90 90 80 	lds	r9, 0x8090
     25c:	7c 82       	std	Y+4, r7	; 0x04
     25e:	92 92       	st	-Z, r9
     260:	5e fe       	.word	0xfe5e	; ????
     262:	10 10       	cpse	r1, r0
     264:	10 fe       	sbrs	r1, 0
     266:	00 82       	st	Z, r0
     268:	fe 82       	std	Y+6, r15	; 0x06
     26a:	00 04       	cpc	r0, r0
     26c:	02 82       	std	Z+2, r0	; 0x02
     26e:	fc 80       	ldd	r15, Y+4	; 0x04
     270:	fe 10       	cpse	r15, r14
     272:	28 44       	sbci	r18, 0x48	; 72
     274:	82 fe       	sbrs	r8, 2
     276:	02 02       	muls	r16, r18
     278:	02 02       	muls	r16, r18
     27a:	fe 40       	sbci	r31, 0x0E	; 14
     27c:	30 40       	sbci	r19, 0x00	; 0
     27e:	fe fe       	.word	0xfefe	; ????
     280:	20 10       	cpse	r2, r0
     282:	08 fe       	.word	0xfe08	; ????
     284:	7c 82       	std	Y+4, r7	; 0x04
     286:	82 82       	std	Z+2, r8	; 0x02
     288:	7c fe       	.word	0xfe7c	; ????
     28a:	90 90 90 60 	lds	r9, 0x6090
     28e:	7c 82       	std	Y+4, r7	; 0x04
     290:	8a 84       	ldd	r8, Y+10	; 0x0a
     292:	7a fe       	.word	0xfe7a	; ????
     294:	90 98       	cbi	0x12, 0	; 18
     296:	94 62       	ori	r25, 0x24	; 36
     298:	62 92       	st	-Z, r6
     29a:	92 92       	st	-Z, r9
     29c:	8c 80       	ldd	r8, Y+4	; 0x04
     29e:	80 fe       	sbrs	r8, 0
     2a0:	80 80       	ld	r8, Z
     2a2:	fc 02       	muls	r31, r28
     2a4:	02 02       	muls	r16, r18
     2a6:	fc f8       	.word	0xf8fc	; ????
     2a8:	04 02       	muls	r16, r20
     2aa:	04 f8       	bld	r0, 4
     2ac:	fc 02       	muls	r31, r28
     2ae:	1c 02       	muls	r17, r28
     2b0:	fc c6       	rjmp	.+3576   	; 0x10aa <STEPPER_set_mode+0x1a>
     2b2:	28 10       	cpse	r2, r8
     2b4:	28 c6       	rjmp	.+3152   	; 0xf06 <STEPPER_move+0x10e>
     2b6:	e0 10       	cpse	r14, r0
     2b8:	0e 10       	cpse	r0, r14
     2ba:	e0 86       	std	Z+8, r14	; 0x08
     2bc:	8a 92       	st	-Y, r8
     2be:	a2 c2       	rjmp	.+1348   	; 0x804 <LCD_clear+0x2c>
     2c0:	00 fe       	sbrs	r0, 0
     2c2:	82 82       	std	Z+2, r8	; 0x02
     2c4:	00 40       	sbci	r16, 0x00	; 0
     2c6:	20 10       	cpse	r2, r0
     2c8:	08 04       	cpc	r0, r8
     2ca:	00 82       	st	Z, r0
     2cc:	82 fe       	sbrs	r8, 2
     2ce:	00 20       	and	r0, r0
     2d0:	40 80       	ld	r4, Z
     2d2:	40 20       	and	r4, r0
     2d4:	02 02       	muls	r16, r18
     2d6:	02 02       	muls	r16, r18
     2d8:	02 00       	.word	0x0002	; ????
     2da:	80 40       	sbci	r24, 0x00	; 0
     2dc:	20 00       	.word	0x0020	; ????
     2de:	04 2a       	or	r0, r20
     2e0:	2a 2a       	or	r2, r26
     2e2:	1e fe       	.word	0xfe1e	; ????
     2e4:	12 22       	and	r1, r18
     2e6:	22 1c       	adc	r2, r2
     2e8:	1c 22       	and	r1, r28
     2ea:	22 22       	and	r2, r18
     2ec:	04 1c       	adc	r0, r4
     2ee:	22 22       	and	r2, r18
     2f0:	12 fe       	sbrs	r1, 2
     2f2:	1c 2a       	or	r1, r28
     2f4:	2a 2a       	or	r2, r26
     2f6:	18 10       	cpse	r1, r8
     2f8:	7e 90       	ld	r7, -X
     2fa:	80 40       	sbci	r24, 0x00	; 0
     2fc:	30 4a       	sbci	r19, 0xA0	; 160
     2fe:	4a 4a       	sbci	r20, 0xAA	; 170
     300:	7c fe       	.word	0xfe7c	; ????
     302:	10 20       	and	r1, r0
     304:	20 1e       	adc	r2, r16
     306:	00 22       	and	r0, r16
     308:	be 02       	muls	r27, r30
     30a:	00 04       	cpc	r0, r0
     30c:	02 22       	and	r0, r18
     30e:	bc 00       	.word	0x00bc	; ????
     310:	fe 08       	sbc	r15, r14
     312:	14 22       	and	r1, r20
     314:	00 00       	nop
     316:	82 fe       	sbrs	r8, 2
     318:	02 00       	.word	0x0002	; ????
     31a:	3e 20       	and	r3, r14
     31c:	18 20       	and	r1, r8
     31e:	1e 3e       	cpi	r17, 0xEE	; 238
     320:	10 20       	and	r1, r0
     322:	20 1e       	adc	r2, r16
     324:	1c 22       	and	r1, r28
     326:	22 22       	and	r2, r18
     328:	1c 3e       	cpi	r17, 0xEC	; 236
     32a:	28 28       	or	r2, r8
     32c:	28 10       	cpse	r2, r8
     32e:	10 28       	or	r1, r0
     330:	28 18       	sub	r2, r8
     332:	3e 3e       	cpi	r19, 0xEE	; 238
     334:	10 20       	and	r1, r0
     336:	20 10       	cpse	r2, r0
     338:	12 2a       	or	r1, r18
     33a:	2a 2a       	or	r2, r26
     33c:	04 20       	and	r0, r4
     33e:	fc 22       	and	r15, r28
     340:	02 04       	cpc	r0, r2
     342:	3c 02       	muls	r19, r28
     344:	02 04       	cpc	r0, r2
     346:	3e 38       	cpi	r19, 0x8E	; 142
     348:	04 02       	muls	r16, r20
     34a:	04 38       	cpi	r16, 0x84	; 132
     34c:	3c 02       	muls	r19, r28
     34e:	0c 02       	muls	r16, r28
     350:	3c 22       	and	r3, r28
     352:	14 08       	sbc	r1, r4
     354:	14 22       	and	r1, r20
     356:	30 0a       	sbc	r3, r16
     358:	0a 0a       	sbc	r0, r26
     35a:	3c 22       	and	r3, r28
     35c:	26 2a       	or	r2, r22
     35e:	32 22       	and	r3, r18
     360:	00 10       	cpse	r0, r0
     362:	6c 82       	std	Y+4, r6	; 0x04
     364:	00 00       	nop
     366:	00 fe       	sbrs	r0, 0
     368:	00 00       	nop
     36a:	00 82       	st	Z, r0
     36c:	6c 10       	cpse	r6, r12
     36e:	00 08       	sbc	r0, r0
     370:	10 10       	cpse	r1, r0
     372:	08 10       	cpse	r0, r8
     374:	00 00       	nop
     376:	00 00       	nop
     378:	00 7f       	andi	r16, 0xF0	; 240
     37a:	81 81       	ldd	r24, Z+1	; 0x01
     37c:	81 7f       	andi	r24, 0xF1	; 241
     37e:	7f 83       	std	Y+7, r23	; 0x07
     380:	83 83       	std	Z+3, r24	; 0x03
     382:	7f 7f       	andi	r23, 0xFF	; 255
     384:	87 87       	std	Z+15, r24	; 0x0f
     386:	87 7f       	andi	r24, 0xF7	; 247
     388:	7f 8f       	std	Y+31, r23	; 0x1f
     38a:	8f 8f       	std	Y+31, r24	; 0x1f
     38c:	7f 7f       	andi	r23, 0xFF	; 255
     38e:	9f 9f       	mul	r25, r31
     390:	9f 7f       	andi	r25, 0xFF	; 255
     392:	7f bf       	out	0x3f, r23	; 63
     394:	bf bf       	out	0x3f, r27	; 63
     396:	7f 7f       	andi	r23, 0xFF	; 255
     398:	ff ff       	.word	0xffff	; ????
     39a:	ff 7f       	andi	r31, 0xFF	; 255
     39c:	20 40       	sbci	r18, 0x00	; 0
     39e:	ff 40       	sbci	r31, 0x0F	; 15
     3a0:	20 62       	ori	r18, 0x20	; 32
     3a2:	15 17       	cp	r17, r21
     3a4:	15 65       	ori	r17, 0x55	; 85
     3a6:	00 fb       	bst	r16, 0
     3a8:	fb 00       	.word	0x00fb	; ????
	...

000003ab <CEENBoT_Inc_logo_bitmap>:
     3ab:	00 00 00 00 00 c0 ff 03 00 e0 ff 07 00 f0 ff 0f     ................
     3bb:	00 f8 ff 1f 00 78 00 1e 00 78 00 1e 00 78 00 1e     .....x...x...x..
     3cb:	00 78 00 1e 00 78 00 1e 00 78 00 1e 00 78 00 1e     .x...x...x...x..
     3db:	00 78 00 1e 00 78 00 1e 00 00 00 00 00 00 00 00     .x...x..........
     3eb:	00 80 ff 03 00 e0 ff 07 00 f0 ff 0f 00 f8 ff 1f     ................
     3fb:	00 f8 3c 1f 00 78 3c 1e 00 78 3c 1e 00 78 3c 1e     ..<..x<..x<..x<.
     40b:	00 78 3c 1e 00 78 3c 1e 00 78 3c 1e 00 78 3c 1e     .x<..x<..x<..x<.
     41b:	00 78 3c 1e 00 78 3c 1e 00 78 3c 1e 00 00 00 00     .x<..x<..x<.....
     42b:	00 00 00 00 00 e0 ff 03 00 f0 ff 07 00 f8 ff 0f     ................
     43b:	00 f8 ff 1f 00 78 3c 1e 00 78 3c 1e 00 78 3c 1e     .....x<..x<..x<.
     44b:	00 78 3c 1e 00 78 3c 1e 00 78 3c 1e 00 78 3c 1e     .x<..x<..x<..x<.
     45b:	00 78 3c 1e 00 78 3c 1e 00 78 3c 1e 00 00 00 00     .x<..x<..x<.....
     46b:	00 00 00 00 00 f8 ff 03 00 f8 ff 0f 00 f8 ff 1f     ................
     47b:	00 f8 ff 1f 00 00 00 1e 00 00 00 1e 00 00 80 1f     ................
     48b:	00 00 f0 1f 00 00 ff 0f 00 e0 ff 07 00 f0 ff 00     ................
     49b:	00 f8 0f 00 00 f8 00 00 00 78 00 00 00 78 00 00     .........x...x..
     4ab:	00 f8 ff 1f 00 f8 ff 1f 00 f0 ff 1f 00 e0 ff 1f     ................
	...
     4c3:	00 f8 ff 1f 00 f8 ff 1f 00 f8 ff 1f 00 f8 ff 1f     ................
     4d3:	00 78 00 1e 00 78 3c 1e 00 78 3c 1e 00 78 3c 1e     .x...x<..x<..x<.
     4e3:	00 78 3c 1e 00 78 3c 1e 00 78 3c 1e 00 f8 7e 1f     .x<..x<..x<...~.
     4f3:	00 f8 ff 1f 00 f0 ff 0f 00 e0 e7 03 00 00 00 00     ................
     503:	00 00 00 38 00 ee ff 6c 00 2a 80 45 00 3a 00 47     ...8...l.*.E.:.G
     513:	fc 03 ff 6c fc 83 ff 39 00 de ff 0b 7c d0 81 0b     ...l...9....|...
     523:	fc d0 81 0b c0 d0 81 0b fc d0 81 0b 7c de ff 0b     ............|...
     533:	00 82 ff 39 70 02 ff 6c f8 3a 00 47 dc 2a 80 45     ...9p..l.:.G.*.E
     543:	cc ee ff 6c cc 00 00 38 00 00 00 00 0c 00 00 1e     ...l...8........
     553:	0c 00 00 1e 00 00 00 1e 00 00 00 1e 00 00 00 1e     ................
     563:	00 f8 ff 1f 00 f8 ff 1f 00 f8 ff 1f 00 f8 ff 1f     ................
     573:	00 00 00 1e 00 00 00 1e 00 00 00 1e 00 00 00 1e     ................
     583:	00 00 00 5e 00 00 00 40 00 00 00 7c 00 00 00 40     ...^...@...|...@
     593:	00 00 00 40 00 00 00 7c 00 00 00 30 00 00 00 10     ...@...|...0....
     5a3:	00 00 00 30 00 00 00 7c                             ...0...|

000005ab <__c.2161>:
     5ab:	6e 61 6e 00                                         nan.

000005af <__c.2159>:
     5af:	69 6e 66 00 00 40 7a 10 f3 5a 00 a0 72 4e 18 09     inf..@z..Z..rN..
     5bf:	00 10 a5 d4 e8 00 00 e8 76 48 17 00 00 e4 0b 54     ........vH.....T
     5cf:	02 00 00 ca 9a 3b 00 00 00 e1 f5 05 00 00 80 96     .....;..........
     5df:	98 00 00 00 40 42 0f 00 00 00 a0 86 01 00 00 00     ....@B..........
     5ef:	10 27 00 00 00 00 e8 03 00 00 00 00 64 00 00 00     .'..........d...
     5ff:	00 00 0a 00 00 00 00 00 01 00 00 00 00 00 2c 76     ..............,v
     60f:	d8 88 dc 67 4f 08 23 df c1 df ae 59 e1 b1 b7 96     ...gO.#....Y....
     61f:	e5 e3 e4 53 c6 3a e6 51 99 76 96 e8 e6 c2 84 26     ...S.:.Q.v.....&
     62f:	eb 89 8c 9b 62 ed 40 7c 6f fc ef bc 9c 9f 40 f2     ....b.@|o.....@.
     63f:	ba a5 6f a5 f4 90 05 5a 2a f7 5c 93 6b 6c f9 67     ..o....Z*.\.kl.g
     64f:	6d c1 1b fc e0 e4 0d 47 fe f5 20 e6 b5 00 d0 ed     m......G.. .....
     65f:	90 2e 03 00 94 35 77 05 00 80 84 1e 08 00 00 20     .....5w........ 
     66f:	4e 0a 00 00 00 c8 0c 33 33 33 33 0f 98 6e 12 83     N......3333..n..
     67f:	11 41 ef 8d 21 14 89 3b e6 55 16 cf fe e6 db 18     .A..!..;.U......
     68f:	d1 84 4b 38 1b f7 7c 1d 90 1d a4 bb e4 24 20 32     ..K8..|......$ 2
     69f:	84 72 5e 22 81 00 c9 f1 24 ec a1 e5 3d 27 00        .r^"....$...='.

000006ae <__ctors_end>:
     6ae:	11 24       	eor	r1, r1
     6b0:	1f be       	out	0x3f, r1	; 63
     6b2:	cf ef       	ldi	r28, 0xFF	; 255
     6b4:	d8 e0       	ldi	r29, 0x08	; 8
     6b6:	de bf       	out	0x3e, r29	; 62
     6b8:	cd bf       	out	0x3d, r28	; 61

000006ba <__do_copy_data>:
     6ba:	13 e0       	ldi	r17, 0x03	; 3
     6bc:	a0 e0       	ldi	r26, 0x00	; 0
     6be:	b1 e0       	ldi	r27, 0x01	; 1
     6c0:	ea e0       	ldi	r30, 0x0A	; 10
     6c2:	fb e6       	ldi	r31, 0x6B	; 107
     6c4:	02 c0       	rjmp	.+4      	; 0x6ca <__do_copy_data+0x10>
     6c6:	05 90       	lpm	r0, Z+
     6c8:	0d 92       	st	X+, r0
     6ca:	ac 39       	cpi	r26, 0x9C	; 156
     6cc:	b1 07       	cpc	r27, r17
     6ce:	d9 f7       	brne	.-10     	; 0x6c6 <__do_copy_data+0xc>

000006d0 <__do_clear_bss>:
     6d0:	24 e0       	ldi	r18, 0x04	; 4
     6d2:	ac e9       	ldi	r26, 0x9C	; 156
     6d4:	b3 e0       	ldi	r27, 0x03	; 3
     6d6:	01 c0       	rjmp	.+2      	; 0x6da <.do_clear_bss_start>

000006d8 <.do_clear_bss_loop>:
     6d8:	1d 92       	st	X+, r1

000006da <.do_clear_bss_start>:
     6da:	a0 39       	cpi	r26, 0x90	; 144
     6dc:	b2 07       	cpc	r27, r18
     6de:	e1 f7       	brne	.-8      	; 0x6d8 <.do_clear_bss_loop>
     6e0:	0e 94 e3 03 	call	0x7c6	; 0x7c6 <main>
     6e4:	0c 94 83 35 	jmp	0x6b06	; 0x6b06 <_exit>

000006e8 <__bad_interrupt>:
     6e8:	0c 94 00 00 	jmp	0	; 0x0 <__vectors>

000006ec <ADC_open>:
     6ec:	8f e0       	ldi	r24, 0x0F	; 15
     6ee:	0e 94 7e 09 	call	0x12fc	; 0x12fc <SYS_get_state>
     6f2:	88 23       	and	r24, r24
     6f4:	31 f4       	brne	.+12     	; 0x702 <ADC_open+0x16>
     6f6:	0e 94 09 0b 	call	0x1612	; 0x1612 <__ADC_init>
     6fa:	8f e0       	ldi	r24, 0x0F	; 15
     6fc:	61 e0       	ldi	r22, 0x01	; 1
     6fe:	0e 94 c6 09 	call	0x138c	; 0x138c <SYS_set_state>
     702:	8f e0       	ldi	r24, 0x0F	; 15
     704:	91 e0       	ldi	r25, 0x01	; 1
     706:	08 95       	ret

00000708 <ADC_sample>:
     708:	8f e0       	ldi	r24, 0x0F	; 15
     70a:	0e 94 7e 09 	call	0x12fc	; 0x12fc <SYS_get_state>
     70e:	81 30       	cpi	r24, 0x01	; 1
     710:	19 f0       	breq	.+6      	; 0x718 <ADC_sample+0x10>
     712:	20 e0       	ldi	r18, 0x00	; 0
     714:	30 e0       	ldi	r19, 0x00	; 0
     716:	13 c0       	rjmp	.+38     	; 0x73e <ADC_sample+0x36>
     718:	80 91 7a 00 	lds	r24, 0x007A
     71c:	80 64       	ori	r24, 0x40	; 64
     71e:	80 93 7a 00 	sts	0x007A, r24
     722:	80 91 7a 00 	lds	r24, 0x007A
     726:	86 fd       	sbrc	r24, 6
     728:	fc cf       	rjmp	.-8      	; 0x722 <ADC_sample+0x1a>
     72a:	30 91 78 00 	lds	r19, 0x0078
     72e:	20 91 79 00 	lds	r18, 0x0079
     732:	92 2f       	mov	r25, r18
     734:	80 e0       	ldi	r24, 0x00	; 0
     736:	23 2f       	mov	r18, r19
     738:	30 e0       	ldi	r19, 0x00	; 0
     73a:	28 2b       	or	r18, r24
     73c:	39 2b       	or	r19, r25
     73e:	c9 01       	movw	r24, r18
     740:	08 95       	ret

00000742 <ADC_set_channel>:
     742:	58 2f       	mov	r21, r24
     744:	80 91 00 01 	lds	r24, 0x0100
     748:	88 30       	cpi	r24, 0x08	; 8
     74a:	d8 f4       	brcc	.+54     	; 0x782 <ADC_set_channel+0x40>
     74c:	40 91 7e 00 	lds	r20, 0x007E
     750:	21 e0       	ldi	r18, 0x01	; 1
     752:	30 e0       	ldi	r19, 0x00	; 0
     754:	b9 01       	movw	r22, r18
     756:	02 c0       	rjmp	.+4      	; 0x75c <ADC_set_channel+0x1a>
     758:	66 0f       	add	r22, r22
     75a:	77 1f       	adc	r23, r23
     75c:	8a 95       	dec	r24
     75e:	e2 f7       	brpl	.-8      	; 0x758 <ADC_set_channel+0x16>
     760:	cb 01       	movw	r24, r22
     762:	80 95       	com	r24
     764:	84 23       	and	r24, r20
     766:	80 93 7e 00 	sts	0x007E, r24
     76a:	80 91 7e 00 	lds	r24, 0x007E
     76e:	05 2e       	mov	r0, r21
     770:	02 c0       	rjmp	.+4      	; 0x776 <ADC_set_channel+0x34>
     772:	22 0f       	add	r18, r18
     774:	33 1f       	adc	r19, r19
     776:	0a 94       	dec	r0
     778:	e2 f7       	brpl	.-8      	; 0x772 <ADC_set_channel+0x30>
     77a:	82 2b       	or	r24, r18
     77c:	80 93 7e 00 	sts	0x007E, r24
     780:	0d c0       	rjmp	.+26     	; 0x79c <ADC_set_channel+0x5a>
     782:	20 91 7e 00 	lds	r18, 0x007E
     786:	81 e0       	ldi	r24, 0x01	; 1
     788:	90 e0       	ldi	r25, 0x00	; 0
     78a:	05 2e       	mov	r0, r21
     78c:	02 c0       	rjmp	.+4      	; 0x792 <ADC_set_channel+0x50>
     78e:	88 0f       	add	r24, r24
     790:	99 1f       	adc	r25, r25
     792:	0a 94       	dec	r0
     794:	e2 f7       	brpl	.-8      	; 0x78e <ADC_set_channel+0x4c>
     796:	28 2b       	or	r18, r24
     798:	20 93 7e 00 	sts	0x007E, r18
     79c:	50 93 00 01 	sts	0x0100, r21
     7a0:	80 91 7c 00 	lds	r24, 0x007C
     7a4:	5f 71       	andi	r21, 0x1F	; 31
     7a6:	80 7e       	andi	r24, 0xE0	; 224
     7a8:	85 2b       	or	r24, r21
     7aa:	80 93 7c 00 	sts	0x007C, r24
     7ae:	08 95       	ret

000007b0 <ADC_set_VREF>:
     7b0:	ec e7       	ldi	r30, 0x7C	; 124
     7b2:	f0 e0       	ldi	r31, 0x00	; 0
     7b4:	90 81       	ld	r25, Z
     7b6:	82 95       	swap	r24
     7b8:	88 0f       	add	r24, r24
     7ba:	88 0f       	add	r24, r24
     7bc:	80 7c       	andi	r24, 0xC0	; 192
     7be:	9f 73       	andi	r25, 0x3F	; 63
     7c0:	98 2b       	or	r25, r24
     7c2:	90 83       	st	Z, r25
     7c4:	08 95       	ret

000007c6 <main>:
     7c6:	0e 94 22 0b 	call	0x1644	; 0x1644 <CBOT_ISR_init>
     7ca:	0e 94 14 0b 	call	0x1628	; 0x1628 <CBOT_init>
     7ce:	0e 94 ef 26 	call	0x4dde	; 0x4dde <CBOT_main>
     7d2:	80 e0       	ldi	r24, 0x00	; 0
     7d4:	90 e0       	ldi	r25, 0x00	; 0
     7d6:	08 95       	ret

000007d8 <LCD_clear>:
     7d8:	0f 93       	push	r16
     7da:	1f 93       	push	r17
     7dc:	80 e4       	ldi	r24, 0x40	; 64
     7de:	60 e0       	ldi	r22, 0x00	; 0
     7e0:	0e 94 cb 04 	call	0x996	; 0x996 <LCD_write>
     7e4:	00 e0       	ldi	r16, 0x00	; 0
     7e6:	80 2f       	mov	r24, r16
     7e8:	60 e0       	ldi	r22, 0x00	; 0
     7ea:	0e 94 b2 04 	call	0x964	; 0x964 <LCD_set_PGC_addr>
     7ee:	10 e0       	ldi	r17, 0x00	; 0
     7f0:	80 e0       	ldi	r24, 0x00	; 0
     7f2:	61 e0       	ldi	r22, 0x01	; 1
     7f4:	0e 94 cb 04 	call	0x996	; 0x996 <LCD_write>
     7f8:	1f 5f       	subi	r17, 0xFF	; 255
     7fa:	10 38       	cpi	r17, 0x80	; 128
     7fc:	c9 f7       	brne	.-14     	; 0x7f0 <LCD_clear+0x18>
     7fe:	0f 5f       	subi	r16, 0xFF	; 255
     800:	04 30       	cpi	r16, 0x04	; 4
     802:	89 f7       	brne	.-30     	; 0x7e6 <LCD_clear+0xe>
     804:	83 e0       	ldi	r24, 0x03	; 3
     806:	60 e0       	ldi	r22, 0x00	; 0
     808:	0e 94 ab 04 	call	0x956	; 0x956 <LCD_set_next_PGC>
     80c:	1f 91       	pop	r17
     80e:	0f 91       	pop	r16
     810:	08 95       	ret

00000812 <LCD_open>:
     812:	0f 93       	push	r16
     814:	1f 93       	push	r17
     816:	82 e0       	ldi	r24, 0x02	; 2
     818:	0e 94 7e 09 	call	0x12fc	; 0x12fc <SYS_get_state>
     81c:	88 23       	and	r24, r24
     81e:	11 f4       	brne	.+4      	; 0x824 <LCD_open+0x12>
     820:	82 e0       	ldi	r24, 0x02	; 2
     822:	06 c0       	rjmp	.+12     	; 0x830 <LCD_open+0x1e>
     824:	81 e0       	ldi	r24, 0x01	; 1
     826:	0e 94 7e 09 	call	0x12fc	; 0x12fc <SYS_get_state>
     82a:	88 23       	and	r24, r24
     82c:	19 f4       	brne	.+6      	; 0x834 <LCD_open+0x22>
     82e:	81 e0       	ldi	r24, 0x01	; 1
     830:	90 e0       	ldi	r25, 0x00	; 0
     832:	6d c0       	rjmp	.+218    	; 0x90e <__stack+0xf>
     834:	0e 94 8a 0d 	call	0x1b14	; 0x1b14 <__LCD_init>
     838:	85 e0       	ldi	r24, 0x05	; 5
     83a:	61 e0       	ldi	r22, 0x01	; 1
     83c:	0e 94 c6 09 	call	0x138c	; 0x138c <SYS_set_state>
     840:	8e ea       	ldi	r24, 0xAE	; 174
     842:	60 e0       	ldi	r22, 0x00	; 0
     844:	0e 94 cb 04 	call	0x996	; 0x996 <LCD_write>
     848:	82 ea       	ldi	r24, 0xA2	; 162
     84a:	60 e0       	ldi	r22, 0x00	; 0
     84c:	0e 94 cb 04 	call	0x996	; 0x996 <LCD_write>
     850:	80 ea       	ldi	r24, 0xA0	; 160
     852:	60 e0       	ldi	r22, 0x00	; 0
     854:	0e 94 cb 04 	call	0x996	; 0x996 <LCD_write>
     858:	00 e5       	ldi	r16, 0x50	; 80
     85a:	13 ec       	ldi	r17, 0xC3	; 195
     85c:	c8 01       	movw	r24, r16
     85e:	01 97       	sbiw	r24, 0x01	; 1
     860:	f1 f7       	brne	.-4      	; 0x85e <LCD_open+0x4c>
     862:	80 ec       	ldi	r24, 0xC0	; 192
     864:	60 e0       	ldi	r22, 0x00	; 0
     866:	0e 94 cb 04 	call	0x996	; 0x996 <LCD_write>
     86a:	8f e2       	ldi	r24, 0x2F	; 47
     86c:	60 e0       	ldi	r22, 0x00	; 0
     86e:	0e 94 cb 04 	call	0x996	; 0x996 <LCD_write>
     872:	81 e8       	ldi	r24, 0x81	; 129
     874:	60 e0       	ldi	r22, 0x00	; 0
     876:	0e 94 cb 04 	call	0x996	; 0x996 <LCD_write>
     87a:	86 e1       	ldi	r24, 0x16	; 22
     87c:	60 e0       	ldi	r22, 0x00	; 0
     87e:	0e 94 cb 04 	call	0x996	; 0x996 <LCD_write>
     882:	82 e2       	ldi	r24, 0x22	; 34
     884:	60 e0       	ldi	r22, 0x00	; 0
     886:	0e 94 cb 04 	call	0x996	; 0x996 <LCD_write>
     88a:	c8 01       	movw	r24, r16
     88c:	01 97       	sbiw	r24, 0x01	; 1
     88e:	f1 f7       	brne	.-4      	; 0x88c <LCD_open+0x7a>
     890:	8f ea       	ldi	r24, 0xAF	; 175
     892:	60 e0       	ldi	r22, 0x00	; 0
     894:	0e 94 cb 04 	call	0x996	; 0x996 <LCD_write>
     898:	86 ea       	ldi	r24, 0xA6	; 166
     89a:	60 e0       	ldi	r22, 0x00	; 0
     89c:	0e 94 cb 04 	call	0x996	; 0x996 <LCD_write>
     8a0:	85 ea       	ldi	r24, 0xA5	; 165
     8a2:	60 e0       	ldi	r22, 0x00	; 0
     8a4:	0e 94 cb 04 	call	0x996	; 0x996 <LCD_write>
     8a8:	80 e0       	ldi	r24, 0x00	; 0
     8aa:	90 e0       	ldi	r25, 0x00	; 0
     8ac:	28 e8       	ldi	r18, 0x88	; 136
     8ae:	33 e1       	ldi	r19, 0x13	; 19
     8b0:	f9 01       	movw	r30, r18
     8b2:	31 97       	sbiw	r30, 0x01	; 1
     8b4:	f1 f7       	brne	.-4      	; 0x8b2 <LCD_open+0xa0>
     8b6:	01 96       	adiw	r24, 0x01	; 1
     8b8:	43 e0       	ldi	r20, 0x03	; 3
     8ba:	88 3e       	cpi	r24, 0xE8	; 232
     8bc:	94 07       	cpc	r25, r20
     8be:	c1 f7       	brne	.-16     	; 0x8b0 <LCD_open+0x9e>
     8c0:	83 eb       	ldi	r24, 0xB3	; 179
     8c2:	60 e0       	ldi	r22, 0x00	; 0
     8c4:	0e 94 cb 04 	call	0x996	; 0x996 <LCD_write>
     8c8:	80 e4       	ldi	r24, 0x40	; 64
     8ca:	60 e0       	ldi	r22, 0x00	; 0
     8cc:	0e 94 cb 04 	call	0x996	; 0x996 <LCD_write>
     8d0:	83 e0       	ldi	r24, 0x03	; 3
     8d2:	60 e0       	ldi	r22, 0x00	; 0
     8d4:	0e 94 b2 04 	call	0x964	; 0x964 <LCD_set_PGC_addr>
     8d8:	83 e0       	ldi	r24, 0x03	; 3
     8da:	60 e0       	ldi	r22, 0x00	; 0
     8dc:	0e 94 ab 04 	call	0x956	; 0x956 <LCD_set_next_PGC>
     8e0:	10 92 61 04 	sts	0x0461, r1
     8e4:	10 92 63 04 	sts	0x0463, r1
     8e8:	10 92 62 04 	sts	0x0462, r1
     8ec:	8f e0       	ldi	r24, 0x0F	; 15
     8ee:	91 e0       	ldi	r25, 0x01	; 1
     8f0:	90 93 8d 04 	sts	0x048D, r25
     8f4:	80 93 8c 04 	sts	0x048C, r24
     8f8:	88 e1       	ldi	r24, 0x18	; 24
     8fa:	0e 94 8a 04 	call	0x914	; 0x914 <LCD_set_backlight>
     8fe:	0e 94 ec 03 	call	0x7d8	; 0x7d8 <LCD_clear>
     902:	84 ea       	ldi	r24, 0xA4	; 164
     904:	60 e0       	ldi	r22, 0x00	; 0
     906:	0e 94 cb 04 	call	0x996	; 0x996 <LCD_write>
     90a:	85 e0       	ldi	r24, 0x05	; 5
     90c:	91 e0       	ldi	r25, 0x01	; 1
     90e:	1f 91       	pop	r17
     910:	0f 91       	pop	r16
     912:	08 95       	ret

00000914 <LCD_set_backlight>:
     914:	1f 93       	push	r17
     916:	18 2f       	mov	r17, r24
     918:	85 e0       	ldi	r24, 0x05	; 5
     91a:	0e 94 7e 09 	call	0x12fc	; 0x12fc <SYS_get_state>
     91e:	81 30       	cpi	r24, 0x01	; 1
     920:	c1 f4       	brne	.+48     	; 0x952 <LCD_set_backlight+0x3e>
     922:	87 e0       	ldi	r24, 0x07	; 7
     924:	0e 94 e6 04 	call	0x9cc	; 0x9cc <SPI_set_slave_addr>
     928:	82 e0       	ldi	r24, 0x02	; 2
     92a:	6a e0       	ldi	r22, 0x0A	; 10
     92c:	0e 94 37 05 	call	0xa6e	; 0xa6e <SPI_transmit>
     930:	82 e0       	ldi	r24, 0x02	; 2
     932:	61 eb       	ldi	r22, 0xB1	; 177
     934:	0e 94 37 05 	call	0xa6e	; 0xa6e <SPI_transmit>
     938:	61 2f       	mov	r22, r17
     93a:	11 32       	cpi	r17, 0x21	; 33
     93c:	08 f0       	brcs	.+2      	; 0x940 <LCD_set_backlight+0x2c>
     93e:	60 e2       	ldi	r22, 0x20	; 32
     940:	82 e0       	ldi	r24, 0x02	; 2
     942:	0e 94 37 05 	call	0xa6e	; 0xa6e <SPI_transmit>
     946:	89 ee       	ldi	r24, 0xE9	; 233
     948:	8a 95       	dec	r24
     94a:	f1 f7       	brne	.-4      	; 0x948 <LCD_set_backlight+0x34>
     94c:	87 e0       	ldi	r24, 0x07	; 7
     94e:	0e 94 e6 04 	call	0x9cc	; 0x9cc <SPI_set_slave_addr>
     952:	1f 91       	pop	r17
     954:	08 95       	ret

00000956 <LCD_set_next_PGC>:
     956:	83 70       	andi	r24, 0x03	; 3
     958:	6f 77       	andi	r22, 0x7F	; 127
     95a:	60 93 5f 04 	sts	0x045F, r22
     95e:	80 93 60 04 	sts	0x0460, r24
     962:	08 95       	ret

00000964 <LCD_set_PGC_addr>:
     964:	0f 93       	push	r16
     966:	1f 93       	push	r17
     968:	06 2f       	mov	r16, r22
     96a:	16 2f       	mov	r17, r22
     96c:	1f 77       	andi	r17, 0x7F	; 127
     96e:	83 70       	andi	r24, 0x03	; 3
     970:	80 6b       	ori	r24, 0xB0	; 176
     972:	60 e0       	ldi	r22, 0x00	; 0
     974:	0e 94 cb 04 	call	0x996	; 0x996 <LCD_write>
     978:	12 95       	swap	r17
     97a:	1f 70       	andi	r17, 0x0F	; 15
     97c:	81 2f       	mov	r24, r17
     97e:	80 61       	ori	r24, 0x10	; 16
     980:	60 e0       	ldi	r22, 0x00	; 0
     982:	0e 94 cb 04 	call	0x996	; 0x996 <LCD_write>
     986:	80 2f       	mov	r24, r16
     988:	8f 70       	andi	r24, 0x0F	; 15
     98a:	60 e0       	ldi	r22, 0x00	; 0
     98c:	0e 94 cb 04 	call	0x996	; 0x996 <LCD_write>
     990:	1f 91       	pop	r17
     992:	0f 91       	pop	r16
     994:	08 95       	ret

00000996 <LCD_write>:
     996:	0f 93       	push	r16
     998:	1f 93       	push	r17
     99a:	08 2f       	mov	r16, r24
     99c:	16 2f       	mov	r17, r22
     99e:	85 e0       	ldi	r24, 0x05	; 5
     9a0:	0e 94 7e 09 	call	0x12fc	; 0x12fc <SYS_get_state>
     9a4:	81 30       	cpi	r24, 0x01	; 1
     9a6:	79 f4       	brne	.+30     	; 0x9c6 <LCD_write+0x30>
     9a8:	11 23       	and	r17, r17
     9aa:	19 f0       	breq	.+6      	; 0x9b2 <LCD_write+0x1c>
     9ac:	11 30       	cpi	r17, 0x01	; 1
     9ae:	21 f4       	brne	.+8      	; 0x9b8 <LCD_write+0x22>
     9b0:	02 c0       	rjmp	.+4      	; 0x9b6 <LCD_write+0x20>
     9b2:	2b 98       	cbi	0x05, 3	; 5
     9b4:	01 c0       	rjmp	.+2      	; 0x9b8 <LCD_write+0x22>
     9b6:	2b 9a       	sbi	0x05, 3	; 5
     9b8:	86 e0       	ldi	r24, 0x06	; 6
     9ba:	8a 95       	dec	r24
     9bc:	f1 f7       	brne	.-4      	; 0x9ba <LCD_write+0x24>
     9be:	80 e0       	ldi	r24, 0x00	; 0
     9c0:	60 2f       	mov	r22, r16
     9c2:	0e 94 37 05 	call	0xa6e	; 0xa6e <SPI_transmit>
     9c6:	1f 91       	pop	r17
     9c8:	0f 91       	pop	r16
     9ca:	08 95       	ret

000009cc <SPI_set_slave_addr>:
     9cc:	1f 93       	push	r17
     9ce:	18 2f       	mov	r17, r24
     9d0:	82 e0       	ldi	r24, 0x02	; 2
     9d2:	0e 94 7e 09 	call	0x12fc	; 0x12fc <SYS_get_state>
     9d6:	81 30       	cpi	r24, 0x01	; 1
     9d8:	09 f0       	breq	.+2      	; 0x9dc <SPI_set_slave_addr+0x10>
     9da:	47 c0       	rjmp	.+142    	; 0xa6a <SPI_set_slave_addr+0x9e>
     9dc:	91 2f       	mov	r25, r17
     9de:	97 70       	andi	r25, 0x07	; 7
     9e0:	80 91 64 04 	lds	r24, 0x0464
     9e4:	98 17       	cp	r25, r24
     9e6:	09 f4       	brne	.+2      	; 0x9ea <SPI_set_slave_addr+0x1e>
     9e8:	40 c0       	rjmp	.+128    	; 0xa6a <SPI_set_slave_addr+0x9e>
     9ea:	90 93 64 04 	sts	0x0464, r25
     9ee:	85 b1       	in	r24, 0x05	; 5
     9f0:	88 7f       	andi	r24, 0xF8	; 248
     9f2:	89 2b       	or	r24, r25
     9f4:	85 b9       	out	0x05, r24	; 5
     9f6:	93 30       	cpi	r25, 0x03	; 3
     9f8:	11 f1       	breq	.+68     	; 0xa3e <SPI_set_slave_addr+0x72>
     9fa:	94 30       	cpi	r25, 0x04	; 4
     9fc:	28 f4       	brcc	.+10     	; 0xa08 <SPI_set_slave_addr+0x3c>
     9fe:	91 30       	cpi	r25, 0x01	; 1
     a00:	51 f0       	breq	.+20     	; 0xa16 <SPI_set_slave_addr+0x4a>
     a02:	92 30       	cpi	r25, 0x02	; 2
     a04:	90 f4       	brcc	.+36     	; 0xa2a <SPI_set_slave_addr+0x5e>
     a06:	0c c0       	rjmp	.+24     	; 0xa20 <SPI_set_slave_addr+0x54>
     a08:	95 30       	cpi	r25, 0x05	; 5
     a0a:	19 f1       	breq	.+70     	; 0xa52 <SPI_set_slave_addr+0x86>
     a0c:	95 30       	cpi	r25, 0x05	; 5
     a0e:	e0 f0       	brcs	.+56     	; 0xa48 <SPI_set_slave_addr+0x7c>
     a10:	96 30       	cpi	r25, 0x06	; 6
     a12:	21 f5       	brne	.+72     	; 0xa5c <SPI_set_slave_addr+0x90>
     a14:	0f c0       	rjmp	.+30     	; 0xa34 <SPI_set_slave_addr+0x68>
     a16:	e0 91 ee 03 	lds	r30, 0x03EE
     a1a:	f0 91 ef 03 	lds	r31, 0x03EF
     a1e:	22 c0       	rjmp	.+68     	; 0xa64 <SPI_set_slave_addr+0x98>
     a20:	e0 91 ec 03 	lds	r30, 0x03EC
     a24:	f0 91 ed 03 	lds	r31, 0x03ED
     a28:	1d c0       	rjmp	.+58     	; 0xa64 <SPI_set_slave_addr+0x98>
     a2a:	e0 91 f0 03 	lds	r30, 0x03F0
     a2e:	f0 91 f1 03 	lds	r31, 0x03F1
     a32:	18 c0       	rjmp	.+48     	; 0xa64 <SPI_set_slave_addr+0x98>
     a34:	e0 91 f8 03 	lds	r30, 0x03F8
     a38:	f0 91 f9 03 	lds	r31, 0x03F9
     a3c:	13 c0       	rjmp	.+38     	; 0xa64 <SPI_set_slave_addr+0x98>
     a3e:	e0 91 f2 03 	lds	r30, 0x03F2
     a42:	f0 91 f3 03 	lds	r31, 0x03F3
     a46:	0e c0       	rjmp	.+28     	; 0xa64 <SPI_set_slave_addr+0x98>
     a48:	e0 91 f4 03 	lds	r30, 0x03F4
     a4c:	f0 91 f5 03 	lds	r31, 0x03F5
     a50:	09 c0       	rjmp	.+18     	; 0xa64 <SPI_set_slave_addr+0x98>
     a52:	e0 91 f6 03 	lds	r30, 0x03F6
     a56:	f0 91 f7 03 	lds	r31, 0x03F7
     a5a:	04 c0       	rjmp	.+8      	; 0xa64 <SPI_set_slave_addr+0x98>
     a5c:	e0 91 fa 03 	lds	r30, 0x03FA
     a60:	f0 91 fb 03 	lds	r31, 0x03FB
     a64:	30 97       	sbiw	r30, 0x00	; 0
     a66:	09 f0       	breq	.+2      	; 0xa6a <SPI_set_slave_addr+0x9e>
     a68:	09 95       	icall
     a6a:	1f 91       	pop	r17
     a6c:	08 95       	ret

00000a6e <SPI_transmit>:
     a6e:	1f 93       	push	r17
     a70:	16 2f       	mov	r17, r22
     a72:	0e 94 e6 04 	call	0x9cc	; 0x9cc <SPI_set_slave_addr>
     a76:	82 e0       	ldi	r24, 0x02	; 2
     a78:	0e 94 7e 09 	call	0x12fc	; 0x12fc <SYS_get_state>
     a7c:	81 30       	cpi	r24, 0x01	; 1
     a7e:	21 f4       	brne	.+8      	; 0xa88 <SPI_transmit+0x1a>
     a80:	1e bd       	out	0x2e, r17	; 46
     a82:	0d b4       	in	r0, 0x2d	; 45
     a84:	07 fe       	sbrs	r0, 7
     a86:	fd cf       	rjmp	.-6      	; 0xa82 <SPI_transmit+0x14>
     a88:	1f 91       	pop	r17
     a8a:	08 95       	ret

00000a8c <__SPKR_set_up_freq_LUT>:
     a8c:	0f 93       	push	r16
     a8e:	1f 93       	push	r17
     a90:	cf 93       	push	r28
     a92:	df 93       	push	r29
     a94:	80 e2       	ldi	r24, 0x20	; 32
     a96:	91 e0       	ldi	r25, 0x01	; 1
     a98:	0e 94 18 32 	call	0x6430	; 0x6430 <malloc>
     a9c:	9c 01       	movw	r18, r24
     a9e:	90 93 0b 04 	sts	0x040B, r25
     aa2:	80 93 0a 04 	sts	0x040A, r24
     aa6:	89 2b       	or	r24, r25
     aa8:	11 f4       	brne	.+4      	; 0xaae <__SPKR_set_up_freq_LUT+0x22>
     aaa:	80 e0       	ldi	r24, 0x00	; 0
     aac:	39 c0       	rjmp	.+114    	; 0xb20 <__SPKR_set_up_freq_LUT+0x94>
     aae:	89 01       	movw	r16, r18
     ab0:	c0 e0       	ldi	r28, 0x00	; 0
     ab2:	d0 e0       	ldi	r29, 0x00	; 0
     ab4:	be 01       	movw	r22, r28
     ab6:	80 e0       	ldi	r24, 0x00	; 0
     ab8:	90 e0       	ldi	r25, 0x00	; 0
     aba:	0e 94 e7 2a 	call	0x55ce	; 0x55ce <__floatunsisf>
     abe:	20 e0       	ldi	r18, 0x00	; 0
     ac0:	30 e0       	ldi	r19, 0x00	; 0
     ac2:	40 ea       	ldi	r20, 0xA0	; 160
     ac4:	51 e4       	ldi	r21, 0x41	; 65
     ac6:	0e 94 4e 2a 	call	0x549c	; 0x549c <__divsf3>
     aca:	27 ef       	ldi	r18, 0xF7	; 247
     acc:	35 e7       	ldi	r19, 0x75	; 117
     ace:	40 e0       	ldi	r20, 0x00	; 0
     ad0:	5f e3       	ldi	r21, 0x3F	; 63
     ad2:	0e 94 02 2c 	call	0x5804	; 0x5804 <__mulsf3>
     ad6:	9b 01       	movw	r18, r22
     ad8:	ac 01       	movw	r20, r24
     ada:	60 e0       	ldi	r22, 0x00	; 0
     adc:	70 e0       	ldi	r23, 0x00	; 0
     ade:	80 e2       	ldi	r24, 0x20	; 32
     ae0:	91 e4       	ldi	r25, 0x41	; 65
     ae2:	0e 94 42 30 	call	0x6084	; 0x6084 <pow>
     ae6:	9b 01       	movw	r18, r22
     ae8:	ac 01       	movw	r20, r24
     aea:	ca 01       	movw	r24, r20
     aec:	b9 01       	movw	r22, r18
     aee:	2d ec       	ldi	r18, 0xCD	; 205
     af0:	3c ec       	ldi	r19, 0xCC	; 204
     af2:	42 e8       	ldi	r20, 0x82	; 130
     af4:	51 e4       	ldi	r21, 0x41	; 65
     af6:	0e 94 02 2c 	call	0x5804	; 0x5804 <__mulsf3>
     afa:	0e 94 08 30 	call	0x6010	; 0x6010 <lrint>
     afe:	2a e0       	ldi	r18, 0x0A	; 10
     b00:	30 e0       	ldi	r19, 0x00	; 0
     b02:	40 e0       	ldi	r20, 0x00	; 0
     b04:	50 e0       	ldi	r21, 0x00	; 0
     b06:	0e 94 6d 31 	call	0x62da	; 0x62da <__mulsi3>
     b0a:	f8 01       	movw	r30, r16
     b0c:	61 93       	st	Z+, r22
     b0e:	71 93       	st	Z+, r23
     b10:	81 93       	st	Z+, r24
     b12:	91 93       	st	Z+, r25
     b14:	8f 01       	movw	r16, r30
     b16:	21 96       	adiw	r28, 0x01	; 1
     b18:	c8 34       	cpi	r28, 0x48	; 72
     b1a:	d1 05       	cpc	r29, r1
     b1c:	59 f6       	brne	.-106    	; 0xab4 <__SPKR_set_up_freq_LUT+0x28>
     b1e:	81 e0       	ldi	r24, 0x01	; 1
     b20:	df 91       	pop	r29
     b22:	cf 91       	pop	r28
     b24:	1f 91       	pop	r17
     b26:	0f 91       	pop	r16
     b28:	08 95       	ret

00000b2a <__SPKR_open_beep_mode>:
     b2a:	8a e0       	ldi	r24, 0x0A	; 10
     b2c:	0e 94 7e 09 	call	0x12fc	; 0x12fc <SYS_get_state>
     b30:	88 23       	and	r24, r24
     b32:	71 f4       	brne	.+28     	; 0xb50 <__SPKR_open_beep_mode+0x26>
     b34:	10 92 07 04 	sts	0x0407, r1
     b38:	10 92 06 04 	sts	0x0406, r1
     b3c:	81 e0       	ldi	r24, 0x01	; 1
     b3e:	0e 94 74 0f 	call	0x1ee8	; 0x1ee8 <__SPKR_init>
     b42:	81 e0       	ldi	r24, 0x01	; 1
     b44:	80 93 fd 03 	sts	0x03FD, r24
     b48:	8a e0       	ldi	r24, 0x0A	; 10
     b4a:	61 e0       	ldi	r22, 0x01	; 1
     b4c:	0e 94 c6 09 	call	0x138c	; 0x138c <SYS_set_state>
     b50:	8a e0       	ldi	r24, 0x0A	; 10
     b52:	91 e0       	ldi	r25, 0x01	; 1
     b54:	08 95       	ret

00000b56 <__SPKR_open_tone_mode>:
     b56:	1f 93       	push	r17
     b58:	8b e0       	ldi	r24, 0x0B	; 11
     b5a:	0e 94 7e 09 	call	0x12fc	; 0x12fc <SYS_get_state>
     b5e:	88 23       	and	r24, r24
     b60:	11 f0       	breq	.+4      	; 0xb66 <__SPKR_open_tone_mode+0x10>
     b62:	90 e0       	ldi	r25, 0x00	; 0
     b64:	21 c0       	rjmp	.+66     	; 0xba8 <__SPKR_open_tone_mode+0x52>
     b66:	89 e0       	ldi	r24, 0x09	; 9
     b68:	0e 94 7e 09 	call	0x12fc	; 0x12fc <SYS_get_state>
     b6c:	88 23       	and	r24, r24
     b6e:	d9 f4       	brne	.+54     	; 0xba6 <__SPKR_open_tone_mode+0x50>
     b70:	0e 94 46 05 	call	0xa8c	; 0xa8c <__SPKR_set_up_freq_LUT>
     b74:	18 2f       	mov	r17, r24
     b76:	81 30       	cpi	r24, 0x01	; 1
     b78:	b1 f4       	brne	.+44     	; 0xba6 <__SPKR_open_tone_mode+0x50>
     b7a:	10 92 fe 03 	sts	0x03FE, r1
     b7e:	10 92 ff 03 	sts	0x03FF, r1
     b82:	10 92 00 04 	sts	0x0400, r1
     b86:	10 92 01 04 	sts	0x0401, r1
     b8a:	8d e0       	ldi	r24, 0x0D	; 13
     b8c:	60 ee       	ldi	r22, 0xE0	; 224
     b8e:	7e e0       	ldi	r23, 0x0E	; 14
     b90:	0e 94 62 0d 	call	0x1ac4	; 0x1ac4 <ISR_attach>
     b94:	82 e0       	ldi	r24, 0x02	; 2
     b96:	0e 94 74 0f 	call	0x1ee8	; 0x1ee8 <__SPKR_init>
     b9a:	10 93 fc 03 	sts	0x03FC, r17
     b9e:	89 e0       	ldi	r24, 0x09	; 9
     ba0:	61 e0       	ldi	r22, 0x01	; 1
     ba2:	0e 94 c6 09 	call	0x138c	; 0x138c <SYS_set_state>
     ba6:	91 e0       	ldi	r25, 0x01	; 1
     ba8:	89 e0       	ldi	r24, 0x09	; 9
     baa:	1f 91       	pop	r17
     bac:	08 95       	ret

00000bae <SPKR_open>:
     bae:	81 30       	cpi	r24, 0x01	; 1
     bb0:	29 f0       	breq	.+10     	; 0xbbc <SPKR_open+0xe>
     bb2:	82 30       	cpi	r24, 0x02	; 2
     bb4:	31 f0       	breq	.+12     	; 0xbc2 <SPKR_open+0x14>
     bb6:	90 e0       	ldi	r25, 0x00	; 0
     bb8:	89 e0       	ldi	r24, 0x09	; 9
     bba:	08 95       	ret
     bbc:	0e 94 95 05 	call	0xb2a	; 0xb2a <__SPKR_open_beep_mode>
     bc0:	08 95       	ret
     bc2:	0e 94 ab 05 	call	0xb56	; 0xb56 <__SPKR_open_tone_mode>
     bc6:	08 95       	ret

00000bc8 <SPKR_play_beep>:
     bc8:	8f 92       	push	r8
     bca:	9f 92       	push	r9
     bcc:	af 92       	push	r10
     bce:	bf 92       	push	r11
     bd0:	cf 92       	push	r12
     bd2:	df 92       	push	r13
     bd4:	ef 92       	push	r14
     bd6:	ff 92       	push	r15
     bd8:	0f 93       	push	r16
     bda:	1f 93       	push	r17
     bdc:	cf 93       	push	r28
     bde:	df 93       	push	r29
     be0:	4b 01       	movw	r8, r22
     be2:	5c 01       	movw	r10, r24
     be4:	ea 01       	movw	r28, r20
     be6:	b9 01       	movw	r22, r18
     be8:	21 15       	cp	r18, r1
     bea:	31 05       	cpc	r19, r1
     bec:	39 f1       	breq	.+78     	; 0xc3c <SPKR_play_beep+0x74>
     bee:	9e 01       	movw	r18, r28
     bf0:	44 27       	eor	r20, r20
     bf2:	37 fd       	sbrc	r19, 7
     bf4:	40 95       	com	r20
     bf6:	54 2f       	mov	r21, r20
     bf8:	65 36       	cpi	r22, 0x65	; 101
     bfa:	71 05       	cpc	r23, r1
     bfc:	10 f0       	brcs	.+4      	; 0xc02 <SPKR_play_beep+0x3a>
     bfe:	64 e6       	ldi	r22, 0x64	; 100
     c00:	70 e0       	ldi	r23, 0x00	; 0
     c02:	80 e0       	ldi	r24, 0x00	; 0
     c04:	90 e0       	ldi	r25, 0x00	; 0
     c06:	0e 94 6d 31 	call	0x62da	; 0x62da <__mulsi3>
     c0a:	24 e6       	ldi	r18, 0x64	; 100
     c0c:	30 e0       	ldi	r19, 0x00	; 0
     c0e:	40 e0       	ldi	r20, 0x00	; 0
     c10:	50 e0       	ldi	r21, 0x00	; 0
     c12:	0e 94 91 31 	call	0x6322	; 0x6322 <__udivmodsi4>
     c16:	79 01       	movw	r14, r18
     c18:	8a 01       	movw	r16, r20
     c1a:	c5 01       	movw	r24, r10
     c1c:	b4 01       	movw	r22, r8
     c1e:	0e 94 e3 0e 	call	0x1dc6	; 0x1dc6 <SPKR_beep>
     c22:	c7 01       	movw	r24, r14
     c24:	0e 94 aa 0a 	call	0x1554	; 0x1554 <TMRSRVC_delay>
     c28:	60 e0       	ldi	r22, 0x00	; 0
     c2a:	70 e0       	ldi	r23, 0x00	; 0
     c2c:	80 e0       	ldi	r24, 0x00	; 0
     c2e:	90 e0       	ldi	r25, 0x00	; 0
     c30:	0e 94 e3 0e 	call	0x1dc6	; 0x1dc6 <SPKR_beep>
     c34:	ce 01       	movw	r24, r28
     c36:	8e 19       	sub	r24, r14
     c38:	9f 09       	sbc	r25, r15
     c3a:	04 c0       	rjmp	.+8      	; 0xc44 <SPKR_play_beep+0x7c>
     c3c:	41 15       	cp	r20, r1
     c3e:	51 05       	cpc	r21, r1
     c40:	19 f0       	breq	.+6      	; 0xc48 <SPKR_play_beep+0x80>
     c42:	ca 01       	movw	r24, r20
     c44:	0e 94 aa 0a 	call	0x1554	; 0x1554 <TMRSRVC_delay>
     c48:	df 91       	pop	r29
     c4a:	cf 91       	pop	r28
     c4c:	1f 91       	pop	r17
     c4e:	0f 91       	pop	r16
     c50:	ff 90       	pop	r15
     c52:	ef 90       	pop	r14
     c54:	df 90       	pop	r13
     c56:	cf 90       	pop	r12
     c58:	bf 90       	pop	r11
     c5a:	af 90       	pop	r10
     c5c:	9f 90       	pop	r9
     c5e:	8f 90       	pop	r8
     c60:	08 95       	ret

00000c62 <STEPPER_close>:
     c62:	87 e0       	ldi	r24, 0x07	; 7
     c64:	0e 94 7e 09 	call	0x12fc	; 0x12fc <SYS_get_state>
     c68:	81 30       	cpi	r24, 0x01	; 1
     c6a:	41 f4       	brne	.+16     	; 0xc7c <STEPPER_close+0x1a>
     c6c:	80 93 49 04 	sts	0x0449, r24
     c70:	0e 94 a4 0f 	call	0x1f48	; 0x1f48 <__STEPPER_close>
     c74:	87 e0       	ldi	r24, 0x07	; 7
     c76:	60 e0       	ldi	r22, 0x00	; 0
     c78:	0e 94 c6 09 	call	0x138c	; 0x138c <SYS_set_state>
     c7c:	08 95       	ret

00000c7e <STEPPER_stepmode>:
     c7e:	2f 92       	push	r2
     c80:	3f 92       	push	r3
     c82:	4f 92       	push	r4
     c84:	5f 92       	push	r5
     c86:	6f 92       	push	r6
     c88:	7f 92       	push	r7
     c8a:	8f 92       	push	r8
     c8c:	9f 92       	push	r9
     c8e:	af 92       	push	r10
     c90:	bf 92       	push	r11
     c92:	cf 92       	push	r12
     c94:	df 92       	push	r13
     c96:	ef 92       	push	r14
     c98:	ff 92       	push	r15
     c9a:	0f 93       	push	r16
     c9c:	1f 93       	push	r17
     c9e:	df 93       	push	r29
     ca0:	cf 93       	push	r28
     ca2:	cd b7       	in	r28, 0x3d	; 61
     ca4:	de b7       	in	r29, 0x3e	; 62
     ca6:	58 2e       	mov	r5, r24
     ca8:	96 2e       	mov	r9, r22
     caa:	44 2e       	mov	r4, r20
     cac:	39 01       	movw	r6, r18
     cae:	3c 2c       	mov	r3, r12
     cb0:	c9 8c       	ldd	r12, Y+25	; 0x19
     cb2:	da 8c       	ldd	r13, Y+26	; 0x1a
     cb4:	2b 8c       	ldd	r2, Y+27	; 0x1b
     cb6:	81 e0       	ldi	r24, 0x01	; 1
     cb8:	68 17       	cp	r22, r24
     cba:	39 f1       	breq	.+78     	; 0xd0a <STEPPER_stepmode+0x8c>
     cbc:	68 17       	cp	r22, r24
     cbe:	28 f0       	brcs	.+10     	; 0xcca <STEPPER_stepmode+0x4c>
     cc0:	92 e0       	ldi	r25, 0x02	; 2
     cc2:	69 17       	cp	r22, r25
     cc4:	09 f0       	breq	.+2      	; 0xcc8 <STEPPER_stepmode+0x4a>
     cc6:	85 c0       	rjmp	.+266    	; 0xdd2 <STEPPER_stepmode+0x154>
     cc8:	49 c0       	rjmp	.+146    	; 0xd5c <STEPPER_stepmode+0xde>
     cca:	80 e0       	ldi	r24, 0x00	; 0
     ccc:	61 e0       	ldi	r22, 0x01	; 1
     cce:	0e 94 48 08 	call	0x1090	; 0x1090 <STEPPER_set_mode>
     cd2:	80 e0       	ldi	r24, 0x00	; 0
     cd4:	b7 01       	movw	r22, r14
     cd6:	0e 94 11 08 	call	0x1022	; 0x1022 <STEPPER_set_accel>
     cda:	80 e0       	ldi	r24, 0x00	; 0
     cdc:	64 2d       	mov	r22, r4
     cde:	a3 01       	movw	r20, r6
     ce0:	98 01       	movw	r18, r16
     ce2:	03 2d       	mov	r16, r3
     ce4:	ee 24       	eor	r14, r14
     ce6:	e3 94       	inc	r14
     ce8:	ea e4       	ldi	r30, 0x4A	; 74
     cea:	ce 2e       	mov	r12, r30
     cec:	e4 e0       	ldi	r30, 0x04	; 4
     cee:	de 2e       	mov	r13, r30
     cf0:	0e 94 7f 08 	call	0x10fe	; 0x10fe <STEPPER_step>
     cf4:	55 20       	and	r5, r5
     cf6:	09 f0       	breq	.+2      	; 0xcfa <STEPPER_stepmode+0x7c>
     cf8:	6c c0       	rjmp	.+216    	; 0xdd2 <STEPPER_stepmode+0x154>
     cfa:	00 d0       	rcall	.+0      	; 0xcfc <STEPPER_stepmode+0x7e>
     cfc:	0f 92       	push	r0
     cfe:	ed b7       	in	r30, 0x3d	; 61
     d00:	fe b7       	in	r31, 0x3e	; 62
     d02:	11 82       	std	Z+1, r1	; 0x01
     d04:	b3 82       	std	Z+3, r11	; 0x03
     d06:	a2 82       	std	Z+2, r10	; 0x02
     d08:	23 c0       	rjmp	.+70     	; 0xd50 <STEPPER_stepmode+0xd2>
     d0a:	81 e0       	ldi	r24, 0x01	; 1
     d0c:	61 e0       	ldi	r22, 0x01	; 1
     d0e:	0e 94 48 08 	call	0x1090	; 0x1090 <STEPPER_set_mode>
     d12:	81 e0       	ldi	r24, 0x01	; 1
     d14:	b6 01       	movw	r22, r12
     d16:	0e 94 11 08 	call	0x1022	; 0x1022 <STEPPER_set_accel>
     d1a:	81 e0       	ldi	r24, 0x01	; 1
     d1c:	68 2d       	mov	r22, r8
     d1e:	4d 89       	ldd	r20, Y+21	; 0x15
     d20:	5e 89       	ldd	r21, Y+22	; 0x16
     d22:	2f 89       	ldd	r18, Y+23	; 0x17
     d24:	38 8d       	ldd	r19, Y+24	; 0x18
     d26:	02 2d       	mov	r16, r2
     d28:	ee 24       	eor	r14, r14
     d2a:	e3 94       	inc	r14
     d2c:	7a e4       	ldi	r23, 0x4A	; 74
     d2e:	c7 2e       	mov	r12, r23
     d30:	74 e0       	ldi	r23, 0x04	; 4
     d32:	d7 2e       	mov	r13, r23
     d34:	0e 94 7f 08 	call	0x10fe	; 0x10fe <STEPPER_step>
     d38:	55 20       	and	r5, r5
     d3a:	09 f0       	breq	.+2      	; 0xd3e <STEPPER_stepmode+0xc0>
     d3c:	4a c0       	rjmp	.+148    	; 0xdd2 <STEPPER_stepmode+0x154>
     d3e:	00 d0       	rcall	.+0      	; 0xd40 <STEPPER_stepmode+0xc2>
     d40:	0f 92       	push	r0
     d42:	ed b7       	in	r30, 0x3d	; 61
     d44:	fe b7       	in	r31, 0x3e	; 62
     d46:	91 82       	std	Z+1, r9	; 0x01
     d48:	8c 8d       	ldd	r24, Y+28	; 0x1c
     d4a:	9d 8d       	ldd	r25, Y+29	; 0x1d
     d4c:	93 83       	std	Z+3, r25	; 0x03
     d4e:	82 83       	std	Z+2, r24	; 0x02
     d50:	0e 94 30 09 	call	0x1260	; 0x1260 <STEPPER_wait_and_then>
     d54:	0f 90       	pop	r0
     d56:	0f 90       	pop	r0
     d58:	0f 90       	pop	r0
     d5a:	3b c0       	rjmp	.+118    	; 0xdd2 <STEPPER_stepmode+0x154>
     d5c:	82 e0       	ldi	r24, 0x02	; 2
     d5e:	61 e0       	ldi	r22, 0x01	; 1
     d60:	0e 94 48 08 	call	0x1090	; 0x1090 <STEPPER_set_mode>
     d64:	80 e0       	ldi	r24, 0x00	; 0
     d66:	b7 01       	movw	r22, r14
     d68:	0e 94 11 08 	call	0x1022	; 0x1022 <STEPPER_set_accel>
     d6c:	81 e0       	ldi	r24, 0x01	; 1
     d6e:	b6 01       	movw	r22, r12
     d70:	0e 94 11 08 	call	0x1022	; 0x1022 <STEPPER_set_accel>
     d74:	80 e0       	ldi	r24, 0x00	; 0
     d76:	64 2d       	mov	r22, r4
     d78:	a3 01       	movw	r20, r6
     d7a:	98 01       	movw	r18, r16
     d7c:	03 2d       	mov	r16, r3
     d7e:	ee 24       	eor	r14, r14
     d80:	e3 94       	inc	r14
     d82:	9a e4       	ldi	r25, 0x4A	; 74
     d84:	c9 2e       	mov	r12, r25
     d86:	94 e0       	ldi	r25, 0x04	; 4
     d88:	d9 2e       	mov	r13, r25
     d8a:	0e 94 7f 08 	call	0x10fe	; 0x10fe <STEPPER_step>
     d8e:	81 e0       	ldi	r24, 0x01	; 1
     d90:	68 2d       	mov	r22, r8
     d92:	4d 89       	ldd	r20, Y+21	; 0x15
     d94:	5e 89       	ldd	r21, Y+22	; 0x16
     d96:	2f 89       	ldd	r18, Y+23	; 0x17
     d98:	38 8d       	ldd	r19, Y+24	; 0x18
     d9a:	02 2d       	mov	r16, r2
     d9c:	0e 94 7f 08 	call	0x10fe	; 0x10fe <STEPPER_step>
     da0:	55 20       	and	r5, r5
     da2:	b9 f4       	brne	.+46     	; 0xdd2 <STEPPER_stepmode+0x154>
     da4:	00 d0       	rcall	.+0      	; 0xda6 <STEPPER_stepmode+0x128>
     da6:	00 d0       	rcall	.+0      	; 0xda8 <STEPPER_stepmode+0x12a>
     da8:	0f 92       	push	r0
     daa:	ad b7       	in	r26, 0x3d	; 61
     dac:	be b7       	in	r27, 0x3e	; 62
     dae:	11 96       	adiw	r26, 0x01	; 1
     db0:	ed b7       	in	r30, 0x3d	; 61
     db2:	fe b7       	in	r31, 0x3e	; 62
     db4:	91 82       	std	Z+1, r9	; 0x01
     db6:	fd 01       	movw	r30, r26
     db8:	b2 82       	std	Z+2, r11	; 0x02
     dba:	a1 82       	std	Z+1, r10	; 0x01
     dbc:	8c 8d       	ldd	r24, Y+28	; 0x1c
     dbe:	9d 8d       	ldd	r25, Y+29	; 0x1d
     dc0:	94 83       	std	Z+4, r25	; 0x04
     dc2:	83 83       	std	Z+3, r24	; 0x03
     dc4:	0e 94 30 09 	call	0x1260	; 0x1260 <STEPPER_wait_and_then>
     dc8:	0f 90       	pop	r0
     dca:	0f 90       	pop	r0
     dcc:	0f 90       	pop	r0
     dce:	0f 90       	pop	r0
     dd0:	0f 90       	pop	r0
     dd2:	cf 91       	pop	r28
     dd4:	df 91       	pop	r29
     dd6:	1f 91       	pop	r17
     dd8:	0f 91       	pop	r16
     dda:	ff 90       	pop	r15
     ddc:	ef 90       	pop	r14
     dde:	df 90       	pop	r13
     de0:	cf 90       	pop	r12
     de2:	bf 90       	pop	r11
     de4:	af 90       	pop	r10
     de6:	9f 90       	pop	r9
     de8:	8f 90       	pop	r8
     dea:	7f 90       	pop	r7
     dec:	6f 90       	pop	r6
     dee:	5f 90       	pop	r5
     df0:	4f 90       	pop	r4
     df2:	3f 90       	pop	r3
     df4:	2f 90       	pop	r2
     df6:	08 95       	ret

00000df8 <STEPPER_move>:
     df8:	6f 92       	push	r6
     dfa:	7f 92       	push	r7
     dfc:	8f 92       	push	r8
     dfe:	9f 92       	push	r9
     e00:	af 92       	push	r10
     e02:	bf 92       	push	r11
     e04:	cf 92       	push	r12
     e06:	df 92       	push	r13
     e08:	ef 92       	push	r14
     e0a:	ff 92       	push	r15
     e0c:	0f 93       	push	r16
     e0e:	1f 93       	push	r17
     e10:	df 93       	push	r29
     e12:	cf 93       	push	r28
     e14:	cd b7       	in	r28, 0x3d	; 61
     e16:	de b7       	in	r29, 0x3e	; 62
     e18:	94 2e       	mov	r9, r20
     e1a:	7c 2d       	mov	r23, r12
     e1c:	d5 01       	movw	r26, r10
     e1e:	49 89       	ldd	r20, Y+17	; 0x11
     e20:	5a 89       	ldd	r21, Y+18	; 0x12
     e22:	ab 88       	ldd	r10, Y+19	; 0x13
     e24:	bc 88       	ldd	r11, Y+20	; 0x14
     e26:	cd 88       	ldd	r12, Y+21	; 0x15
     e28:	de 88       	ldd	r13, Y+22	; 0x16
     e2a:	9f 89       	ldd	r25, Y+23	; 0x17
     e2c:	81 30       	cpi	r24, 0x01	; 1
     e2e:	09 f4       	brne	.+2      	; 0xe32 <STEPPER_move+0x3a>
     e30:	57 c0       	rjmp	.+174    	; 0xee0 <STEPPER_move+0xe8>
     e32:	81 30       	cpi	r24, 0x01	; 1
     e34:	b8 f1       	brcs	.+110    	; 0xea4 <STEPPER_move+0xac>
     e36:	82 30       	cpi	r24, 0x02	; 2
     e38:	09 f0       	breq	.+2      	; 0xe3c <STEPPER_move+0x44>
     e3a:	76 c0       	rjmp	.+236    	; 0xf28 <STEPPER_move+0x130>
     e3c:	61 30       	cpi	r22, 0x01	; 1
     e3e:	91 f0       	breq	.+36     	; 0xe64 <STEPPER_move+0x6c>
     e40:	61 30       	cpi	r22, 0x01	; 1
     e42:	20 f0       	brcs	.+8      	; 0xe4c <STEPPER_move+0x54>
     e44:	62 30       	cpi	r22, 0x02	; 2
     e46:	09 f0       	breq	.+2      	; 0xe4a <STEPPER_move+0x52>
     e48:	6f c0       	rjmp	.+222    	; 0xf28 <STEPPER_move+0x130>
     e4a:	15 c0       	rjmp	.+42     	; 0xe76 <STEPPER_move+0x7e>
     e4c:	80 e0       	ldi	r24, 0x00	; 0
     e4e:	60 e0       	ldi	r22, 0x00	; 0
     e50:	0e 94 48 08 	call	0x1090	; 0x1090 <STEPPER_set_mode>
     e54:	80 e0       	ldi	r24, 0x00	; 0
     e56:	b7 01       	movw	r22, r14
     e58:	0e 94 11 08 	call	0x1022	; 0x1022 <STEPPER_set_accel>
     e5c:	80 e0       	ldi	r24, 0x00	; 0
     e5e:	69 2d       	mov	r22, r9
     e60:	a8 01       	movw	r20, r16
     e62:	1d c0       	rjmp	.+58     	; 0xe9e <STEPPER_move+0xa6>
     e64:	81 e0       	ldi	r24, 0x01	; 1
     e66:	60 e0       	ldi	r22, 0x00	; 0
     e68:	0e 94 48 08 	call	0x1090	; 0x1090 <STEPPER_set_mode>
     e6c:	81 e0       	ldi	r24, 0x01	; 1
     e6e:	b6 01       	movw	r22, r12
     e70:	0e 94 11 08 	call	0x1022	; 0x1022 <STEPPER_set_accel>
     e74:	11 c0       	rjmp	.+34     	; 0xe98 <STEPPER_move+0xa0>
     e76:	82 e0       	ldi	r24, 0x02	; 2
     e78:	60 e0       	ldi	r22, 0x00	; 0
     e7a:	0e 94 48 08 	call	0x1090	; 0x1090 <STEPPER_set_mode>
     e7e:	80 e0       	ldi	r24, 0x00	; 0
     e80:	b7 01       	movw	r22, r14
     e82:	0e 94 11 08 	call	0x1022	; 0x1022 <STEPPER_set_accel>
     e86:	81 e0       	ldi	r24, 0x01	; 1
     e88:	b6 01       	movw	r22, r12
     e8a:	0e 94 11 08 	call	0x1022	; 0x1022 <STEPPER_set_accel>
     e8e:	80 e0       	ldi	r24, 0x00	; 0
     e90:	69 2d       	mov	r22, r9
     e92:	a8 01       	movw	r20, r16
     e94:	0e 94 fa 07 	call	0xff4	; 0xff4 <STEPPER_run>
     e98:	81 e0       	ldi	r24, 0x01	; 1
     e9a:	68 2d       	mov	r22, r8
     e9c:	a5 01       	movw	r20, r10
     e9e:	0e 94 fa 07 	call	0xff4	; 0xff4 <STEPPER_run>
     ea2:	42 c0       	rjmp	.+132    	; 0xf28 <STEPPER_move+0x130>
     ea4:	ed b7       	in	r30, 0x3d	; 61
     ea6:	fe b7       	in	r31, 0x3e	; 62
     ea8:	39 97       	sbiw	r30, 0x09	; 9
     eaa:	0f b6       	in	r0, 0x3f	; 63
     eac:	f8 94       	cli
     eae:	fe bf       	out	0x3e, r31	; 62
     eb0:	0f be       	out	0x3f, r0	; 63
     eb2:	ed bf       	out	0x3d, r30	; 61
     eb4:	6d b6       	in	r6, 0x3d	; 61
     eb6:	7e b6       	in	r7, 0x3e	; 62
     eb8:	08 94       	sec
     eba:	61 1c       	adc	r6, r1
     ebc:	71 1c       	adc	r7, r1
     ebe:	52 83       	std	Z+2, r21	; 0x02
     ec0:	41 83       	std	Z+1, r20	; 0x01
     ec2:	f3 01       	movw	r30, r6
     ec4:	b3 82       	std	Z+3, r11	; 0x03
     ec6:	a2 82       	std	Z+2, r10	; 0x02
     ec8:	d5 82       	std	Z+5, r13	; 0x05
     eca:	c4 82       	std	Z+4, r12	; 0x04
     ecc:	96 83       	std	Z+6, r25	; 0x06
     ece:	88 8d       	ldd	r24, Y+24	; 0x18
     ed0:	99 8d       	ldd	r25, Y+25	; 0x19
     ed2:	90 87       	std	Z+8, r25	; 0x08
     ed4:	87 83       	std	Z+7, r24	; 0x07
     ed6:	80 e0       	ldi	r24, 0x00	; 0
     ed8:	49 2d       	mov	r20, r9
     eda:	c7 2e       	mov	r12, r23
     edc:	5d 01       	movw	r10, r26
     ede:	1a c0       	rjmp	.+52     	; 0xf14 <STEPPER_move+0x11c>
     ee0:	ed b7       	in	r30, 0x3d	; 61
     ee2:	fe b7       	in	r31, 0x3e	; 62
     ee4:	39 97       	sbiw	r30, 0x09	; 9
     ee6:	0f b6       	in	r0, 0x3f	; 63
     ee8:	f8 94       	cli
     eea:	fe bf       	out	0x3e, r31	; 62
     eec:	0f be       	out	0x3f, r0	; 63
     eee:	ed bf       	out	0x3d, r30	; 61
     ef0:	ad b7       	in	r26, 0x3d	; 61
     ef2:	be b7       	in	r27, 0x3e	; 62
     ef4:	11 96       	adiw	r26, 0x01	; 1
     ef6:	52 83       	std	Z+2, r21	; 0x02
     ef8:	41 83       	std	Z+1, r20	; 0x01
     efa:	fd 01       	movw	r30, r26
     efc:	b3 82       	std	Z+3, r11	; 0x03
     efe:	a2 82       	std	Z+2, r10	; 0x02
     f00:	d5 82       	std	Z+5, r13	; 0x05
     f02:	c4 82       	std	Z+4, r12	; 0x04
     f04:	96 83       	std	Z+6, r25	; 0x06
     f06:	10 86       	std	Z+8, r1	; 0x08
     f08:	17 82       	std	Z+7, r1	; 0x07
     f0a:	81 e0       	ldi	r24, 0x01	; 1
     f0c:	49 2d       	mov	r20, r9
     f0e:	c7 2e       	mov	r12, r23
     f10:	aa 24       	eor	r10, r10
     f12:	bb 24       	eor	r11, r11
     f14:	0e 94 3f 06 	call	0xc7e	; 0xc7e <STEPPER_stepmode>
     f18:	8d b7       	in	r24, 0x3d	; 61
     f1a:	9e b7       	in	r25, 0x3e	; 62
     f1c:	09 96       	adiw	r24, 0x09	; 9
     f1e:	0f b6       	in	r0, 0x3f	; 63
     f20:	f8 94       	cli
     f22:	9e bf       	out	0x3e, r25	; 62
     f24:	0f be       	out	0x3f, r0	; 63
     f26:	8d bf       	out	0x3d, r24	; 61
     f28:	cf 91       	pop	r28
     f2a:	df 91       	pop	r29
     f2c:	1f 91       	pop	r17
     f2e:	0f 91       	pop	r16
     f30:	ff 90       	pop	r15
     f32:	ef 90       	pop	r14
     f34:	df 90       	pop	r13
     f36:	cf 90       	pop	r12
     f38:	bf 90       	pop	r11
     f3a:	af 90       	pop	r10
     f3c:	9f 90       	pop	r9
     f3e:	8f 90       	pop	r8
     f40:	7f 90       	pop	r7
     f42:	6f 90       	pop	r6
     f44:	08 95       	ret

00000f46 <STEPPER_open>:
     f46:	0e 94 c3 0f 	call	0x1f86	; 0x1f86 <__STEPPER_init>
     f4a:	81 e0       	ldi	r24, 0x01	; 1
     f4c:	80 93 49 04 	sts	0x0449, r24
     f50:	e3 e1       	ldi	r30, 0x13	; 19
     f52:	f4 e0       	ldi	r31, 0x04	; 4
     f54:	11 92       	st	Z+, r1
     f56:	11 92       	st	Z+, r1
     f58:	11 82       	std	Z+1, r1	; 0x01
     f5a:	10 82       	st	Z, r1
     f5c:	32 96       	adiw	r30, 0x02	; 2
     f5e:	11 82       	std	Z+1, r1	; 0x01
     f60:	10 82       	st	Z, r1
     f62:	32 96       	adiw	r30, 0x02	; 2
     f64:	11 82       	std	Z+1, r1	; 0x01
     f66:	10 82       	st	Z, r1
     f68:	32 96       	adiw	r30, 0x02	; 2
     f6a:	11 82       	std	Z+1, r1	; 0x01
     f6c:	10 82       	st	Z, r1
     f6e:	32 96       	adiw	r30, 0x02	; 2
     f70:	11 82       	std	Z+1, r1	; 0x01
     f72:	10 82       	st	Z, r1
     f74:	32 96       	adiw	r30, 0x02	; 2
     f76:	11 82       	std	Z+1, r1	; 0x01
     f78:	10 82       	st	Z, r1
     f7a:	32 96       	adiw	r30, 0x02	; 2
     f7c:	11 82       	std	Z+1, r1	; 0x01
     f7e:	10 82       	st	Z, r1
     f80:	32 96       	adiw	r30, 0x02	; 2
     f82:	11 82       	std	Z+1, r1	; 0x01
     f84:	10 82       	st	Z, r1
     f86:	32 96       	adiw	r30, 0x02	; 2
     f88:	11 82       	std	Z+1, r1	; 0x01
     f8a:	10 82       	st	Z, r1
     f8c:	32 96       	adiw	r30, 0x02	; 2
     f8e:	11 82       	std	Z+1, r1	; 0x01
     f90:	10 82       	st	Z, r1
     f92:	32 96       	adiw	r30, 0x02	; 2
     f94:	11 82       	std	Z+1, r1	; 0x01
     f96:	10 82       	st	Z, r1
     f98:	32 96       	adiw	r30, 0x02	; 2
     f9a:	11 82       	std	Z+1, r1	; 0x01
     f9c:	10 82       	st	Z, r1
     f9e:	36 96       	adiw	r30, 0x06	; 6
     fa0:	11 92       	st	Z+, r1
     fa2:	11 92       	st	Z+, r1
     fa4:	11 92       	st	Z+, r1
     fa6:	10 82       	st	Z, r1
     fa8:	32 96       	adiw	r30, 0x02	; 2
     faa:	11 92       	st	Z+, r1
     fac:	11 92       	st	Z+, r1
     fae:	11 92       	st	Z+, r1
     fb0:	11 92       	st	Z+, r1
     fb2:	11 92       	st	Z+, r1
     fb4:	11 92       	st	Z+, r1
     fb6:	11 92       	st	Z+, r1
     fb8:	11 82       	std	Z+1, r1	; 0x01
     fba:	10 82       	st	Z, r1
     fbc:	32 96       	adiw	r30, 0x02	; 2
     fbe:	11 82       	std	Z+1, r1	; 0x01
     fc0:	10 82       	st	Z, r1
     fc2:	32 96       	adiw	r30, 0x02	; 2
     fc4:	11 82       	std	Z+1, r1	; 0x01
     fc6:	10 82       	st	Z, r1
     fc8:	32 96       	adiw	r30, 0x02	; 2
     fca:	11 82       	std	Z+1, r1	; 0x01
     fcc:	10 82       	st	Z, r1
     fce:	76 97       	sbiw	r30, 0x16	; 22
     fd0:	11 82       	std	Z+1, r1	; 0x01
     fd2:	10 82       	st	Z, r1
     fd4:	32 96       	adiw	r30, 0x02	; 2
     fd6:	11 82       	std	Z+1, r1	; 0x01
     fd8:	10 82       	st	Z, r1
     fda:	10 92 48 04 	sts	0x0448, r1
     fde:	10 92 47 04 	sts	0x0447, r1
     fe2:	10 92 49 04 	sts	0x0449, r1
     fe6:	87 e0       	ldi	r24, 0x07	; 7
     fe8:	61 e0       	ldi	r22, 0x01	; 1
     fea:	0e 94 c6 09 	call	0x138c	; 0x138c <SYS_set_state>
     fee:	87 e0       	ldi	r24, 0x07	; 7
     ff0:	91 e0       	ldi	r25, 0x01	; 1
     ff2:	08 95       	ret

00000ff4 <STEPPER_run>:
     ff4:	ef 92       	push	r14
     ff6:	ff 92       	push	r15
     ff8:	0f 93       	push	r16
     ffa:	1f 93       	push	r17
     ffc:	18 2f       	mov	r17, r24
     ffe:	06 2f       	mov	r16, r22
    1000:	7a 01       	movw	r14, r20
    1002:	60 e0       	ldi	r22, 0x00	; 0
    1004:	0e 94 48 08 	call	0x1090	; 0x1090 <STEPPER_set_mode>
    1008:	81 2f       	mov	r24, r17
    100a:	60 2f       	mov	r22, r16
    100c:	0e 94 33 08 	call	0x1066	; 0x1066 <STEPPER_set_dir>
    1010:	81 2f       	mov	r24, r17
    1012:	b7 01       	movw	r22, r14
    1014:	0e 94 5d 08 	call	0x10ba	; 0x10ba <STEPPER_set_speed>
    1018:	1f 91       	pop	r17
    101a:	0f 91       	pop	r16
    101c:	ff 90       	pop	r15
    101e:	ef 90       	pop	r14
    1020:	08 95       	ret

00001022 <STEPPER_set_accel>:
    1022:	48 2f       	mov	r20, r24
    1024:	81 e0       	ldi	r24, 0x01	; 1
    1026:	80 93 49 04 	sts	0x0449, r24
    102a:	cb 01       	movw	r24, r22
    102c:	23 e0       	ldi	r18, 0x03	; 3
    102e:	69 3e       	cpi	r22, 0xE9	; 233
    1030:	72 07       	cpc	r23, r18
    1032:	10 f0       	brcs	.+4      	; 0x1038 <STEPPER_set_accel+0x16>
    1034:	88 ee       	ldi	r24, 0xE8	; 232
    1036:	93 e0       	ldi	r25, 0x03	; 3
    1038:	41 30       	cpi	r20, 0x01	; 1
    103a:	71 f0       	breq	.+28     	; 0x1058 <STEPPER_set_accel+0x36>
    103c:	41 30       	cpi	r20, 0x01	; 1
    103e:	18 f0       	brcs	.+6      	; 0x1046 <STEPPER_set_accel+0x24>
    1040:	42 30       	cpi	r20, 0x02	; 2
    1042:	71 f4       	brne	.+28     	; 0x1060 <STEPPER_set_accel+0x3e>
    1044:	05 c0       	rjmp	.+10     	; 0x1050 <STEPPER_set_accel+0x2e>
    1046:	90 93 1e 04 	sts	0x041E, r25
    104a:	80 93 1d 04 	sts	0x041D, r24
    104e:	08 c0       	rjmp	.+16     	; 0x1060 <STEPPER_set_accel+0x3e>
    1050:	90 93 1e 04 	sts	0x041E, r25
    1054:	80 93 1d 04 	sts	0x041D, r24
    1058:	90 93 20 04 	sts	0x0420, r25
    105c:	80 93 1f 04 	sts	0x041F, r24
    1060:	10 92 49 04 	sts	0x0449, r1
    1064:	08 95       	ret

00001066 <STEPPER_set_dir>:
    1066:	98 2f       	mov	r25, r24
    1068:	81 e0       	ldi	r24, 0x01	; 1
    106a:	80 93 49 04 	sts	0x0449, r24
    106e:	91 30       	cpi	r25, 0x01	; 1
    1070:	51 f0       	breq	.+20     	; 0x1086 <STEPPER_set_dir+0x20>
    1072:	91 30       	cpi	r25, 0x01	; 1
    1074:	18 f0       	brcs	.+6      	; 0x107c <STEPPER_set_dir+0x16>
    1076:	92 30       	cpi	r25, 0x02	; 2
    1078:	41 f4       	brne	.+16     	; 0x108a <STEPPER_set_dir+0x24>
    107a:	03 c0       	rjmp	.+6      	; 0x1082 <STEPPER_set_dir+0x1c>
    107c:	60 93 36 04 	sts	0x0436, r22
    1080:	04 c0       	rjmp	.+8      	; 0x108a <STEPPER_set_dir+0x24>
    1082:	60 93 36 04 	sts	0x0436, r22
    1086:	60 93 37 04 	sts	0x0437, r22
    108a:	10 92 49 04 	sts	0x0449, r1
    108e:	08 95       	ret

00001090 <STEPPER_set_mode>:
    1090:	98 2f       	mov	r25, r24
    1092:	81 e0       	ldi	r24, 0x01	; 1
    1094:	80 93 49 04 	sts	0x0449, r24
    1098:	91 30       	cpi	r25, 0x01	; 1
    109a:	51 f0       	breq	.+20     	; 0x10b0 <STEPPER_set_mode+0x20>
    109c:	91 30       	cpi	r25, 0x01	; 1
    109e:	18 f0       	brcs	.+6      	; 0x10a6 <STEPPER_set_mode+0x16>
    10a0:	92 30       	cpi	r25, 0x02	; 2
    10a2:	41 f4       	brne	.+16     	; 0x10b4 <STEPPER_set_mode+0x24>
    10a4:	03 c0       	rjmp	.+6      	; 0x10ac <STEPPER_set_mode+0x1c>
    10a6:	60 93 13 04 	sts	0x0413, r22
    10aa:	04 c0       	rjmp	.+8      	; 0x10b4 <STEPPER_set_mode+0x24>
    10ac:	60 93 13 04 	sts	0x0413, r22
    10b0:	60 93 14 04 	sts	0x0414, r22
    10b4:	10 92 49 04 	sts	0x0449, r1
    10b8:	08 95       	ret

000010ba <STEPPER_set_speed>:
    10ba:	48 2f       	mov	r20, r24
    10bc:	81 e0       	ldi	r24, 0x01	; 1
    10be:	80 93 49 04 	sts	0x0449, r24
    10c2:	cb 01       	movw	r24, r22
    10c4:	21 e0       	ldi	r18, 0x01	; 1
    10c6:	61 39       	cpi	r22, 0x91	; 145
    10c8:	72 07       	cpc	r23, r18
    10ca:	10 f0       	brcs	.+4      	; 0x10d0 <STEPPER_set_speed+0x16>
    10cc:	80 e9       	ldi	r24, 0x90	; 144
    10ce:	91 e0       	ldi	r25, 0x01	; 1
    10d0:	41 30       	cpi	r20, 0x01	; 1
    10d2:	71 f0       	breq	.+28     	; 0x10f0 <STEPPER_set_speed+0x36>
    10d4:	41 30       	cpi	r20, 0x01	; 1
    10d6:	18 f0       	brcs	.+6      	; 0x10de <STEPPER_set_speed+0x24>
    10d8:	42 30       	cpi	r20, 0x02	; 2
    10da:	71 f4       	brne	.+28     	; 0x10f8 <STEPPER_set_speed+0x3e>
    10dc:	05 c0       	rjmp	.+10     	; 0x10e8 <STEPPER_set_speed+0x2e>
    10de:	90 93 16 04 	sts	0x0416, r25
    10e2:	80 93 15 04 	sts	0x0415, r24
    10e6:	08 c0       	rjmp	.+16     	; 0x10f8 <STEPPER_set_speed+0x3e>
    10e8:	90 93 16 04 	sts	0x0416, r25
    10ec:	80 93 15 04 	sts	0x0415, r24
    10f0:	90 93 18 04 	sts	0x0418, r25
    10f4:	80 93 17 04 	sts	0x0417, r24
    10f8:	10 92 49 04 	sts	0x0449, r1
    10fc:	08 95       	ret

000010fe <STEPPER_step>:
    10fe:	8f 92       	push	r8
    1100:	9f 92       	push	r9
    1102:	af 92       	push	r10
    1104:	bf 92       	push	r11
    1106:	cf 92       	push	r12
    1108:	df 92       	push	r13
    110a:	ef 92       	push	r14
    110c:	ff 92       	push	r15
    110e:	0f 93       	push	r16
    1110:	1f 93       	push	r17
    1112:	cf 93       	push	r28
    1114:	df 93       	push	r29
    1116:	18 2f       	mov	r17, r24
    1118:	f6 2e       	mov	r15, r22
    111a:	5a 01       	movw	r10, r20
    111c:	49 01       	movw	r8, r18
    111e:	e6 01       	movw	r28, r12
    1120:	61 e0       	ldi	r22, 0x01	; 1
    1122:	0e 94 48 08 	call	0x1090	; 0x1090 <STEPPER_set_mode>
    1126:	81 2f       	mov	r24, r17
    1128:	b5 01       	movw	r22, r10
    112a:	a4 01       	movw	r20, r8
    112c:	0e 94 fd 0f 	call	0x1ffa	; 0x1ffa <STEPPER_setup_decels>
    1130:	81 2f       	mov	r24, r17
    1132:	6f 2d       	mov	r22, r15
    1134:	0e 94 33 08 	call	0x1066	; 0x1066 <STEPPER_set_dir>
    1138:	81 2f       	mov	r24, r17
    113a:	60 2f       	mov	r22, r16
    113c:	0e 94 e8 0f 	call	0x1fd0	; 0x1fd0 <STEPPER_set_stop_mode>
    1140:	81 2f       	mov	r24, r17
    1142:	b5 01       	movw	r22, r10
    1144:	0e 94 cd 0f 	call	0x1f9a	; 0x1f9a <STEPPER_set_steps>
    1148:	c1 14       	cp	r12, r1
    114a:	d1 04       	cpc	r13, r1
    114c:	99 f0       	breq	.+38     	; 0x1174 <STEPPER_step+0x76>
    114e:	11 30       	cpi	r17, 0x01	; 1
    1150:	49 f0       	breq	.+18     	; 0x1164 <STEPPER_step+0x66>
    1152:	11 30       	cpi	r17, 0x01	; 1
    1154:	18 f0       	brcs	.+6      	; 0x115c <STEPPER_step+0x5e>
    1156:	12 30       	cpi	r17, 0x02	; 2
    1158:	69 f4       	brne	.+26     	; 0x1174 <STEPPER_step+0x76>
    115a:	06 c0       	rjmp	.+12     	; 0x1168 <STEPPER_step+0x6a>
    115c:	18 82       	st	Y, r1
    115e:	10 92 45 04 	sts	0x0445, r1
    1162:	08 c0       	rjmp	.+16     	; 0x1174 <STEPPER_step+0x76>
    1164:	19 82       	std	Y+1, r1	; 0x01
    1166:	04 c0       	rjmp	.+8      	; 0x1170 <STEPPER_step+0x72>
    1168:	18 82       	st	Y, r1
    116a:	19 82       	std	Y+1, r1	; 0x01
    116c:	10 92 45 04 	sts	0x0445, r1
    1170:	10 92 46 04 	sts	0x0446, r1
    1174:	d0 93 48 04 	sts	0x0448, r29
    1178:	c0 93 47 04 	sts	0x0447, r28
    117c:	ee 20       	and	r14, r14
    117e:	b9 f5       	brne	.+110    	; 0x11ee <STEPPER_step+0xf0>
    1180:	8c e9       	ldi	r24, 0x9C	; 156
    1182:	93 e0       	ldi	r25, 0x03	; 3
    1184:	90 93 48 04 	sts	0x0448, r25
    1188:	80 93 47 04 	sts	0x0447, r24
    118c:	81 2f       	mov	r24, r17
    118e:	b4 01       	movw	r22, r8
    1190:	0e 94 5d 08 	call	0x10ba	; 0x10ba <STEPPER_set_speed>
    1194:	81 2f       	mov	r24, r17
    1196:	0e 94 ae 0f 	call	0x1f5c	; 0x1f5c <STEPPER_go>
    119a:	11 30       	cpi	r17, 0x01	; 1
    119c:	71 f0       	breq	.+28     	; 0x11ba <STEPPER_step+0xbc>
    119e:	11 30       	cpi	r17, 0x01	; 1
    11a0:	18 f0       	brcs	.+6      	; 0x11a8 <STEPPER_step+0xaa>
    11a2:	12 30       	cpi	r17, 0x02	; 2
    11a4:	59 f5       	brne	.+86     	; 0x11fc <STEPPER_step+0xfe>
    11a6:	12 c0       	rjmp	.+36     	; 0x11cc <STEPPER_step+0xce>
    11a8:	10 92 9c 03 	sts	0x039C, r1
    11ac:	10 92 45 04 	sts	0x0445, r1
    11b0:	80 91 9c 03 	lds	r24, 0x039C
    11b4:	88 23       	and	r24, r24
    11b6:	e1 f3       	breq	.-8      	; 0x11b0 <STEPPER_step+0xb2>
    11b8:	21 c0       	rjmp	.+66     	; 0x11fc <STEPPER_step+0xfe>
    11ba:	10 92 9d 03 	sts	0x039D, r1
    11be:	10 92 46 04 	sts	0x0446, r1
    11c2:	80 91 9d 03 	lds	r24, 0x039D
    11c6:	88 23       	and	r24, r24
    11c8:	e1 f3       	breq	.-8      	; 0x11c2 <STEPPER_step+0xc4>
    11ca:	18 c0       	rjmp	.+48     	; 0x11fc <STEPPER_step+0xfe>
    11cc:	10 92 9c 03 	sts	0x039C, r1
    11d0:	10 92 9d 03 	sts	0x039D, r1
    11d4:	10 92 45 04 	sts	0x0445, r1
    11d8:	10 92 46 04 	sts	0x0446, r1
    11dc:	80 91 9c 03 	lds	r24, 0x039C
    11e0:	88 23       	and	r24, r24
    11e2:	e1 f3       	breq	.-8      	; 0x11dc <STEPPER_step+0xde>
    11e4:	80 91 9d 03 	lds	r24, 0x039D
    11e8:	88 23       	and	r24, r24
    11ea:	c1 f3       	breq	.-16     	; 0x11dc <STEPPER_step+0xde>
    11ec:	07 c0       	rjmp	.+14     	; 0x11fc <STEPPER_step+0xfe>
    11ee:	81 2f       	mov	r24, r17
    11f0:	b4 01       	movw	r22, r8
    11f2:	0e 94 5d 08 	call	0x10ba	; 0x10ba <STEPPER_set_speed>
    11f6:	81 2f       	mov	r24, r17
    11f8:	0e 94 ae 0f 	call	0x1f5c	; 0x1f5c <STEPPER_go>
    11fc:	df 91       	pop	r29
    11fe:	cf 91       	pop	r28
    1200:	1f 91       	pop	r17
    1202:	0f 91       	pop	r16
    1204:	ff 90       	pop	r15
    1206:	ef 90       	pop	r14
    1208:	df 90       	pop	r13
    120a:	cf 90       	pop	r12
    120c:	bf 90       	pop	r11
    120e:	af 90       	pop	r10
    1210:	9f 90       	pop	r9
    1212:	8f 90       	pop	r8
    1214:	08 95       	ret

00001216 <STEPPER_stop>:
    1216:	0f 93       	push	r16
    1218:	1f 93       	push	r17
    121a:	18 2f       	mov	r17, r24
    121c:	06 2f       	mov	r16, r22
    121e:	66 23       	and	r22, r22
    1220:	49 f4       	brne	.+18     	; 0x1234 <STEPPER_stop+0x1e>
    1222:	60 e0       	ldi	r22, 0x00	; 0
    1224:	70 e0       	ldi	r23, 0x00	; 0
    1226:	0e 94 5d 08 	call	0x10ba	; 0x10ba <STEPPER_set_speed>
    122a:	81 2f       	mov	r24, r17
    122c:	60 e0       	ldi	r22, 0x00	; 0
    122e:	70 e0       	ldi	r23, 0x00	; 0
    1230:	0e 94 cd 0f 	call	0x1f9a	; 0x1f9a <STEPPER_set_steps>
    1234:	81 e0       	ldi	r24, 0x01	; 1
    1236:	80 93 49 04 	sts	0x0449, r24
    123a:	11 30       	cpi	r17, 0x01	; 1
    123c:	51 f0       	breq	.+20     	; 0x1252 <STEPPER_stop+0x3c>
    123e:	11 30       	cpi	r17, 0x01	; 1
    1240:	18 f0       	brcs	.+6      	; 0x1248 <STEPPER_stop+0x32>
    1242:	12 30       	cpi	r17, 0x02	; 2
    1244:	41 f4       	brne	.+16     	; 0x1256 <STEPPER_stop+0x40>
    1246:	03 c0       	rjmp	.+6      	; 0x124e <STEPPER_stop+0x38>
    1248:	00 93 31 04 	sts	0x0431, r16
    124c:	04 c0       	rjmp	.+8      	; 0x1256 <STEPPER_stop+0x40>
    124e:	00 93 31 04 	sts	0x0431, r16
    1252:	00 93 32 04 	sts	0x0432, r16
    1256:	10 92 49 04 	sts	0x0449, r1
    125a:	1f 91       	pop	r17
    125c:	0f 91       	pop	r16
    125e:	08 95       	ret

00001260 <STEPPER_wait_and_then>:
    1260:	cf 92       	push	r12
    1262:	df 92       	push	r13
    1264:	ef 92       	push	r14
    1266:	ff 92       	push	r15
    1268:	0f 93       	push	r16
    126a:	1f 93       	push	r17
    126c:	df 93       	push	r29
    126e:	cf 93       	push	r28
    1270:	cd b7       	in	r28, 0x3d	; 61
    1272:	de b7       	in	r29, 0x3e	; 62
    1274:	8b 85       	ldd	r24, Y+11	; 0x0b
    1276:	81 30       	cpi	r24, 0x01	; 1
    1278:	61 f0       	breq	.+24     	; 0x1292 <STEPPER_wait_and_then+0x32>
    127a:	81 30       	cpi	r24, 0x01	; 1
    127c:	18 f0       	brcs	.+6      	; 0x1284 <STEPPER_wait_and_then+0x24>
    127e:	82 30       	cpi	r24, 0x02	; 2
    1280:	a1 f5       	brne	.+104    	; 0x12ea <STEPPER_wait_and_then+0x8a>
    1282:	11 c0       	rjmp	.+34     	; 0x12a6 <STEPPER_wait_and_then+0x46>
    1284:	ec 85       	ldd	r30, Y+12	; 0x0c
    1286:	fd 85       	ldd	r31, Y+13	; 0x0d
    1288:	80 91 4a 04 	lds	r24, 0x044A
    128c:	88 23       	and	r24, r24
    128e:	e1 f3       	breq	.-8      	; 0x1288 <STEPPER_wait_and_then+0x28>
    1290:	06 c0       	rjmp	.+12     	; 0x129e <STEPPER_wait_and_then+0x3e>
    1292:	ec 85       	ldd	r30, Y+12	; 0x0c
    1294:	fd 85       	ldd	r31, Y+13	; 0x0d
    1296:	80 91 4b 04 	lds	r24, 0x044B
    129a:	88 23       	and	r24, r24
    129c:	e1 f3       	breq	.-8      	; 0x1296 <STEPPER_wait_and_then+0x36>
    129e:	30 97       	sbiw	r30, 0x00	; 0
    12a0:	21 f1       	breq	.+72     	; 0x12ea <STEPPER_wait_and_then+0x8a>
    12a2:	09 95       	icall
    12a4:	22 c0       	rjmp	.+68     	; 0x12ea <STEPPER_wait_and_then+0x8a>
    12a6:	cc 84       	ldd	r12, Y+12	; 0x0c
    12a8:	dd 84       	ldd	r13, Y+13	; 0x0d
    12aa:	ee 84       	ldd	r14, Y+14	; 0x0e
    12ac:	ff 84       	ldd	r15, Y+15	; 0x0f
    12ae:	00 e0       	ldi	r16, 0x00	; 0
    12b0:	10 e0       	ldi	r17, 0x00	; 0
    12b2:	00 23       	and	r16, r16
    12b4:	51 f4       	brne	.+20     	; 0x12ca <STEPPER_wait_and_then+0x6a>
    12b6:	80 91 4a 04 	lds	r24, 0x044A
    12ba:	88 23       	and	r24, r24
    12bc:	31 f0       	breq	.+12     	; 0x12ca <STEPPER_wait_and_then+0x6a>
    12be:	c1 14       	cp	r12, r1
    12c0:	d1 04       	cpc	r13, r1
    12c2:	11 f0       	breq	.+4      	; 0x12c8 <STEPPER_wait_and_then+0x68>
    12c4:	f6 01       	movw	r30, r12
    12c6:	09 95       	icall
    12c8:	01 e0       	ldi	r16, 0x01	; 1
    12ca:	11 23       	and	r17, r17
    12cc:	51 f4       	brne	.+20     	; 0x12e2 <STEPPER_wait_and_then+0x82>
    12ce:	80 91 4b 04 	lds	r24, 0x044B
    12d2:	88 23       	and	r24, r24
    12d4:	31 f0       	breq	.+12     	; 0x12e2 <STEPPER_wait_and_then+0x82>
    12d6:	e1 14       	cp	r14, r1
    12d8:	f1 04       	cpc	r15, r1
    12da:	11 f0       	breq	.+4      	; 0x12e0 <STEPPER_wait_and_then+0x80>
    12dc:	f7 01       	movw	r30, r14
    12de:	09 95       	icall
    12e0:	11 e0       	ldi	r17, 0x01	; 1
    12e2:	00 23       	and	r16, r16
    12e4:	31 f3       	breq	.-52     	; 0x12b2 <STEPPER_wait_and_then+0x52>
    12e6:	11 23       	and	r17, r17
    12e8:	21 f3       	breq	.-56     	; 0x12b2 <STEPPER_wait_and_then+0x52>
    12ea:	cf 91       	pop	r28
    12ec:	df 91       	pop	r29
    12ee:	1f 91       	pop	r17
    12f0:	0f 91       	pop	r16
    12f2:	ff 90       	pop	r15
    12f4:	ef 90       	pop	r14
    12f6:	df 90       	pop	r13
    12f8:	cf 90       	pop	r12
    12fa:	08 95       	ret

000012fc <SYS_get_state>:
    12fc:	e8 2f       	mov	r30, r24
    12fe:	f0 e0       	ldi	r31, 0x00	; 0
    1300:	e3 31       	cpi	r30, 0x13	; 19
    1302:	f1 05       	cpc	r31, r1
    1304:	40 f4       	brcc	.+16     	; 0x1316 <SYS_get_state+0x1a>
    1306:	ec 59       	subi	r30, 0x9C	; 156
    1308:	ff 4f       	sbci	r31, 0xFF	; 255
    130a:	ee 0f       	add	r30, r30
    130c:	ff 1f       	adc	r31, r31
    130e:	05 90       	lpm	r0, Z+
    1310:	f4 91       	lpm	r31, Z
    1312:	e0 2d       	mov	r30, r0
    1314:	09 94       	ijmp
    1316:	80 e0       	ldi	r24, 0x00	; 0
    1318:	08 95       	ret
    131a:	80 91 4c 04 	lds	r24, 0x044C
    131e:	08 95       	ret
    1320:	80 91 4d 04 	lds	r24, 0x044D
    1324:	08 95       	ret
    1326:	80 91 4e 04 	lds	r24, 0x044E
    132a:	08 95       	ret
    132c:	80 91 4f 04 	lds	r24, 0x044F
    1330:	08 95       	ret
    1332:	80 91 50 04 	lds	r24, 0x0450
    1336:	08 95       	ret
    1338:	80 91 52 04 	lds	r24, 0x0452
    133c:	08 95       	ret
    133e:	80 91 51 04 	lds	r24, 0x0451
    1342:	08 95       	ret
    1344:	80 91 53 04 	lds	r24, 0x0453
    1348:	08 95       	ret
    134a:	80 91 54 04 	lds	r24, 0x0454
    134e:	08 95       	ret
    1350:	80 91 55 04 	lds	r24, 0x0455
    1354:	08 95       	ret
    1356:	80 91 56 04 	lds	r24, 0x0456
    135a:	08 95       	ret
    135c:	80 91 57 04 	lds	r24, 0x0457
    1360:	08 95       	ret
    1362:	80 91 58 04 	lds	r24, 0x0458
    1366:	08 95       	ret
    1368:	80 91 59 04 	lds	r24, 0x0459
    136c:	08 95       	ret
    136e:	80 91 5a 04 	lds	r24, 0x045A
    1372:	08 95       	ret
    1374:	80 91 5b 04 	lds	r24, 0x045B
    1378:	08 95       	ret
    137a:	80 91 5c 04 	lds	r24, 0x045C
    137e:	08 95       	ret
    1380:	80 91 5d 04 	lds	r24, 0x045D
    1384:	08 95       	ret
    1386:	80 91 5e 04 	lds	r24, 0x045E
    138a:	08 95       	ret

0000138c <SYS_set_state>:
    138c:	e8 2f       	mov	r30, r24
    138e:	f0 e0       	ldi	r31, 0x00	; 0
    1390:	e3 31       	cpi	r30, 0x13	; 19
    1392:	f1 05       	cpc	r31, r1
    1394:	08 f0       	brcs	.+2      	; 0x1398 <SYS_set_state+0xc>
    1396:	40 c0       	rjmp	.+128    	; 0x1418 <SYS_set_state+0x8c>
    1398:	e9 58       	subi	r30, 0x89	; 137
    139a:	ff 4f       	sbci	r31, 0xFF	; 255
    139c:	ee 0f       	add	r30, r30
    139e:	ff 1f       	adc	r31, r31
    13a0:	05 90       	lpm	r0, Z+
    13a2:	f4 91       	lpm	r31, Z
    13a4:	e0 2d       	mov	r30, r0
    13a6:	09 94       	ijmp
    13a8:	60 93 4c 04 	sts	0x044C, r22
    13ac:	08 95       	ret
    13ae:	60 93 4d 04 	sts	0x044D, r22
    13b2:	08 95       	ret
    13b4:	60 93 4e 04 	sts	0x044E, r22
    13b8:	08 95       	ret
    13ba:	60 93 4f 04 	sts	0x044F, r22
    13be:	08 95       	ret
    13c0:	60 93 50 04 	sts	0x0450, r22
    13c4:	08 95       	ret
    13c6:	60 93 52 04 	sts	0x0452, r22
    13ca:	08 95       	ret
    13cc:	60 93 51 04 	sts	0x0451, r22
    13d0:	08 95       	ret
    13d2:	60 93 53 04 	sts	0x0453, r22
    13d6:	08 95       	ret
    13d8:	60 93 54 04 	sts	0x0454, r22
    13dc:	08 95       	ret
    13de:	60 93 55 04 	sts	0x0455, r22
    13e2:	08 95       	ret
    13e4:	60 93 56 04 	sts	0x0456, r22
    13e8:	08 95       	ret
    13ea:	60 93 57 04 	sts	0x0457, r22
    13ee:	08 95       	ret
    13f0:	60 93 58 04 	sts	0x0458, r22
    13f4:	08 95       	ret
    13f6:	60 93 59 04 	sts	0x0459, r22
    13fa:	08 95       	ret
    13fc:	60 93 5a 04 	sts	0x045A, r22
    1400:	08 95       	ret
    1402:	60 93 5b 04 	sts	0x045B, r22
    1406:	08 95       	ret
    1408:	60 93 5c 04 	sts	0x045C, r22
    140c:	08 95       	ret
    140e:	60 93 5d 04 	sts	0x045D, r22
    1412:	08 95       	ret
    1414:	60 93 5c 04 	sts	0x045C, r22
    1418:	08 95       	ret

0000141a <ATTINY_get_SW_state>:
    141a:	1f 93       	push	r17
    141c:	cf 93       	push	r28
    141e:	df 93       	push	r29
    1420:	18 2f       	mov	r17, r24
    1422:	80 91 9f 03 	lds	r24, 0x039F
    1426:	88 23       	and	r24, r24
    1428:	41 f0       	breq	.+16     	; 0x143a <ATTINY_get_SW_state+0x20>
    142a:	80 91 a9 03 	lds	r24, 0x03A9
    142e:	88 23       	and	r24, r24
    1430:	99 f0       	breq	.+38     	; 0x1458 <ATTINY_get_SW_state+0x3e>
    1432:	10 92 9f 03 	sts	0x039F, r1
    1436:	10 92 a9 03 	sts	0x03A9, r1
    143a:	0e 94 5d 10 	call	0x20ba	; 0x20ba <ATTINY_get_sensors>
    143e:	80 93 9e 03 	sts	0x039E, r24
    1442:	83 ea       	ldi	r24, 0xA3	; 163
    1444:	93 e0       	ldi	r25, 0x03	; 3
    1446:	61 e0       	ldi	r22, 0x01	; 1
    1448:	40 e0       	ldi	r20, 0x00	; 0
    144a:	22 e3       	ldi	r18, 0x32	; 50
    144c:	30 e0       	ldi	r19, 0x00	; 0
    144e:	0e 94 cb 0a 	call	0x1596	; 0x1596 <TMRSRVC_new>
    1452:	81 e0       	ldi	r24, 0x01	; 1
    1454:	80 93 9f 03 	sts	0x039F, r24
    1458:	90 91 9e 03 	lds	r25, 0x039E
    145c:	a1 2f       	mov	r26, r17
    145e:	b0 e0       	ldi	r27, 0x00	; 0
    1460:	ed 01       	movw	r28, r26
    1462:	c7 5f       	subi	r28, 0xF7	; 247
    1464:	de 4f       	sbci	r29, 0xFE	; 254
    1466:	88 81       	ld	r24, Y
    1468:	88 23       	and	r24, r24
    146a:	69 f0       	breq	.+26     	; 0x1486 <ATTINY_get_SW_state+0x6c>
    146c:	fd 01       	movw	r30, r26
    146e:	e4 5f       	subi	r30, 0xF4	; 244
    1470:	fe 4f       	sbci	r31, 0xFE	; 254
    1472:	80 81       	ld	r24, Z
    1474:	98 23       	and	r25, r24
    1476:	c1 f0       	breq	.+48     	; 0x14a8 <ATTINY_get_SW_state+0x8e>
    1478:	fd 01       	movw	r30, r26
    147a:	e0 56       	subi	r30, 0x60	; 96
    147c:	fc 4f       	sbci	r31, 0xFC	; 252
    147e:	81 e0       	ldi	r24, 0x01	; 1
    1480:	80 83       	st	Z, r24
    1482:	18 82       	st	Y, r1
    1484:	11 c0       	rjmp	.+34     	; 0x14a8 <ATTINY_get_SW_state+0x8e>
    1486:	fd 01       	movw	r30, r26
    1488:	e0 56       	subi	r30, 0x60	; 96
    148a:	fc 4f       	sbci	r31, 0xFC	; 252
    148c:	80 81       	ld	r24, Z
    148e:	81 11       	cpse	r24, r1
    1490:	10 82       	st	Z, r1
    1492:	fd 01       	movw	r30, r26
    1494:	e4 5f       	subi	r30, 0xF4	; 244
    1496:	fe 4f       	sbci	r31, 0xFE	; 254
    1498:	80 81       	ld	r24, Z
    149a:	98 23       	and	r25, r24
    149c:	29 f4       	brne	.+10     	; 0x14a8 <ATTINY_get_SW_state+0x8e>
    149e:	fd 01       	movw	r30, r26
    14a0:	e7 5f       	subi	r30, 0xF7	; 247
    14a2:	fe 4f       	sbci	r31, 0xFE	; 254
    14a4:	81 e0       	ldi	r24, 0x01	; 1
    14a6:	80 83       	st	Z, r24
    14a8:	a0 56       	subi	r26, 0x60	; 96
    14aa:	bc 4f       	sbci	r27, 0xFC	; 252
    14ac:	8c 91       	ld	r24, X
    14ae:	df 91       	pop	r29
    14b0:	cf 91       	pop	r28
    14b2:	1f 91       	pop	r17
    14b4:	08 95       	ret

000014b6 <ATTINY_open>:
    14b6:	82 e0       	ldi	r24, 0x02	; 2
    14b8:	0e 94 7e 09 	call	0x12fc	; 0x12fc <SYS_get_state>
    14bc:	88 23       	and	r24, r24
    14be:	19 f4       	brne	.+6      	; 0x14c6 <ATTINY_open+0x10>
    14c0:	90 e0       	ldi	r25, 0x00	; 0
    14c2:	82 e0       	ldi	r24, 0x02	; 2
    14c4:	08 95       	ret
    14c6:	10 92 7a 04 	sts	0x047A, r1
    14ca:	10 92 79 04 	sts	0x0479, r1
    14ce:	10 92 7c 04 	sts	0x047C, r1
    14d2:	10 92 7b 04 	sts	0x047B, r1
    14d6:	10 92 7e 04 	sts	0x047E, r1
    14da:	10 92 7d 04 	sts	0x047D, r1
    14de:	10 92 80 04 	sts	0x0480, r1
    14e2:	10 92 7f 04 	sts	0x047F, r1
    14e6:	10 92 82 04 	sts	0x0482, r1
    14ea:	10 92 81 04 	sts	0x0481, r1
    14ee:	80 e9       	ldi	r24, 0x90	; 144
    14f0:	91 e0       	ldi	r25, 0x01	; 1
    14f2:	90 93 66 04 	sts	0x0466, r25
    14f6:	80 93 65 04 	sts	0x0465, r24
    14fa:	90 93 68 04 	sts	0x0468, r25
    14fe:	80 93 67 04 	sts	0x0467, r24
    1502:	90 93 6a 04 	sts	0x046A, r25
    1506:	80 93 69 04 	sts	0x0469, r24
    150a:	90 93 6c 04 	sts	0x046C, r25
    150e:	80 93 6b 04 	sts	0x046B, r24
    1512:	90 93 6e 04 	sts	0x046E, r25
    1516:	80 93 6d 04 	sts	0x046D, r24
    151a:	84 e3       	ldi	r24, 0x34	; 52
    151c:	98 e0       	ldi	r25, 0x08	; 8
    151e:	90 93 70 04 	sts	0x0470, r25
    1522:	80 93 6f 04 	sts	0x046F, r24
    1526:	90 93 72 04 	sts	0x0472, r25
    152a:	80 93 71 04 	sts	0x0471, r24
    152e:	90 93 74 04 	sts	0x0474, r25
    1532:	80 93 73 04 	sts	0x0473, r24
    1536:	90 93 76 04 	sts	0x0476, r25
    153a:	80 93 75 04 	sts	0x0475, r24
    153e:	90 93 78 04 	sts	0x0478, r25
    1542:	80 93 77 04 	sts	0x0477, r24
    1546:	81 e0       	ldi	r24, 0x01	; 1
    1548:	61 e0       	ldi	r22, 0x01	; 1
    154a:	0e 94 c6 09 	call	0x138c	; 0x138c <SYS_set_state>
    154e:	91 e0       	ldi	r25, 0x01	; 1
    1550:	81 e0       	ldi	r24, 0x01	; 1
    1552:	08 95       	ret

00001554 <TMRSRVC_delay>:
    1554:	df 93       	push	r29
    1556:	cf 93       	push	r28
    1558:	cd b7       	in	r28, 0x3d	; 61
    155a:	de b7       	in	r29, 0x3e	; 62
    155c:	29 97       	sbiw	r28, 0x09	; 9
    155e:	0f b6       	in	r0, 0x3f	; 63
    1560:	f8 94       	cli
    1562:	de bf       	out	0x3e, r29	; 62
    1564:	0f be       	out	0x3f, r0	; 63
    1566:	cd bf       	out	0x3d, r28	; 61
    1568:	9c 01       	movw	r18, r24
    156a:	ce 01       	movw	r24, r28
    156c:	01 96       	adiw	r24, 0x01	; 1
    156e:	61 e0       	ldi	r22, 0x01	; 1
    1570:	40 e0       	ldi	r20, 0x00	; 0
    1572:	0e 94 cb 0a 	call	0x1596	; 0x1596 <TMRSRVC_new>
    1576:	98 2f       	mov	r25, r24
    1578:	88 23       	and	r24, r24
    157a:	19 f4       	brne	.+6      	; 0x1582 <TMRSRVC_delay+0x2e>
    157c:	8f 81       	ldd	r24, Y+7	; 0x07
    157e:	88 23       	and	r24, r24
    1580:	e9 f3       	breq	.-6      	; 0x157c <TMRSRVC_delay+0x28>
    1582:	89 2f       	mov	r24, r25
    1584:	29 96       	adiw	r28, 0x09	; 9
    1586:	0f b6       	in	r0, 0x3f	; 63
    1588:	f8 94       	cli
    158a:	de bf       	out	0x3e, r29	; 62
    158c:	0f be       	out	0x3f, r0	; 63
    158e:	cd bf       	out	0x3d, r28	; 61
    1590:	cf 91       	pop	r28
    1592:	df 91       	pop	r29
    1594:	08 95       	ret

00001596 <TMRSRVC_new>:
    1596:	ef 92       	push	r14
    1598:	ff 92       	push	r15
    159a:	0f 93       	push	r16
    159c:	1f 93       	push	r17
    159e:	cf 93       	push	r28
    15a0:	df 93       	push	r29
    15a2:	ec 01       	movw	r28, r24
    15a4:	f6 2e       	mov	r15, r22
    15a6:	e4 2e       	mov	r14, r20
    15a8:	89 01       	movw	r16, r18
    15aa:	88 e0       	ldi	r24, 0x08	; 8
    15ac:	0e 94 7e 09 	call	0x12fc	; 0x12fc <SYS_get_state>
    15b0:	81 30       	cpi	r24, 0x01	; 1
    15b2:	11 f0       	breq	.+4      	; 0x15b8 <TMRSRVC_new+0x22>
    15b4:	81 e0       	ldi	r24, 0x01	; 1
    15b6:	26 c0       	rjmp	.+76     	; 0x1604 <TMRSRVC_new+0x6e>
    15b8:	84 e0       	ldi	r24, 0x04	; 4
    15ba:	90 e0       	ldi	r25, 0x00	; 0
    15bc:	0e 94 18 32 	call	0x6430	; 0x6430 <malloc>
    15c0:	fc 01       	movw	r30, r24
    15c2:	00 97       	sbiw	r24, 0x00	; 0
    15c4:	11 f4       	brne	.+4      	; 0x15ca <TMRSRVC_new+0x34>
    15c6:	82 e0       	ldi	r24, 0x02	; 2
    15c8:	1d c0       	rjmp	.+58     	; 0x1604 <TMRSRVC_new+0x6e>
    15ca:	f9 82       	std	Y+1, r15	; 0x01
    15cc:	f0 fc       	sbrc	r15, 0
    15ce:	1e 82       	std	Y+6, r1	; 0x06
    15d0:	81 e0       	ldi	r24, 0x01	; 1
    15d2:	e8 16       	cp	r14, r24
    15d4:	19 f4       	brne	.+6      	; 0x15dc <TMRSRVC_new+0x46>
    15d6:	89 81       	ldd	r24, Y+1	; 0x01
    15d8:	84 60       	ori	r24, 0x04	; 4
    15da:	89 83       	std	Y+1, r24	; 0x01
    15dc:	89 81       	ldd	r24, Y+1	; 0x01
    15de:	88 60       	ori	r24, 0x08	; 8
    15e0:	89 83       	std	Y+1, r24	; 0x01
    15e2:	1b 83       	std	Y+3, r17	; 0x03
    15e4:	0a 83       	std	Y+2, r16	; 0x02
    15e6:	1d 83       	std	Y+5, r17	; 0x05
    15e8:	0c 83       	std	Y+4, r16	; 0x04
    15ea:	d1 83       	std	Z+1, r29	; 0x01
    15ec:	c0 83       	st	Z, r28
    15ee:	13 82       	std	Z+3, r1	; 0x03
    15f0:	12 82       	std	Z+2, r1	; 0x02
    15f2:	81 e0       	ldi	r24, 0x01	; 1
    15f4:	80 93 0c 04 	sts	0x040C, r24
    15f8:	cf 01       	movw	r24, r30
    15fa:	0e 94 8e 10 	call	0x211c	; 0x211c <TMRSRVC_insert>
    15fe:	10 92 0c 04 	sts	0x040C, r1
    1602:	80 e0       	ldi	r24, 0x00	; 0
    1604:	df 91       	pop	r29
    1606:	cf 91       	pop	r28
    1608:	1f 91       	pop	r17
    160a:	0f 91       	pop	r16
    160c:	ff 90       	pop	r15
    160e:	ef 90       	pop	r14
    1610:	08 95       	ret

00001612 <__ADC_init>:
    1612:	8f e1       	ldi	r24, 0x1F	; 31
    1614:	80 93 7c 00 	sts	0x007C, r24
    1618:	ea e7       	ldi	r30, 0x7A	; 122
    161a:	f0 e0       	ldi	r31, 0x00	; 0
    161c:	87 e0       	ldi	r24, 0x07	; 7
    161e:	80 83       	st	Z, r24
    1620:	80 81       	ld	r24, Z
    1622:	80 68       	ori	r24, 0x80	; 128
    1624:	80 83       	st	Z, r24
    1626:	08 95       	ret

00001628 <CBOT_init>:
    1628:	0e 94 3a 10 	call	0x2074	; 0x2074 <SYS_init>
    162c:	0e 94 39 0e 	call	0x1c72	; 0x1c72 <ATMEGA_open>
    1630:	0e 94 76 0d 	call	0x1aec	; 0x1aec <ISR_open>
    1634:	0e 94 f7 10 	call	0x21ee	; 0x21ee <TMRSRVC_open>
    1638:	0e 94 9e 0e 	call	0x1d3c	; 0x1d3c <SPI_open>
    163c:	0e 94 5b 0a 	call	0x14b6	; 0x14b6 <ATTINY_open>
    1640:	78 94       	sei
    1642:	08 95       	ret

00001644 <CBOT_ISR_init>:
    1644:	00 00       	nop
    1646:	08 95       	ret

00001648 <__vector_16>:
    1648:	1f 92       	push	r1
    164a:	0f 92       	push	r0
    164c:	0f b6       	in	r0, 0x3f	; 63
    164e:	0f 92       	push	r0
    1650:	11 24       	eor	r1, r1
    1652:	2f 93       	push	r18
    1654:	3f 93       	push	r19
    1656:	4f 93       	push	r20
    1658:	5f 93       	push	r21
    165a:	6f 93       	push	r22
    165c:	7f 93       	push	r23
    165e:	8f 93       	push	r24
    1660:	9f 93       	push	r25
    1662:	af 93       	push	r26
    1664:	bf 93       	push	r27
    1666:	ef 93       	push	r30
    1668:	ff 93       	push	r31
    166a:	e0 91 cc 03 	lds	r30, 0x03CC
    166e:	f0 91 cd 03 	lds	r31, 0x03CD
    1672:	30 97       	sbiw	r30, 0x00	; 0
    1674:	09 f0       	breq	.+2      	; 0x1678 <__vector_16+0x30>
    1676:	09 95       	icall
    1678:	ff 91       	pop	r31
    167a:	ef 91       	pop	r30
    167c:	bf 91       	pop	r27
    167e:	af 91       	pop	r26
    1680:	9f 91       	pop	r25
    1682:	8f 91       	pop	r24
    1684:	7f 91       	pop	r23
    1686:	6f 91       	pop	r22
    1688:	5f 91       	pop	r21
    168a:	4f 91       	pop	r20
    168c:	3f 91       	pop	r19
    168e:	2f 91       	pop	r18
    1690:	0f 90       	pop	r0
    1692:	0f be       	out	0x3f, r0	; 63
    1694:	0f 90       	pop	r0
    1696:	1f 90       	pop	r1
    1698:	18 95       	reti

0000169a <__vector_17>:
    169a:	1f 92       	push	r1
    169c:	0f 92       	push	r0
    169e:	0f b6       	in	r0, 0x3f	; 63
    16a0:	0f 92       	push	r0
    16a2:	11 24       	eor	r1, r1
    16a4:	2f 93       	push	r18
    16a6:	3f 93       	push	r19
    16a8:	4f 93       	push	r20
    16aa:	5f 93       	push	r21
    16ac:	6f 93       	push	r22
    16ae:	7f 93       	push	r23
    16b0:	8f 93       	push	r24
    16b2:	9f 93       	push	r25
    16b4:	af 93       	push	r26
    16b6:	bf 93       	push	r27
    16b8:	ef 93       	push	r30
    16ba:	ff 93       	push	r31
    16bc:	e0 91 ce 03 	lds	r30, 0x03CE
    16c0:	f0 91 cf 03 	lds	r31, 0x03CF
    16c4:	30 97       	sbiw	r30, 0x00	; 0
    16c6:	09 f0       	breq	.+2      	; 0x16ca <__vector_17+0x30>
    16c8:	09 95       	icall
    16ca:	ff 91       	pop	r31
    16cc:	ef 91       	pop	r30
    16ce:	bf 91       	pop	r27
    16d0:	af 91       	pop	r26
    16d2:	9f 91       	pop	r25
    16d4:	8f 91       	pop	r24
    16d6:	7f 91       	pop	r23
    16d8:	6f 91       	pop	r22
    16da:	5f 91       	pop	r21
    16dc:	4f 91       	pop	r20
    16de:	3f 91       	pop	r19
    16e0:	2f 91       	pop	r18
    16e2:	0f 90       	pop	r0
    16e4:	0f be       	out	0x3f, r0	; 63
    16e6:	0f 90       	pop	r0
    16e8:	1f 90       	pop	r1
    16ea:	18 95       	reti

000016ec <__vector_18>:
    16ec:	1f 92       	push	r1
    16ee:	0f 92       	push	r0
    16f0:	0f b6       	in	r0, 0x3f	; 63
    16f2:	0f 92       	push	r0
    16f4:	11 24       	eor	r1, r1
    16f6:	2f 93       	push	r18
    16f8:	3f 93       	push	r19
    16fa:	4f 93       	push	r20
    16fc:	5f 93       	push	r21
    16fe:	6f 93       	push	r22
    1700:	7f 93       	push	r23
    1702:	8f 93       	push	r24
    1704:	9f 93       	push	r25
    1706:	af 93       	push	r26
    1708:	bf 93       	push	r27
    170a:	ef 93       	push	r30
    170c:	ff 93       	push	r31
    170e:	e0 91 d0 03 	lds	r30, 0x03D0
    1712:	f0 91 d1 03 	lds	r31, 0x03D1
    1716:	30 97       	sbiw	r30, 0x00	; 0
    1718:	09 f0       	breq	.+2      	; 0x171c <__vector_18+0x30>
    171a:	09 95       	icall
    171c:	ff 91       	pop	r31
    171e:	ef 91       	pop	r30
    1720:	bf 91       	pop	r27
    1722:	af 91       	pop	r26
    1724:	9f 91       	pop	r25
    1726:	8f 91       	pop	r24
    1728:	7f 91       	pop	r23
    172a:	6f 91       	pop	r22
    172c:	5f 91       	pop	r21
    172e:	4f 91       	pop	r20
    1730:	3f 91       	pop	r19
    1732:	2f 91       	pop	r18
    1734:	0f 90       	pop	r0
    1736:	0f be       	out	0x3f, r0	; 63
    1738:	0f 90       	pop	r0
    173a:	1f 90       	pop	r1
    173c:	18 95       	reti

0000173e <__vector_9>:
    173e:	1f 92       	push	r1
    1740:	0f 92       	push	r0
    1742:	0f b6       	in	r0, 0x3f	; 63
    1744:	0f 92       	push	r0
    1746:	11 24       	eor	r1, r1
    1748:	2f 93       	push	r18
    174a:	3f 93       	push	r19
    174c:	4f 93       	push	r20
    174e:	5f 93       	push	r21
    1750:	6f 93       	push	r22
    1752:	7f 93       	push	r23
    1754:	8f 93       	push	r24
    1756:	9f 93       	push	r25
    1758:	af 93       	push	r26
    175a:	bf 93       	push	r27
    175c:	ef 93       	push	r30
    175e:	ff 93       	push	r31
    1760:	e0 91 be 03 	lds	r30, 0x03BE
    1764:	f0 91 bf 03 	lds	r31, 0x03BF
    1768:	30 97       	sbiw	r30, 0x00	; 0
    176a:	09 f0       	breq	.+2      	; 0x176e <__vector_9+0x30>
    176c:	09 95       	icall
    176e:	ff 91       	pop	r31
    1770:	ef 91       	pop	r30
    1772:	bf 91       	pop	r27
    1774:	af 91       	pop	r26
    1776:	9f 91       	pop	r25
    1778:	8f 91       	pop	r24
    177a:	7f 91       	pop	r23
    177c:	6f 91       	pop	r22
    177e:	5f 91       	pop	r21
    1780:	4f 91       	pop	r20
    1782:	3f 91       	pop	r19
    1784:	2f 91       	pop	r18
    1786:	0f 90       	pop	r0
    1788:	0f be       	out	0x3f, r0	; 63
    178a:	0f 90       	pop	r0
    178c:	1f 90       	pop	r1
    178e:	18 95       	reti

00001790 <__vector_10>:
    1790:	1f 92       	push	r1
    1792:	0f 92       	push	r0
    1794:	0f b6       	in	r0, 0x3f	; 63
    1796:	0f 92       	push	r0
    1798:	11 24       	eor	r1, r1
    179a:	2f 93       	push	r18
    179c:	3f 93       	push	r19
    179e:	4f 93       	push	r20
    17a0:	5f 93       	push	r21
    17a2:	6f 93       	push	r22
    17a4:	7f 93       	push	r23
    17a6:	8f 93       	push	r24
    17a8:	9f 93       	push	r25
    17aa:	af 93       	push	r26
    17ac:	bf 93       	push	r27
    17ae:	ef 93       	push	r30
    17b0:	ff 93       	push	r31
    17b2:	e0 91 c0 03 	lds	r30, 0x03C0
    17b6:	f0 91 c1 03 	lds	r31, 0x03C1
    17ba:	30 97       	sbiw	r30, 0x00	; 0
    17bc:	09 f0       	breq	.+2      	; 0x17c0 <__vector_10+0x30>
    17be:	09 95       	icall
    17c0:	ff 91       	pop	r31
    17c2:	ef 91       	pop	r30
    17c4:	bf 91       	pop	r27
    17c6:	af 91       	pop	r26
    17c8:	9f 91       	pop	r25
    17ca:	8f 91       	pop	r24
    17cc:	7f 91       	pop	r23
    17ce:	6f 91       	pop	r22
    17d0:	5f 91       	pop	r21
    17d2:	4f 91       	pop	r20
    17d4:	3f 91       	pop	r19
    17d6:	2f 91       	pop	r18
    17d8:	0f 90       	pop	r0
    17da:	0f be       	out	0x3f, r0	; 63
    17dc:	0f 90       	pop	r0
    17de:	1f 90       	pop	r1
    17e0:	18 95       	reti

000017e2 <__vector_11>:
    17e2:	1f 92       	push	r1
    17e4:	0f 92       	push	r0
    17e6:	0f b6       	in	r0, 0x3f	; 63
    17e8:	0f 92       	push	r0
    17ea:	11 24       	eor	r1, r1
    17ec:	2f 93       	push	r18
    17ee:	3f 93       	push	r19
    17f0:	4f 93       	push	r20
    17f2:	5f 93       	push	r21
    17f4:	6f 93       	push	r22
    17f6:	7f 93       	push	r23
    17f8:	8f 93       	push	r24
    17fa:	9f 93       	push	r25
    17fc:	af 93       	push	r26
    17fe:	bf 93       	push	r27
    1800:	ef 93       	push	r30
    1802:	ff 93       	push	r31
    1804:	e0 91 c2 03 	lds	r30, 0x03C2
    1808:	f0 91 c3 03 	lds	r31, 0x03C3
    180c:	30 97       	sbiw	r30, 0x00	; 0
    180e:	09 f0       	breq	.+2      	; 0x1812 <__vector_11+0x30>
    1810:	09 95       	icall
    1812:	ff 91       	pop	r31
    1814:	ef 91       	pop	r30
    1816:	bf 91       	pop	r27
    1818:	af 91       	pop	r26
    181a:	9f 91       	pop	r25
    181c:	8f 91       	pop	r24
    181e:	7f 91       	pop	r23
    1820:	6f 91       	pop	r22
    1822:	5f 91       	pop	r21
    1824:	4f 91       	pop	r20
    1826:	3f 91       	pop	r19
    1828:	2f 91       	pop	r18
    182a:	0f 90       	pop	r0
    182c:	0f be       	out	0x3f, r0	; 63
    182e:	0f 90       	pop	r0
    1830:	1f 90       	pop	r1
    1832:	18 95       	reti

00001834 <__vector_13>:
    1834:	1f 92       	push	r1
    1836:	0f 92       	push	r0
    1838:	0f b6       	in	r0, 0x3f	; 63
    183a:	0f 92       	push	r0
    183c:	11 24       	eor	r1, r1
    183e:	2f 93       	push	r18
    1840:	3f 93       	push	r19
    1842:	4f 93       	push	r20
    1844:	5f 93       	push	r21
    1846:	6f 93       	push	r22
    1848:	7f 93       	push	r23
    184a:	8f 93       	push	r24
    184c:	9f 93       	push	r25
    184e:	af 93       	push	r26
    1850:	bf 93       	push	r27
    1852:	ef 93       	push	r30
    1854:	ff 93       	push	r31
    1856:	e0 91 c6 03 	lds	r30, 0x03C6
    185a:	f0 91 c7 03 	lds	r31, 0x03C7
    185e:	30 97       	sbiw	r30, 0x00	; 0
    1860:	09 f0       	breq	.+2      	; 0x1864 <__vector_13+0x30>
    1862:	09 95       	icall
    1864:	ff 91       	pop	r31
    1866:	ef 91       	pop	r30
    1868:	bf 91       	pop	r27
    186a:	af 91       	pop	r26
    186c:	9f 91       	pop	r25
    186e:	8f 91       	pop	r24
    1870:	7f 91       	pop	r23
    1872:	6f 91       	pop	r22
    1874:	5f 91       	pop	r21
    1876:	4f 91       	pop	r20
    1878:	3f 91       	pop	r19
    187a:	2f 91       	pop	r18
    187c:	0f 90       	pop	r0
    187e:	0f be       	out	0x3f, r0	; 63
    1880:	0f 90       	pop	r0
    1882:	1f 90       	pop	r1
    1884:	18 95       	reti

00001886 <__vector_14>:
    1886:	1f 92       	push	r1
    1888:	0f 92       	push	r0
    188a:	0f b6       	in	r0, 0x3f	; 63
    188c:	0f 92       	push	r0
    188e:	11 24       	eor	r1, r1
    1890:	2f 93       	push	r18
    1892:	3f 93       	push	r19
    1894:	4f 93       	push	r20
    1896:	5f 93       	push	r21
    1898:	6f 93       	push	r22
    189a:	7f 93       	push	r23
    189c:	8f 93       	push	r24
    189e:	9f 93       	push	r25
    18a0:	af 93       	push	r26
    18a2:	bf 93       	push	r27
    18a4:	ef 93       	push	r30
    18a6:	ff 93       	push	r31
    18a8:	e0 91 c8 03 	lds	r30, 0x03C8
    18ac:	f0 91 c9 03 	lds	r31, 0x03C9
    18b0:	30 97       	sbiw	r30, 0x00	; 0
    18b2:	09 f0       	breq	.+2      	; 0x18b6 <__vector_14+0x30>
    18b4:	09 95       	icall
    18b6:	ff 91       	pop	r31
    18b8:	ef 91       	pop	r30
    18ba:	bf 91       	pop	r27
    18bc:	af 91       	pop	r26
    18be:	9f 91       	pop	r25
    18c0:	8f 91       	pop	r24
    18c2:	7f 91       	pop	r23
    18c4:	6f 91       	pop	r22
    18c6:	5f 91       	pop	r21
    18c8:	4f 91       	pop	r20
    18ca:	3f 91       	pop	r19
    18cc:	2f 91       	pop	r18
    18ce:	0f 90       	pop	r0
    18d0:	0f be       	out	0x3f, r0	; 63
    18d2:	0f 90       	pop	r0
    18d4:	1f 90       	pop	r1
    18d6:	18 95       	reti

000018d8 <__vector_12>:
    18d8:	1f 92       	push	r1
    18da:	0f 92       	push	r0
    18dc:	0f b6       	in	r0, 0x3f	; 63
    18de:	0f 92       	push	r0
    18e0:	11 24       	eor	r1, r1
    18e2:	2f 93       	push	r18
    18e4:	3f 93       	push	r19
    18e6:	4f 93       	push	r20
    18e8:	5f 93       	push	r21
    18ea:	6f 93       	push	r22
    18ec:	7f 93       	push	r23
    18ee:	8f 93       	push	r24
    18f0:	9f 93       	push	r25
    18f2:	af 93       	push	r26
    18f4:	bf 93       	push	r27
    18f6:	ef 93       	push	r30
    18f8:	ff 93       	push	r31
    18fa:	e0 91 c4 03 	lds	r30, 0x03C4
    18fe:	f0 91 c5 03 	lds	r31, 0x03C5
    1902:	30 97       	sbiw	r30, 0x00	; 0
    1904:	09 f0       	breq	.+2      	; 0x1908 <__vector_12+0x30>
    1906:	09 95       	icall
    1908:	ff 91       	pop	r31
    190a:	ef 91       	pop	r30
    190c:	bf 91       	pop	r27
    190e:	af 91       	pop	r26
    1910:	9f 91       	pop	r25
    1912:	8f 91       	pop	r24
    1914:	7f 91       	pop	r23
    1916:	6f 91       	pop	r22
    1918:	5f 91       	pop	r21
    191a:	4f 91       	pop	r20
    191c:	3f 91       	pop	r19
    191e:	2f 91       	pop	r18
    1920:	0f 90       	pop	r0
    1922:	0f be       	out	0x3f, r0	; 63
    1924:	0f 90       	pop	r0
    1926:	1f 90       	pop	r1
    1928:	18 95       	reti

0000192a <__vector_15>:
    192a:	1f 92       	push	r1
    192c:	0f 92       	push	r0
    192e:	0f b6       	in	r0, 0x3f	; 63
    1930:	0f 92       	push	r0
    1932:	11 24       	eor	r1, r1
    1934:	2f 93       	push	r18
    1936:	3f 93       	push	r19
    1938:	4f 93       	push	r20
    193a:	5f 93       	push	r21
    193c:	6f 93       	push	r22
    193e:	7f 93       	push	r23
    1940:	8f 93       	push	r24
    1942:	9f 93       	push	r25
    1944:	af 93       	push	r26
    1946:	bf 93       	push	r27
    1948:	ef 93       	push	r30
    194a:	ff 93       	push	r31
    194c:	e0 91 ca 03 	lds	r30, 0x03CA
    1950:	f0 91 cb 03 	lds	r31, 0x03CB
    1954:	30 97       	sbiw	r30, 0x00	; 0
    1956:	09 f0       	breq	.+2      	; 0x195a <__vector_15+0x30>
    1958:	09 95       	icall
    195a:	ff 91       	pop	r31
    195c:	ef 91       	pop	r30
    195e:	bf 91       	pop	r27
    1960:	af 91       	pop	r26
    1962:	9f 91       	pop	r25
    1964:	8f 91       	pop	r24
    1966:	7f 91       	pop	r23
    1968:	6f 91       	pop	r22
    196a:	5f 91       	pop	r21
    196c:	4f 91       	pop	r20
    196e:	3f 91       	pop	r19
    1970:	2f 91       	pop	r18
    1972:	0f 90       	pop	r0
    1974:	0f be       	out	0x3f, r0	; 63
    1976:	0f 90       	pop	r0
    1978:	1f 90       	pop	r1
    197a:	18 95       	reti

0000197c <__vector_4>:
    197c:	1f 92       	push	r1
    197e:	0f 92       	push	r0
    1980:	0f b6       	in	r0, 0x3f	; 63
    1982:	0f 92       	push	r0
    1984:	11 24       	eor	r1, r1
    1986:	2f 93       	push	r18
    1988:	3f 93       	push	r19
    198a:	4f 93       	push	r20
    198c:	5f 93       	push	r21
    198e:	6f 93       	push	r22
    1990:	7f 93       	push	r23
    1992:	8f 93       	push	r24
    1994:	9f 93       	push	r25
    1996:	af 93       	push	r26
    1998:	bf 93       	push	r27
    199a:	ef 93       	push	r30
    199c:	ff 93       	push	r31
    199e:	e0 91 b4 03 	lds	r30, 0x03B4
    19a2:	f0 91 b5 03 	lds	r31, 0x03B5
    19a6:	30 97       	sbiw	r30, 0x00	; 0
    19a8:	09 f0       	breq	.+2      	; 0x19ac <__vector_4+0x30>
    19aa:	09 95       	icall
    19ac:	ff 91       	pop	r31
    19ae:	ef 91       	pop	r30
    19b0:	bf 91       	pop	r27
    19b2:	af 91       	pop	r26
    19b4:	9f 91       	pop	r25
    19b6:	8f 91       	pop	r24
    19b8:	7f 91       	pop	r23
    19ba:	6f 91       	pop	r22
    19bc:	5f 91       	pop	r21
    19be:	4f 91       	pop	r20
    19c0:	3f 91       	pop	r19
    19c2:	2f 91       	pop	r18
    19c4:	0f 90       	pop	r0
    19c6:	0f be       	out	0x3f, r0	; 63
    19c8:	0f 90       	pop	r0
    19ca:	1f 90       	pop	r1
    19cc:	18 95       	reti

000019ce <__vector_5>:
    19ce:	1f 92       	push	r1
    19d0:	0f 92       	push	r0
    19d2:	0f b6       	in	r0, 0x3f	; 63
    19d4:	0f 92       	push	r0
    19d6:	11 24       	eor	r1, r1
    19d8:	2f 93       	push	r18
    19da:	3f 93       	push	r19
    19dc:	4f 93       	push	r20
    19de:	5f 93       	push	r21
    19e0:	6f 93       	push	r22
    19e2:	7f 93       	push	r23
    19e4:	8f 93       	push	r24
    19e6:	9f 93       	push	r25
    19e8:	af 93       	push	r26
    19ea:	bf 93       	push	r27
    19ec:	ef 93       	push	r30
    19ee:	ff 93       	push	r31
    19f0:	e0 91 b6 03 	lds	r30, 0x03B6
    19f4:	f0 91 b7 03 	lds	r31, 0x03B7
    19f8:	30 97       	sbiw	r30, 0x00	; 0
    19fa:	09 f0       	breq	.+2      	; 0x19fe <__vector_5+0x30>
    19fc:	09 95       	icall
    19fe:	ff 91       	pop	r31
    1a00:	ef 91       	pop	r30
    1a02:	bf 91       	pop	r27
    1a04:	af 91       	pop	r26
    1a06:	9f 91       	pop	r25
    1a08:	8f 91       	pop	r24
    1a0a:	7f 91       	pop	r23
    1a0c:	6f 91       	pop	r22
    1a0e:	5f 91       	pop	r21
    1a10:	4f 91       	pop	r20
    1a12:	3f 91       	pop	r19
    1a14:	2f 91       	pop	r18
    1a16:	0f 90       	pop	r0
    1a18:	0f be       	out	0x3f, r0	; 63
    1a1a:	0f 90       	pop	r0
    1a1c:	1f 90       	pop	r1
    1a1e:	18 95       	reti

00001a20 <__vector_6>:
    1a20:	1f 92       	push	r1
    1a22:	0f 92       	push	r0
    1a24:	0f b6       	in	r0, 0x3f	; 63
    1a26:	0f 92       	push	r0
    1a28:	11 24       	eor	r1, r1
    1a2a:	2f 93       	push	r18
    1a2c:	3f 93       	push	r19
    1a2e:	4f 93       	push	r20
    1a30:	5f 93       	push	r21
    1a32:	6f 93       	push	r22
    1a34:	7f 93       	push	r23
    1a36:	8f 93       	push	r24
    1a38:	9f 93       	push	r25
    1a3a:	af 93       	push	r26
    1a3c:	bf 93       	push	r27
    1a3e:	ef 93       	push	r30
    1a40:	ff 93       	push	r31
    1a42:	e0 91 b8 03 	lds	r30, 0x03B8
    1a46:	f0 91 b9 03 	lds	r31, 0x03B9
    1a4a:	30 97       	sbiw	r30, 0x00	; 0
    1a4c:	09 f0       	breq	.+2      	; 0x1a50 <__vector_6+0x30>
    1a4e:	09 95       	icall
    1a50:	ff 91       	pop	r31
    1a52:	ef 91       	pop	r30
    1a54:	bf 91       	pop	r27
    1a56:	af 91       	pop	r26
    1a58:	9f 91       	pop	r25
    1a5a:	8f 91       	pop	r24
    1a5c:	7f 91       	pop	r23
    1a5e:	6f 91       	pop	r22
    1a60:	5f 91       	pop	r21
    1a62:	4f 91       	pop	r20
    1a64:	3f 91       	pop	r19
    1a66:	2f 91       	pop	r18
    1a68:	0f 90       	pop	r0
    1a6a:	0f be       	out	0x3f, r0	; 63
    1a6c:	0f 90       	pop	r0
    1a6e:	1f 90       	pop	r1
    1a70:	18 95       	reti

00001a72 <__vector_7>:
    1a72:	1f 92       	push	r1
    1a74:	0f 92       	push	r0
    1a76:	0f b6       	in	r0, 0x3f	; 63
    1a78:	0f 92       	push	r0
    1a7a:	11 24       	eor	r1, r1
    1a7c:	2f 93       	push	r18
    1a7e:	3f 93       	push	r19
    1a80:	4f 93       	push	r20
    1a82:	5f 93       	push	r21
    1a84:	6f 93       	push	r22
    1a86:	7f 93       	push	r23
    1a88:	8f 93       	push	r24
    1a8a:	9f 93       	push	r25
    1a8c:	af 93       	push	r26
    1a8e:	bf 93       	push	r27
    1a90:	ef 93       	push	r30
    1a92:	ff 93       	push	r31
    1a94:	e0 91 ba 03 	lds	r30, 0x03BA
    1a98:	f0 91 bb 03 	lds	r31, 0x03BB
    1a9c:	30 97       	sbiw	r30, 0x00	; 0
    1a9e:	09 f0       	breq	.+2      	; 0x1aa2 <__vector_7+0x30>
    1aa0:	09 95       	icall
    1aa2:	ff 91       	pop	r31
    1aa4:	ef 91       	pop	r30
    1aa6:	bf 91       	pop	r27
    1aa8:	af 91       	pop	r26
    1aaa:	9f 91       	pop	r25
    1aac:	8f 91       	pop	r24
    1aae:	7f 91       	pop	r23
    1ab0:	6f 91       	pop	r22
    1ab2:	5f 91       	pop	r21
    1ab4:	4f 91       	pop	r20
    1ab6:	3f 91       	pop	r19
    1ab8:	2f 91       	pop	r18
    1aba:	0f 90       	pop	r0
    1abc:	0f be       	out	0x3f, r0	; 63
    1abe:	0f 90       	pop	r0
    1ac0:	1f 90       	pop	r1
    1ac2:	18 95       	reti

00001ac4 <ISR_attach>:
    1ac4:	e8 2f       	mov	r30, r24
    1ac6:	80 32       	cpi	r24, 0x20	; 32
    1ac8:	68 f4       	brcc	.+26     	; 0x1ae4 <ISR_attach+0x20>
    1aca:	80 51       	subi	r24, 0x10	; 16
    1acc:	83 30       	cpi	r24, 0x03	; 3
    1ace:	50 f0       	brcs	.+20     	; 0x1ae4 <ISR_attach+0x20>
    1ad0:	f0 e0       	ldi	r31, 0x00	; 0
    1ad2:	ee 0f       	add	r30, r30
    1ad4:	ff 1f       	adc	r31, r31
    1ad6:	e4 55       	subi	r30, 0x54	; 84
    1ad8:	fc 4f       	sbci	r31, 0xFC	; 252
    1ada:	20 81       	ld	r18, Z
    1adc:	31 81       	ldd	r19, Z+1	; 0x01
    1ade:	71 83       	std	Z+1, r23	; 0x01
    1ae0:	60 83       	st	Z, r22
    1ae2:	02 c0       	rjmp	.+4      	; 0x1ae8 <ISR_attach+0x24>
    1ae4:	20 e0       	ldi	r18, 0x00	; 0
    1ae6:	30 e0       	ldi	r19, 0x00	; 0
    1ae8:	c9 01       	movw	r24, r18
    1aea:	08 95       	ret

00001aec <ISR_open>:
    1aec:	80 e1       	ldi	r24, 0x10	; 16
    1aee:	0e 94 7e 09 	call	0x12fc	; 0x12fc <SYS_get_state>
    1af2:	88 23       	and	r24, r24
    1af4:	61 f4       	brne	.+24     	; 0x1b0e <ISR_open+0x22>
    1af6:	ec ea       	ldi	r30, 0xAC	; 172
    1af8:	f3 e0       	ldi	r31, 0x03	; 3
    1afa:	11 92       	st	Z+, r1
    1afc:	11 92       	st	Z+, r1
    1afe:	83 e0       	ldi	r24, 0x03	; 3
    1b00:	ec 3e       	cpi	r30, 0xEC	; 236
    1b02:	f8 07       	cpc	r31, r24
    1b04:	d1 f7       	brne	.-12     	; 0x1afa <ISR_open+0xe>
    1b06:	80 e1       	ldi	r24, 0x10	; 16
    1b08:	61 e0       	ldi	r22, 0x01	; 1
    1b0a:	0e 94 c6 09 	call	0x138c	; 0x138c <SYS_set_state>
    1b0e:	80 e1       	ldi	r24, 0x10	; 16
    1b10:	91 e0       	ldi	r25, 0x01	; 1
    1b12:	08 95       	ret

00001b14 <__LCD_init>:
    1b14:	23 9a       	sbi	0x04, 3	; 4
    1b16:	08 95       	ret

00001b18 <__LCD_putchar>:
    1b18:	ff 92       	push	r15
    1b1a:	0f 93       	push	r16
    1b1c:	1f 93       	push	r17
    1b1e:	cf 93       	push	r28
    1b20:	df 93       	push	r29
    1b22:	f8 2e       	mov	r15, r24
    1b24:	8a e0       	ldi	r24, 0x0A	; 10
    1b26:	f8 16       	cp	r15, r24
    1b28:	b1 f0       	breq	.+44     	; 0x1b56 <__LCD_putchar+0x3e>
    1b2a:	8f 15       	cp	r24, r15
    1b2c:	48 f0       	brcs	.+18     	; 0x1b40 <__LCD_putchar+0x28>
    1b2e:	e8 e0       	ldi	r30, 0x08	; 8
    1b30:	fe 16       	cp	r15, r30
    1b32:	b9 f1       	breq	.+110    	; 0x1ba2 <__LCD_putchar+0x8a>
    1b34:	ef 15       	cp	r30, r15
    1b36:	38 f1       	brcs	.+78     	; 0x1b86 <__LCD_putchar+0x6e>
    1b38:	f7 e0       	ldi	r31, 0x07	; 7
    1b3a:	ff 16       	cp	r15, r31
    1b3c:	51 f4       	brne	.+20     	; 0x1b52 <__LCD_putchar+0x3a>
    1b3e:	3b c0       	rjmp	.+118    	; 0x1bb6 <__LCD_putchar+0x9e>
    1b40:	8d e0       	ldi	r24, 0x0D	; 13
    1b42:	f8 16       	cp	r15, r24
    1b44:	59 f0       	breq	.+22     	; 0x1b5c <__LCD_putchar+0x44>
    1b46:	eb e1       	ldi	r30, 0x1B	; 27
    1b48:	fe 16       	cp	r15, r30
    1b4a:	89 f0       	breq	.+34     	; 0x1b6e <__LCD_putchar+0x56>
    1b4c:	fc e0       	ldi	r31, 0x0C	; 12
    1b4e:	ff 16       	cp	r15, r31
    1b50:	41 f0       	breq	.+16     	; 0x1b62 <__LCD_putchar+0x4a>
    1b52:	01 e0       	ldi	r16, 0x01	; 1
    1b54:	41 c0       	rjmp	.+130    	; 0x1bd8 <__LCD_putchar+0xc0>
    1b56:	10 92 5f 04 	sts	0x045F, r1
    1b5a:	03 c0       	rjmp	.+6      	; 0x1b62 <__LCD_putchar+0x4a>
    1b5c:	10 92 5f 04 	sts	0x045F, r1
    1b60:	3a c0       	rjmp	.+116    	; 0x1bd6 <__LCD_putchar+0xbe>
    1b62:	80 91 60 04 	lds	r24, 0x0460
    1b66:	81 50       	subi	r24, 0x01	; 1
    1b68:	80 93 60 04 	sts	0x0460, r24
    1b6c:	34 c0       	rjmp	.+104    	; 0x1bd6 <__LCD_putchar+0xbe>
    1b6e:	0e 94 ec 03 	call	0x7d8	; 0x7d8 <LCD_clear>
    1b72:	14 c0       	rjmp	.+40     	; 0x1b9c <__LCD_putchar+0x84>
    1b74:	80 e0       	ldi	r24, 0x00	; 0
    1b76:	61 e0       	ldi	r22, 0x01	; 1
    1b78:	0e 94 cb 04 	call	0x996	; 0x996 <LCD_write>
    1b7c:	80 91 5f 04 	lds	r24, 0x045F
    1b80:	8f 5f       	subi	r24, 0xFF	; 255
    1b82:	80 93 5f 04 	sts	0x045F, r24
    1b86:	80 91 5f 04 	lds	r24, 0x045F
    1b8a:	87 ff       	sbrs	r24, 7
    1b8c:	f3 cf       	rjmp	.-26     	; 0x1b74 <__LCD_putchar+0x5c>
    1b8e:	10 92 5f 04 	sts	0x045F, r1
    1b92:	80 91 60 04 	lds	r24, 0x0460
    1b96:	81 50       	subi	r24, 0x01	; 1
    1b98:	80 93 60 04 	sts	0x0460, r24
    1b9c:	00 e0       	ldi	r16, 0x00	; 0
    1b9e:	11 e0       	ldi	r17, 0x01	; 1
    1ba0:	1c c0       	rjmp	.+56     	; 0x1bda <__LCD_putchar+0xc2>
    1ba2:	80 91 5f 04 	lds	r24, 0x045F
    1ba6:	88 23       	and	r24, r24
    1ba8:	b1 f0       	breq	.+44     	; 0x1bd6 <__LCD_putchar+0xbe>
    1baa:	80 91 5f 04 	lds	r24, 0x045F
    1bae:	86 50       	subi	r24, 0x06	; 6
    1bb0:	80 93 5f 04 	sts	0x045F, r24
    1bb4:	10 c0       	rjmp	.+32     	; 0x1bd6 <__LCD_putchar+0xbe>
    1bb6:	81 e0       	ldi	r24, 0x01	; 1
    1bb8:	0e 94 d7 05 	call	0xbae	; 0xbae <SPKR_open>
    1bbc:	64 ef       	ldi	r22, 0xF4	; 244
    1bbe:	71 e0       	ldi	r23, 0x01	; 1
    1bc0:	80 e0       	ldi	r24, 0x00	; 0
    1bc2:	90 e0       	ldi	r25, 0x00	; 0
    1bc4:	4d e7       	ldi	r20, 0x7D	; 125
    1bc6:	50 e0       	ldi	r21, 0x00	; 0
    1bc8:	24 e6       	ldi	r18, 0x64	; 100
    1bca:	30 e0       	ldi	r19, 0x00	; 0
    1bcc:	0e 94 e4 05 	call	0xbc8	; 0xbc8 <SPKR_play_beep>
    1bd0:	81 e0       	ldi	r24, 0x01	; 1
    1bd2:	0e 94 6a 0f 	call	0x1ed4	; 0x1ed4 <SPKR_close>
    1bd6:	00 e0       	ldi	r16, 0x00	; 0
    1bd8:	10 e0       	ldi	r17, 0x00	; 0
    1bda:	80 91 60 04 	lds	r24, 0x0460
    1bde:	60 91 5f 04 	lds	r22, 0x045F
    1be2:	0e 94 b2 04 	call	0x964	; 0x964 <LCD_set_PGC_addr>
    1be6:	00 23       	and	r16, r16
    1be8:	51 f1       	breq	.+84     	; 0x1c3e <__LCD_putchar+0x126>
    1bea:	85 e0       	ldi	r24, 0x05	; 5
    1bec:	f8 9e       	mul	r15, r24
    1bee:	c0 01       	movw	r24, r0
    1bf0:	11 24       	eor	r1, r1
    1bf2:	ec 01       	movw	r28, r24
    1bf4:	c7 50       	subi	r28, 0x07	; 7
    1bf6:	df 4f       	sbci	r29, 0xFF	; 255
    1bf8:	8c 01       	movw	r16, r24
    1bfa:	02 50       	subi	r16, 0x02	; 2
    1bfc:	1f 4f       	sbci	r17, 0xFF	; 255
    1bfe:	fe 01       	movw	r30, r28
    1c00:	84 91       	lpm	r24, Z
    1c02:	61 e0       	ldi	r22, 0x01	; 1
    1c04:	0e 94 cb 04 	call	0x996	; 0x996 <LCD_write>
    1c08:	21 96       	adiw	r28, 0x01	; 1
    1c0a:	c0 17       	cp	r28, r16
    1c0c:	d1 07       	cpc	r29, r17
    1c0e:	b9 f7       	brne	.-18     	; 0x1bfe <__LCD_putchar+0xe6>
    1c10:	80 e0       	ldi	r24, 0x00	; 0
    1c12:	61 e0       	ldi	r22, 0x01	; 1
    1c14:	0e 94 cb 04 	call	0x996	; 0x996 <LCD_write>
    1c18:	80 91 5f 04 	lds	r24, 0x045F
    1c1c:	8a 5f       	subi	r24, 0xFA	; 250
    1c1e:	80 93 5f 04 	sts	0x045F, r24
    1c22:	80 91 5f 04 	lds	r24, 0x045F
    1c26:	90 e0       	ldi	r25, 0x00	; 0
    1c28:	8c 37       	cpi	r24, 0x7C	; 124
    1c2a:	91 05       	cpc	r25, r1
    1c2c:	3c f0       	brlt	.+14     	; 0x1c3c <__LCD_putchar+0x124>
    1c2e:	10 92 5f 04 	sts	0x045F, r1
    1c32:	80 91 60 04 	lds	r24, 0x0460
    1c36:	81 50       	subi	r24, 0x01	; 1
    1c38:	80 93 60 04 	sts	0x0460, r24
    1c3c:	11 e0       	ldi	r17, 0x01	; 1
    1c3e:	80 91 60 04 	lds	r24, 0x0460
    1c42:	83 70       	andi	r24, 0x03	; 3
    1c44:	80 93 60 04 	sts	0x0460, r24
    1c48:	11 30       	cpi	r17, 0x01	; 1
    1c4a:	59 f4       	brne	.+22     	; 0x1c62 <__LCD_putchar+0x14a>
    1c4c:	80 91 61 04 	lds	r24, 0x0461
    1c50:	81 30       	cpi	r24, 0x01	; 1
    1c52:	39 f4       	brne	.+14     	; 0x1c62 <__LCD_putchar+0x14a>
    1c54:	e0 91 62 04 	lds	r30, 0x0462
    1c58:	f0 91 63 04 	lds	r31, 0x0463
    1c5c:	30 97       	sbiw	r30, 0x00	; 0
    1c5e:	09 f0       	breq	.+2      	; 0x1c62 <__LCD_putchar+0x14a>
    1c60:	09 95       	icall
    1c62:	80 e0       	ldi	r24, 0x00	; 0
    1c64:	90 e0       	ldi	r25, 0x00	; 0
    1c66:	df 91       	pop	r29
    1c68:	cf 91       	pop	r28
    1c6a:	1f 91       	pop	r17
    1c6c:	0f 91       	pop	r16
    1c6e:	ff 90       	pop	r15
    1c70:	08 95       	ret

00001c72 <ATMEGA_open>:
    1c72:	80 e0       	ldi	r24, 0x00	; 0
    1c74:	0e 94 7e 09 	call	0x12fc	; 0x12fc <SYS_get_state>
    1c78:	88 23       	and	r24, r24
    1c7a:	51 f4       	brne	.+20     	; 0x1c90 <ATMEGA_open+0x1e>
    1c7c:	f8 94       	cli
    1c7e:	0e 94 31 11 	call	0x2262	; 0x2262 <__ATMEGA_init>
    1c82:	81 e0       	ldi	r24, 0x01	; 1
    1c84:	0e 94 4b 0e 	call	0x1c96	; 0x1c96 <ATMEGA_set_clk_mode>
    1c88:	80 e0       	ldi	r24, 0x00	; 0
    1c8a:	61 e0       	ldi	r22, 0x01	; 1
    1c8c:	0e 94 c6 09 	call	0x138c	; 0x138c <SYS_set_state>
    1c90:	80 e0       	ldi	r24, 0x00	; 0
    1c92:	91 e0       	ldi	r25, 0x01	; 1
    1c94:	08 95       	ret

00001c96 <ATMEGA_set_clk_mode>:
    1c96:	81 30       	cpi	r24, 0x01	; 1
    1c98:	49 f0       	breq	.+18     	; 0x1cac <ATMEGA_set_clk_mode+0x16>
    1c9a:	f8 94       	cli
    1c9c:	81 30       	cpi	r24, 0x01	; 1
    1c9e:	20 f1       	brcs	.+72     	; 0x1ce8 <ATMEGA_set_clk_mode+0x52>
    1ca0:	82 30       	cpi	r24, 0x02	; 2
    1ca2:	b1 f0       	breq	.+44     	; 0x1cd0 <ATMEGA_set_clk_mode+0x3a>
    1ca4:	83 30       	cpi	r24, 0x03	; 3
    1ca6:	09 f0       	breq	.+2      	; 0x1caa <ATMEGA_set_clk_mode+0x14>
    1ca8:	45 c0       	rjmp	.+138    	; 0x1d34 <ATMEGA_set_clk_mode+0x9e>
    1caa:	17 c0       	rjmp	.+46     	; 0x1cda <ATMEGA_set_clk_mode+0x44>
    1cac:	2c 9a       	sbi	0x05, 4	; 5
    1cae:	80 e8       	ldi	r24, 0x80	; 128
    1cb0:	80 93 61 00 	sts	0x0061, r24
    1cb4:	10 92 61 00 	sts	0x0061, r1
    1cb8:	80 e0       	ldi	r24, 0x00	; 0
    1cba:	90 e0       	ldi	r25, 0x00	; 0
    1cbc:	00 00       	nop
    1cbe:	01 96       	adiw	r24, 0x01	; 1
    1cc0:	88 32       	cpi	r24, 0x28	; 40
    1cc2:	91 05       	cpc	r25, r1
    1cc4:	d9 f7       	brne	.-10     	; 0x1cbc <ATMEGA_set_clk_mode+0x26>
    1cc6:	10 92 68 00 	sts	0x0068, r1
    1cca:	10 92 6b 00 	sts	0x006B, r1
    1cce:	08 95       	ret
    1cd0:	80 e8       	ldi	r24, 0x80	; 128
    1cd2:	80 93 61 00 	sts	0x0061, r24
    1cd6:	83 e0       	ldi	r24, 0x03	; 3
    1cd8:	04 c0       	rjmp	.+8      	; 0x1ce2 <ATMEGA_set_clk_mode+0x4c>
    1cda:	80 e8       	ldi	r24, 0x80	; 128
    1cdc:	80 93 61 00 	sts	0x0061, r24
    1ce0:	88 e0       	ldi	r24, 0x08	; 8
    1ce2:	80 93 61 00 	sts	0x0061, r24
    1ce6:	28 c0       	rjmp	.+80     	; 0x1d38 <ATMEGA_set_clk_mode+0xa2>
    1ce8:	80 e0       	ldi	r24, 0x00	; 0
    1cea:	90 e0       	ldi	r25, 0x00	; 0
    1cec:	00 00       	nop
    1cee:	01 96       	adiw	r24, 0x01	; 1
    1cf0:	2d e6       	ldi	r18, 0x6D	; 109
    1cf2:	80 36       	cpi	r24, 0x60	; 96
    1cf4:	92 07       	cpc	r25, r18
    1cf6:	d1 f7       	brne	.-12     	; 0x1cec <ATMEGA_set_clk_mode+0x56>
    1cf8:	2c 98       	cbi	0x05, 4	; 5
    1cfa:	80 e0       	ldi	r24, 0x00	; 0
    1cfc:	90 e0       	ldi	r25, 0x00	; 0
    1cfe:	00 00       	nop
    1d00:	01 96       	adiw	r24, 0x01	; 1
    1d02:	2d e6       	ldi	r18, 0x6D	; 109
    1d04:	80 36       	cpi	r24, 0x60	; 96
    1d06:	92 07       	cpc	r25, r18
    1d08:	d1 f7       	brne	.-12     	; 0x1cfe <ATMEGA_set_clk_mode+0x68>
    1d0a:	10 92 7a 00 	sts	0x007A, r1
    1d0e:	8f ef       	ldi	r24, 0xFF	; 255
    1d10:	80 93 64 00 	sts	0x0064, r24
    1d14:	80 91 68 00 	lds	r24, 0x0068
    1d18:	81 60       	ori	r24, 0x01	; 1
    1d1a:	80 93 68 00 	sts	0x0068, r24
    1d1e:	80 91 6b 00 	lds	r24, 0x006B
    1d22:	84 60       	ori	r24, 0x04	; 4
    1d24:	80 93 6b 00 	sts	0x006B, r24
    1d28:	78 94       	sei
    1d2a:	83 b7       	in	r24, 0x33	; 51
    1d2c:	81 60       	ori	r24, 0x01	; 1
    1d2e:	83 bf       	out	0x33, r24	; 51
    1d30:	88 95       	sleep
    1d32:	08 95       	ret
    1d34:	82 30       	cpi	r24, 0x02	; 2
    1d36:	08 f0       	brcs	.+2      	; 0x1d3a <ATMEGA_set_clk_mode+0xa4>
    1d38:	78 94       	sei
    1d3a:	08 95       	ret

00001d3c <SPI_open>:
    1d3c:	0f 93       	push	r16
    1d3e:	1f 93       	push	r17
    1d40:	0e 94 5d 11 	call	0x22ba	; 0x22ba <__SPI_init>
    1d44:	80 e0       	ldi	r24, 0x00	; 0
    1d46:	6c e4       	ldi	r22, 0x4C	; 76
    1d48:	71 e1       	ldi	r23, 0x11	; 17
    1d4a:	0e 94 d7 0e 	call	0x1dae	; 0x1dae <SPI_set_config_func>
    1d4e:	81 e0       	ldi	r24, 0x01	; 1
    1d50:	64 e4       	ldi	r22, 0x44	; 68
    1d52:	71 e1       	ldi	r23, 0x11	; 17
    1d54:	0e 94 d7 0e 	call	0x1dae	; 0x1dae <SPI_set_config_func>
    1d58:	82 e0       	ldi	r24, 0x02	; 2
    1d5a:	6c e3       	ldi	r22, 0x3C	; 60
    1d5c:	71 e1       	ldi	r23, 0x11	; 17
    1d5e:	0e 94 d7 0e 	call	0x1dae	; 0x1dae <SPI_set_config_func>
    1d62:	86 e0       	ldi	r24, 0x06	; 6
    1d64:	64 e5       	ldi	r22, 0x54	; 84
    1d66:	71 e1       	ldi	r23, 0x11	; 17
    1d68:	0e 94 d7 0e 	call	0x1dae	; 0x1dae <SPI_set_config_func>
    1d6c:	04 e3       	ldi	r16, 0x34	; 52
    1d6e:	11 e1       	ldi	r17, 0x11	; 17
    1d70:	83 e0       	ldi	r24, 0x03	; 3
    1d72:	b8 01       	movw	r22, r16
    1d74:	0e 94 d7 0e 	call	0x1dae	; 0x1dae <SPI_set_config_func>
    1d78:	84 e0       	ldi	r24, 0x04	; 4
    1d7a:	b8 01       	movw	r22, r16
    1d7c:	0e 94 d7 0e 	call	0x1dae	; 0x1dae <SPI_set_config_func>
    1d80:	85 e0       	ldi	r24, 0x05	; 5
    1d82:	b8 01       	movw	r22, r16
    1d84:	0e 94 d7 0e 	call	0x1dae	; 0x1dae <SPI_set_config_func>
    1d88:	87 e0       	ldi	r24, 0x07	; 7
    1d8a:	b8 01       	movw	r22, r16
    1d8c:	0e 94 d7 0e 	call	0x1dae	; 0x1dae <SPI_set_config_func>
    1d90:	82 e0       	ldi	r24, 0x02	; 2
    1d92:	61 e0       	ldi	r22, 0x01	; 1
    1d94:	0e 94 c6 09 	call	0x138c	; 0x138c <SYS_set_state>
    1d98:	8f ef       	ldi	r24, 0xFF	; 255
    1d9a:	80 93 64 04 	sts	0x0464, r24
    1d9e:	87 e0       	ldi	r24, 0x07	; 7
    1da0:	0e 94 e6 04 	call	0x9cc	; 0x9cc <SPI_set_slave_addr>
    1da4:	82 e0       	ldi	r24, 0x02	; 2
    1da6:	91 e0       	ldi	r25, 0x01	; 1
    1da8:	1f 91       	pop	r17
    1daa:	0f 91       	pop	r16
    1dac:	08 95       	ret

00001dae <SPI_set_config_func>:
    1dae:	e8 2f       	mov	r30, r24
    1db0:	f0 e0       	ldi	r31, 0x00	; 0
    1db2:	ee 0f       	add	r30, r30
    1db4:	ff 1f       	adc	r31, r31
    1db6:	e4 51       	subi	r30, 0x14	; 20
    1db8:	fc 4f       	sbci	r31, 0xFC	; 252
    1dba:	71 83       	std	Z+1, r23	; 0x01
    1dbc:	60 83       	st	Z, r22
    1dbe:	08 95       	ret

00001dc0 <__SPKR_TIMER1_COMPA_vect>:
    1dc0:	0e 94 fa 0e 	call	0x1df4	; 0x1df4 <SPKR_clk>
    1dc4:	08 95       	ret

00001dc6 <SPKR_beep>:
    1dc6:	9b 01       	movw	r18, r22
    1dc8:	ac 01       	movw	r20, r24
    1dca:	80 91 fd 03 	lds	r24, 0x03FD
    1dce:	88 23       	and	r24, r24
    1dd0:	81 f0       	breq	.+32     	; 0x1df2 <SPKR_beep+0x2c>
    1dd2:	da 01       	movw	r26, r20
    1dd4:	c9 01       	movw	r24, r18
    1dd6:	88 0f       	add	r24, r24
    1dd8:	99 1f       	adc	r25, r25
    1dda:	aa 1f       	adc	r26, r26
    1ddc:	bb 1f       	adc	r27, r27
    1dde:	90 93 09 04 	sts	0x0409, r25
    1de2:	80 93 08 04 	sts	0x0408, r24
    1de6:	21 15       	cp	r18, r1
    1de8:	31 05       	cpc	r19, r1
    1dea:	41 05       	cpc	r20, r1
    1dec:	51 05       	cpc	r21, r1
    1dee:	09 f4       	brne	.+2      	; 0x1df2 <SPKR_beep+0x2c>
    1df0:	5f 98       	cbi	0x0b, 7	; 11
    1df2:	08 95       	ret

00001df4 <SPKR_clk>:
    1df4:	80 91 fe 03 	lds	r24, 0x03FE
    1df8:	90 91 ff 03 	lds	r25, 0x03FF
    1dfc:	a0 91 00 04 	lds	r26, 0x0400
    1e00:	b0 91 01 04 	lds	r27, 0x0401
    1e04:	20 91 02 04 	lds	r18, 0x0402
    1e08:	30 91 03 04 	lds	r19, 0x0403
    1e0c:	40 91 04 04 	lds	r20, 0x0404
    1e10:	50 91 05 04 	lds	r21, 0x0405
    1e14:	28 0f       	add	r18, r24
    1e16:	39 1f       	adc	r19, r25
    1e18:	4a 1f       	adc	r20, r26
    1e1a:	5b 1f       	adc	r21, r27
    1e1c:	20 93 fe 03 	sts	0x03FE, r18
    1e20:	30 93 ff 03 	sts	0x03FF, r19
    1e24:	40 93 00 04 	sts	0x0400, r20
    1e28:	50 93 01 04 	sts	0x0401, r21
    1e2c:	80 91 fe 03 	lds	r24, 0x03FE
    1e30:	90 91 ff 03 	lds	r25, 0x03FF
    1e34:	a0 91 00 04 	lds	r26, 0x0400
    1e38:	b0 91 01 04 	lds	r27, 0x0401
    1e3c:	88 51       	subi	r24, 0x18	; 24
    1e3e:	96 4f       	sbci	r25, 0xF6	; 246
    1e40:	a0 40       	sbci	r26, 0x00	; 0
    1e42:	b0 40       	sbci	r27, 0x00	; 0
    1e44:	bc f0       	brlt	.+46     	; 0x1e74 <SPKR_clk+0x80>
    1e46:	8b b1       	in	r24, 0x0b	; 11
    1e48:	80 58       	subi	r24, 0x80	; 128
    1e4a:	8b b9       	out	0x0b, r24	; 11
    1e4c:	80 91 fe 03 	lds	r24, 0x03FE
    1e50:	90 91 ff 03 	lds	r25, 0x03FF
    1e54:	a0 91 00 04 	lds	r26, 0x0400
    1e58:	b0 91 01 04 	lds	r27, 0x0401
    1e5c:	88 51       	subi	r24, 0x18	; 24
    1e5e:	96 4f       	sbci	r25, 0xF6	; 246
    1e60:	a0 40       	sbci	r26, 0x00	; 0
    1e62:	b0 40       	sbci	r27, 0x00	; 0
    1e64:	80 93 fe 03 	sts	0x03FE, r24
    1e68:	90 93 ff 03 	sts	0x03FF, r25
    1e6c:	a0 93 00 04 	sts	0x0400, r26
    1e70:	b0 93 01 04 	sts	0x0401, r27
    1e74:	08 95       	ret

00001e76 <__SPKR_close_beep_mode>:
    1e76:	8a e0       	ldi	r24, 0x0A	; 10
    1e78:	0e 94 7e 09 	call	0x12fc	; 0x12fc <SYS_get_state>
    1e7c:	81 30       	cpi	r24, 0x01	; 1
    1e7e:	41 f4       	brne	.+16     	; 0x1e90 <__SPKR_close_beep_mode+0x1a>
    1e80:	0e 94 76 11 	call	0x22ec	; 0x22ec <__SPKR_close>
    1e84:	10 92 fd 03 	sts	0x03FD, r1
    1e88:	8a e0       	ldi	r24, 0x0A	; 10
    1e8a:	60 e0       	ldi	r22, 0x00	; 0
    1e8c:	0e 94 c6 09 	call	0x138c	; 0x138c <SYS_set_state>
    1e90:	08 95       	ret

00001e92 <__SPKR_close_tone_mode>:
    1e92:	89 e0       	ldi	r24, 0x09	; 9
    1e94:	0e 94 7e 09 	call	0x12fc	; 0x12fc <SYS_get_state>
    1e98:	81 30       	cpi	r24, 0x01	; 1
    1e9a:	d9 f4       	brne	.+54     	; 0x1ed2 <__SPKR_close_tone_mode+0x40>
    1e9c:	80 91 fc 03 	lds	r24, 0x03FC
    1ea0:	88 23       	and	r24, r24
    1ea2:	11 f0       	breq	.+4      	; 0x1ea8 <__SPKR_close_tone_mode+0x16>
    1ea4:	0e 94 9e 0f 	call	0x1f3c	; 0x1f3c <__SPKR_stop>
    1ea8:	82 e0       	ldi	r24, 0x02	; 2
    1eaa:	0e 94 76 11 	call	0x22ec	; 0x22ec <__SPKR_close>
    1eae:	80 91 0a 04 	lds	r24, 0x040A
    1eb2:	90 91 0b 04 	lds	r25, 0x040B
    1eb6:	00 97       	sbiw	r24, 0x00	; 0
    1eb8:	31 f0       	breq	.+12     	; 0x1ec6 <__SPKR_close_tone_mode+0x34>
    1eba:	0e 94 b0 32 	call	0x6560	; 0x6560 <free>
    1ebe:	10 92 0b 04 	sts	0x040B, r1
    1ec2:	10 92 0a 04 	sts	0x040A, r1
    1ec6:	10 92 fc 03 	sts	0x03FC, r1
    1eca:	89 e0       	ldi	r24, 0x09	; 9
    1ecc:	60 e0       	ldi	r22, 0x00	; 0
    1ece:	0e 94 c6 09 	call	0x138c	; 0x138c <SYS_set_state>
    1ed2:	08 95       	ret

00001ed4 <SPKR_close>:
    1ed4:	81 30       	cpi	r24, 0x01	; 1
    1ed6:	29 f0       	breq	.+10     	; 0x1ee2 <SPKR_close+0xe>
    1ed8:	82 30       	cpi	r24, 0x02	; 2
    1eda:	29 f4       	brne	.+10     	; 0x1ee6 <SPKR_close+0x12>
    1edc:	0e 94 49 0f 	call	0x1e92	; 0x1e92 <__SPKR_close_tone_mode>
    1ee0:	08 95       	ret
    1ee2:	0e 94 3b 0f 	call	0x1e76	; 0x1e76 <__SPKR_close_beep_mode>
    1ee6:	08 95       	ret

00001ee8 <__SPKR_init>:
    1ee8:	98 2f       	mov	r25, r24
    1eea:	80 91 fc 03 	lds	r24, 0x03FC
    1eee:	88 23       	and	r24, r24
    1ef0:	31 f4       	brne	.+12     	; 0x1efe <__SPKR_init+0x16>
    1ef2:	80 91 fd 03 	lds	r24, 0x03FD
    1ef6:	88 23       	and	r24, r24
    1ef8:	11 f4       	brne	.+4      	; 0x1efe <__SPKR_init+0x16>
    1efa:	57 9a       	sbi	0x0a, 7	; 10
    1efc:	5f 98       	cbi	0x0b, 7	; 11
    1efe:	80 91 fc 03 	lds	r24, 0x03FC
    1f02:	88 23       	and	r24, r24
    1f04:	d1 f4       	brne	.+52     	; 0x1f3a <__SPKR_init+0x52>
    1f06:	92 30       	cpi	r25, 0x02	; 2
    1f08:	c1 f4       	brne	.+48     	; 0x1f3a <__SPKR_init+0x52>
    1f0a:	10 92 80 00 	sts	0x0080, r1
    1f0e:	10 92 81 00 	sts	0x0081, r1
    1f12:	80 91 81 00 	lds	r24, 0x0081
    1f16:	88 60       	ori	r24, 0x08	; 8
    1f18:	80 93 81 00 	sts	0x0081, r24
    1f1c:	80 91 81 00 	lds	r24, 0x0081
    1f20:	81 60       	ori	r24, 0x01	; 1
    1f22:	80 93 81 00 	sts	0x0081, r24
    1f26:	10 92 85 00 	sts	0x0085, r1
    1f2a:	10 92 84 00 	sts	0x0084, r1
    1f2e:	81 e0       	ldi	r24, 0x01	; 1
    1f30:	80 93 89 00 	sts	0x0089, r24
    1f34:	80 e9       	ldi	r24, 0x90	; 144
    1f36:	80 93 88 00 	sts	0x0088, r24
    1f3a:	08 95       	ret

00001f3c <__SPKR_stop>:
    1f3c:	ef e6       	ldi	r30, 0x6F	; 111
    1f3e:	f0 e0       	ldi	r31, 0x00	; 0
    1f40:	80 81       	ld	r24, Z
    1f42:	8d 7f       	andi	r24, 0xFD	; 253
    1f44:	80 83       	st	Z, r24
    1f46:	08 95       	ret

00001f48 <__STEPPER_close>:
    1f48:	88 b1       	in	r24, 0x08	; 8
    1f4a:	83 70       	andi	r24, 0x03	; 3
    1f4c:	88 b9       	out	0x08, r24	; 8
    1f4e:	3a 98       	cbi	0x07, 2	; 7
    1f50:	3b 98       	cbi	0x07, 3	; 7
    1f52:	3c 98       	cbi	0x07, 4	; 7
    1f54:	3d 98       	cbi	0x07, 5	; 7
    1f56:	3e 98       	cbi	0x07, 6	; 7
    1f58:	3f 98       	cbi	0x07, 7	; 7
    1f5a:	08 95       	ret

00001f5c <STEPPER_go>:
    1f5c:	98 2f       	mov	r25, r24
    1f5e:	81 e0       	ldi	r24, 0x01	; 1
    1f60:	80 93 49 04 	sts	0x0449, r24
    1f64:	91 30       	cpi	r25, 0x01	; 1
    1f66:	51 f0       	breq	.+20     	; 0x1f7c <STEPPER_go+0x20>
    1f68:	91 30       	cpi	r25, 0x01	; 1
    1f6a:	18 f0       	brcs	.+6      	; 0x1f72 <STEPPER_go+0x16>
    1f6c:	92 30       	cpi	r25, 0x02	; 2
    1f6e:	41 f4       	brne	.+16     	; 0x1f80 <STEPPER_go+0x24>
    1f70:	03 c0       	rjmp	.+6      	; 0x1f78 <STEPPER_go+0x1c>
    1f72:	10 92 31 04 	sts	0x0431, r1
    1f76:	04 c0       	rjmp	.+8      	; 0x1f80 <STEPPER_go+0x24>
    1f78:	10 92 31 04 	sts	0x0431, r1
    1f7c:	10 92 32 04 	sts	0x0432, r1
    1f80:	10 92 49 04 	sts	0x0449, r1
    1f84:	08 95       	ret

00001f86 <__STEPPER_init>:
    1f86:	3a 9a       	sbi	0x07, 2	; 7
    1f88:	3b 9a       	sbi	0x07, 3	; 7
    1f8a:	3c 9a       	sbi	0x07, 4	; 7
    1f8c:	3d 9a       	sbi	0x07, 5	; 7
    1f8e:	3e 9a       	sbi	0x07, 6	; 7
    1f90:	3f 9a       	sbi	0x07, 7	; 7
    1f92:	88 b1       	in	r24, 0x08	; 8
    1f94:	83 70       	andi	r24, 0x03	; 3
    1f96:	88 b9       	out	0x08, r24	; 8
    1f98:	08 95       	ret

00001f9a <STEPPER_set_steps>:
    1f9a:	98 2f       	mov	r25, r24
    1f9c:	81 e0       	ldi	r24, 0x01	; 1
    1f9e:	80 93 49 04 	sts	0x0449, r24
    1fa2:	91 30       	cpi	r25, 0x01	; 1
    1fa4:	71 f0       	breq	.+28     	; 0x1fc2 <STEPPER_set_steps+0x28>
    1fa6:	91 30       	cpi	r25, 0x01	; 1
    1fa8:	18 f0       	brcs	.+6      	; 0x1fb0 <STEPPER_set_steps+0x16>
    1faa:	92 30       	cpi	r25, 0x02	; 2
    1fac:	71 f4       	brne	.+28     	; 0x1fca <STEPPER_set_steps+0x30>
    1fae:	05 c0       	rjmp	.+10     	; 0x1fba <STEPPER_set_steps+0x20>
    1fb0:	70 93 26 04 	sts	0x0426, r23
    1fb4:	60 93 25 04 	sts	0x0425, r22
    1fb8:	08 c0       	rjmp	.+16     	; 0x1fca <STEPPER_set_steps+0x30>
    1fba:	70 93 26 04 	sts	0x0426, r23
    1fbe:	60 93 25 04 	sts	0x0425, r22
    1fc2:	70 93 28 04 	sts	0x0428, r23
    1fc6:	60 93 27 04 	sts	0x0427, r22
    1fca:	10 92 49 04 	sts	0x0449, r1
    1fce:	08 95       	ret

00001fd0 <STEPPER_set_stop_mode>:
    1fd0:	98 2f       	mov	r25, r24
    1fd2:	81 e0       	ldi	r24, 0x01	; 1
    1fd4:	80 93 49 04 	sts	0x0449, r24
    1fd8:	91 30       	cpi	r25, 0x01	; 1
    1fda:	51 f0       	breq	.+20     	; 0x1ff0 <STEPPER_set_stop_mode+0x20>
    1fdc:	91 30       	cpi	r25, 0x01	; 1
    1fde:	18 f0       	brcs	.+6      	; 0x1fe6 <STEPPER_set_stop_mode+0x16>
    1fe0:	92 30       	cpi	r25, 0x02	; 2
    1fe2:	41 f4       	brne	.+16     	; 0x1ff4 <STEPPER_set_stop_mode+0x24>
    1fe4:	03 c0       	rjmp	.+6      	; 0x1fec <STEPPER_set_stop_mode+0x1c>
    1fe6:	60 93 33 04 	sts	0x0433, r22
    1fea:	04 c0       	rjmp	.+8      	; 0x1ff4 <STEPPER_set_stop_mode+0x24>
    1fec:	60 93 33 04 	sts	0x0433, r22
    1ff0:	60 93 34 04 	sts	0x0434, r22
    1ff4:	10 92 49 04 	sts	0x0449, r1
    1ff8:	08 95       	ret

00001ffa <STEPPER_setup_decels>:
    1ffa:	0f 93       	push	r16
    1ffc:	1f 93       	push	r17
    1ffe:	cf 93       	push	r28
    2000:	df 93       	push	r29
    2002:	eb 01       	movw	r28, r22
    2004:	8a 01       	movw	r16, r20
    2006:	81 30       	cpi	r24, 0x01	; 1
    2008:	01 f1       	breq	.+64     	; 0x204a <STEPPER_setup_decels+0x50>
    200a:	81 30       	cpi	r24, 0x01	; 1
    200c:	18 f0       	brcs	.+6      	; 0x2014 <STEPPER_setup_decels+0x1a>
    200e:	82 30       	cpi	r24, 0x02	; 2
    2010:	61 f5       	brne	.+88     	; 0x206a <STEPPER_setup_decels+0x70>
    2012:	0d c0       	rjmp	.+26     	; 0x202e <STEPPER_setup_decels+0x34>
    2014:	80 91 1d 04 	lds	r24, 0x041D
    2018:	90 91 1e 04 	lds	r25, 0x041E
    201c:	89 2b       	or	r24, r25
    201e:	11 f0       	breq	.+4      	; 0x2024 <STEPPER_setup_decels+0x2a>
    2020:	80 e0       	ldi	r24, 0x00	; 0
    2022:	1a c0       	rjmp	.+52     	; 0x2058 <STEPPER_setup_decels+0x5e>
    2024:	10 92 2a 04 	sts	0x042A, r1
    2028:	10 92 29 04 	sts	0x0429, r1
    202c:	1e c0       	rjmp	.+60     	; 0x206a <STEPPER_setup_decels+0x70>
    202e:	80 91 1d 04 	lds	r24, 0x041D
    2032:	90 91 1e 04 	lds	r25, 0x041E
    2036:	89 2b       	or	r24, r25
    2038:	21 f0       	breq	.+8      	; 0x2042 <STEPPER_setup_decels+0x48>
    203a:	80 e0       	ldi	r24, 0x00	; 0
    203c:	0e 94 92 11 	call	0x2324	; 0x2324 <STEPPER_set_decel_step_values>
    2040:	04 c0       	rjmp	.+8      	; 0x204a <STEPPER_setup_decels+0x50>
    2042:	10 92 2a 04 	sts	0x042A, r1
    2046:	10 92 29 04 	sts	0x0429, r1
    204a:	80 91 1f 04 	lds	r24, 0x041F
    204e:	90 91 20 04 	lds	r25, 0x0420
    2052:	89 2b       	or	r24, r25
    2054:	31 f0       	breq	.+12     	; 0x2062 <STEPPER_setup_decels+0x68>
    2056:	81 e0       	ldi	r24, 0x01	; 1
    2058:	be 01       	movw	r22, r28
    205a:	a8 01       	movw	r20, r16
    205c:	0e 94 92 11 	call	0x2324	; 0x2324 <STEPPER_set_decel_step_values>
    2060:	04 c0       	rjmp	.+8      	; 0x206a <STEPPER_setup_decels+0x70>
    2062:	10 92 2c 04 	sts	0x042C, r1
    2066:	10 92 2b 04 	sts	0x042B, r1
    206a:	df 91       	pop	r29
    206c:	cf 91       	pop	r28
    206e:	1f 91       	pop	r17
    2070:	0f 91       	pop	r16
    2072:	08 95       	ret

00002074 <SYS_init>:
    2074:	10 92 4c 04 	sts	0x044C, r1
    2078:	10 92 4d 04 	sts	0x044D, r1
    207c:	10 92 51 04 	sts	0x0451, r1
    2080:	10 92 4e 04 	sts	0x044E, r1
    2084:	10 92 50 04 	sts	0x0450, r1
    2088:	10 92 52 04 	sts	0x0452, r1
    208c:	10 92 53 04 	sts	0x0453, r1
    2090:	10 92 54 04 	sts	0x0454, r1
    2094:	10 92 55 04 	sts	0x0455, r1
    2098:	10 92 56 04 	sts	0x0456, r1
    209c:	10 92 57 04 	sts	0x0457, r1
    20a0:	10 92 58 04 	sts	0x0458, r1
    20a4:	10 92 59 04 	sts	0x0459, r1
    20a8:	10 92 5a 04 	sts	0x045A, r1
    20ac:	10 92 5b 04 	sts	0x045B, r1
    20b0:	10 92 5c 04 	sts	0x045C, r1
    20b4:	10 92 5d 04 	sts	0x045D, r1
    20b8:	08 95       	ret

000020ba <ATTINY_get_sensors>:
    20ba:	0f 93       	push	r16
    20bc:	1f 93       	push	r17
    20be:	81 e0       	ldi	r24, 0x01	; 1
    20c0:	0e 94 7e 09 	call	0x12fc	; 0x12fc <SYS_get_state>
    20c4:	81 30       	cpi	r24, 0x01	; 1
    20c6:	11 f0       	breq	.+4      	; 0x20cc <ATTINY_get_sensors+0x12>
    20c8:	00 e0       	ldi	r16, 0x00	; 0
    20ca:	24 c0       	rjmp	.+72     	; 0x2114 <ATTINY_get_sensors+0x5a>
    20cc:	87 e0       	ldi	r24, 0x07	; 7
    20ce:	0e 94 e6 04 	call	0x9cc	; 0x9cc <SPI_set_slave_addr>
    20d2:	82 e0       	ldi	r24, 0x02	; 2
    20d4:	6a e0       	ldi	r22, 0x0A	; 10
    20d6:	0e 94 37 05 	call	0xa6e	; 0xa6e <SPI_transmit>
    20da:	82 e0       	ldi	r24, 0x02	; 2
    20dc:	62 eb       	ldi	r22, 0xB2	; 178
    20de:	0e 94 37 05 	call	0xa6e	; 0xa6e <SPI_transmit>
    20e2:	18 ec       	ldi	r17, 0xC8	; 200
    20e4:	81 2f       	mov	r24, r17
    20e6:	8a 95       	dec	r24
    20e8:	f1 f7       	brne	.-4      	; 0x20e6 <ATTINY_get_sensors+0x2c>
    20ea:	82 e0       	ldi	r24, 0x02	; 2
    20ec:	60 e0       	ldi	r22, 0x00	; 0
    20ee:	0e 94 64 11 	call	0x22c8	; 0x22c8 <SPI_receive>
    20f2:	08 2f       	mov	r16, r24
    20f4:	81 2f       	mov	r24, r17
    20f6:	8a 95       	dec	r24
    20f8:	f1 f7       	brne	.-4      	; 0x20f6 <ATTINY_get_sensors+0x3c>
    20fa:	82 e0       	ldi	r24, 0x02	; 2
    20fc:	60 e0       	ldi	r22, 0x00	; 0
    20fe:	0e 94 64 11 	call	0x22c8	; 0x22c8 <SPI_receive>
    2102:	1a 95       	dec	r17
    2104:	f1 f7       	brne	.-4      	; 0x2102 <ATTINY_get_sensors+0x48>
    2106:	87 e0       	ldi	r24, 0x07	; 7
    2108:	0e 94 e6 04 	call	0x9cc	; 0x9cc <SPI_set_slave_addr>
    210c:	88 e8       	ldi	r24, 0x88	; 136
    210e:	93 e1       	ldi	r25, 0x13	; 19
    2110:	01 97       	sbiw	r24, 0x01	; 1
    2112:	f1 f7       	brne	.-4      	; 0x2110 <ATTINY_get_sensors+0x56>
    2114:	80 2f       	mov	r24, r16
    2116:	1f 91       	pop	r17
    2118:	0f 91       	pop	r16
    211a:	08 95       	ret

0000211c <TMRSRVC_insert>:
    211c:	cf 92       	push	r12
    211e:	df 92       	push	r13
    2120:	ef 92       	push	r14
    2122:	ff 92       	push	r15
    2124:	0f 93       	push	r16
    2126:	1f 93       	push	r17
    2128:	cf 93       	push	r28
    212a:	df 93       	push	r29
    212c:	ec 01       	movw	r28, r24
    212e:	80 91 83 04 	lds	r24, 0x0483
    2132:	88 23       	and	r24, r24
    2134:	39 f4       	brne	.+14     	; 0x2144 <TMRSRVC_insert+0x28>
    2136:	d0 93 85 04 	sts	0x0485, r29
    213a:	c0 93 84 04 	sts	0x0484, r28
    213e:	0e 94 1c 11 	call	0x2238	; 0x2238 <TMRSRVC_start>
    2142:	47 c0       	rjmp	.+142    	; 0x21d2 <TMRSRVC_insert+0xb6>
    2144:	c0 90 84 04 	lds	r12, 0x0484
    2148:	d0 90 85 04 	lds	r13, 0x0485
    214c:	00 e0       	ldi	r16, 0x00	; 0
    214e:	10 e0       	ldi	r17, 0x00	; 0
    2150:	ee 24       	eor	r14, r14
    2152:	ff 24       	eor	r15, r15
    2154:	37 c0       	rjmp	.+110    	; 0x21c4 <TMRSRVC_insert+0xa8>
    2156:	a8 81       	ld	r26, Y
    2158:	b9 81       	ldd	r27, Y+1	; 0x01
    215a:	fd 01       	movw	r30, r26
    215c:	64 81       	ldd	r22, Z+4	; 0x04
    215e:	75 81       	ldd	r23, Z+5	; 0x05
    2160:	f6 01       	movw	r30, r12
    2162:	40 81       	ld	r20, Z
    2164:	51 81       	ldd	r21, Z+1	; 0x01
    2166:	fa 01       	movw	r30, r20
    2168:	84 81       	ldd	r24, Z+4	; 0x04
    216a:	95 81       	ldd	r25, Z+5	; 0x05
    216c:	9b 01       	movw	r18, r22
    216e:	28 1b       	sub	r18, r24
    2170:	39 0b       	sbc	r19, r25
    2172:	37 ff       	sbrs	r19, 7
    2174:	0f c0       	rjmp	.+30     	; 0x2194 <TMRSRVC_insert+0x78>
    2176:	86 1b       	sub	r24, r22
    2178:	97 0b       	sbc	r25, r23
    217a:	95 83       	std	Z+5, r25	; 0x05
    217c:	84 83       	std	Z+4, r24	; 0x04
    217e:	db 82       	std	Y+3, r13	; 0x03
    2180:	ca 82       	std	Y+2, r12	; 0x02
    2182:	01 2b       	or	r16, r17
    2184:	29 f4       	brne	.+10     	; 0x2190 <TMRSRVC_insert+0x74>
    2186:	d0 93 85 04 	sts	0x0485, r29
    218a:	c0 93 84 04 	sts	0x0484, r28
    218e:	21 c0       	rjmp	.+66     	; 0x21d2 <TMRSRVC_insert+0xb6>
    2190:	f7 01       	movw	r30, r14
    2192:	0c c0       	rjmp	.+24     	; 0x21ac <TMRSRVC_insert+0x90>
    2194:	f6 01       	movw	r30, r12
    2196:	82 81       	ldd	r24, Z+2	; 0x02
    2198:	93 81       	ldd	r25, Z+3	; 0x03
    219a:	21 15       	cp	r18, r1
    219c:	31 05       	cpc	r19, r1
    219e:	49 f4       	brne	.+18     	; 0x21b2 <TMRSRVC_insert+0x96>
    21a0:	fd 01       	movw	r30, r26
    21a2:	15 82       	std	Z+5, r1	; 0x05
    21a4:	14 82       	std	Z+4, r1	; 0x04
    21a6:	9b 83       	std	Y+3, r25	; 0x03
    21a8:	8a 83       	std	Y+2, r24	; 0x02
    21aa:	f6 01       	movw	r30, r12
    21ac:	d3 83       	std	Z+3, r29	; 0x03
    21ae:	c2 83       	std	Z+2, r28	; 0x02
    21b0:	10 c0       	rjmp	.+32     	; 0x21d2 <TMRSRVC_insert+0xb6>
    21b2:	fd 01       	movw	r30, r26
    21b4:	35 83       	std	Z+5, r19	; 0x05
    21b6:	24 83       	std	Z+4, r18	; 0x04
    21b8:	00 97       	sbiw	r24, 0x00	; 0
    21ba:	b9 f3       	breq	.-18     	; 0x21aa <TMRSRVC_insert+0x8e>
    21bc:	0f 5f       	subi	r16, 0xFF	; 255
    21be:	1f 4f       	sbci	r17, 0xFF	; 255
    21c0:	76 01       	movw	r14, r12
    21c2:	6c 01       	movw	r12, r24
    21c4:	80 91 83 04 	lds	r24, 0x0483
    21c8:	90 e0       	ldi	r25, 0x00	; 0
    21ca:	08 17       	cp	r16, r24
    21cc:	19 07       	cpc	r17, r25
    21ce:	18 f2       	brcs	.-122    	; 0x2156 <TMRSRVC_insert+0x3a>
    21d0:	ec cf       	rjmp	.-40     	; 0x21aa <TMRSRVC_insert+0x8e>
    21d2:	80 91 83 04 	lds	r24, 0x0483
    21d6:	8f 5f       	subi	r24, 0xFF	; 255
    21d8:	80 93 83 04 	sts	0x0483, r24
    21dc:	df 91       	pop	r29
    21de:	cf 91       	pop	r28
    21e0:	1f 91       	pop	r17
    21e2:	0f 91       	pop	r16
    21e4:	ff 90       	pop	r15
    21e6:	ef 90       	pop	r14
    21e8:	df 90       	pop	r13
    21ea:	cf 90       	pop	r12
    21ec:	08 95       	ret

000021ee <TMRSRVC_open>:
    21ee:	88 e0       	ldi	r24, 0x08	; 8
    21f0:	0e 94 7e 09 	call	0x12fc	; 0x12fc <SYS_get_state>
    21f4:	88 23       	and	r24, r24
    21f6:	b9 f4       	brne	.+46     	; 0x2226 <TMRSRVC_open+0x38>
    21f8:	10 92 83 04 	sts	0x0483, r1
    21fc:	10 92 85 04 	sts	0x0485, r1
    2200:	10 92 84 04 	sts	0x0484, r1
    2204:	10 92 0c 04 	sts	0x040C, r1
    2208:	10 92 0d 04 	sts	0x040D, r1
    220c:	80 e1       	ldi	r24, 0x10	; 16
    220e:	6f ef       	ldi	r22, 0xFF	; 255
    2210:	71 e1       	ldi	r23, 0x11	; 17
    2212:	0e 94 20 11 	call	0x2240	; 0x2240 <__ISR_attach>
    2216:	0e 94 06 12 	call	0x240c	; 0x240c <__TMRSRVC_init>
    221a:	0e 94 16 11 	call	0x222c	; 0x222c <__TMRSRVC_start>
    221e:	88 e0       	ldi	r24, 0x08	; 8
    2220:	61 e0       	ldi	r22, 0x01	; 1
    2222:	0e 94 c6 09 	call	0x138c	; 0x138c <SYS_set_state>
    2226:	88 e0       	ldi	r24, 0x08	; 8
    2228:	91 e0       	ldi	r25, 0x01	; 1
    222a:	08 95       	ret

0000222c <__TMRSRVC_start>:
    222c:	ee e6       	ldi	r30, 0x6E	; 110
    222e:	f0 e0       	ldi	r31, 0x00	; 0
    2230:	80 81       	ld	r24, Z
    2232:	82 60       	ori	r24, 0x02	; 2
    2234:	80 83       	st	Z, r24
    2236:	08 95       	ret

00002238 <TMRSRVC_start>:
    2238:	81 e0       	ldi	r24, 0x01	; 1
    223a:	80 93 0d 04 	sts	0x040D, r24
    223e:	08 95       	ret

00002240 <__ISR_attach>:
    2240:	80 32       	cpi	r24, 0x20	; 32
    2242:	18 f0       	brcs	.+6      	; 0x224a <__ISR_attach+0xa>
    2244:	20 e0       	ldi	r18, 0x00	; 0
    2246:	30 e0       	ldi	r19, 0x00	; 0
    2248:	0a c0       	rjmp	.+20     	; 0x225e <__ISR_attach+0x1e>
    224a:	e8 2f       	mov	r30, r24
    224c:	f0 e0       	ldi	r31, 0x00	; 0
    224e:	ee 0f       	add	r30, r30
    2250:	ff 1f       	adc	r31, r31
    2252:	e4 55       	subi	r30, 0x54	; 84
    2254:	fc 4f       	sbci	r31, 0xFC	; 252
    2256:	20 81       	ld	r18, Z
    2258:	31 81       	ldd	r19, Z+1	; 0x01
    225a:	71 83       	std	Z+1, r23	; 0x01
    225c:	60 83       	st	Z, r22
    225e:	c9 01       	movw	r24, r18
    2260:	08 95       	ret

00002262 <__ATMEGA_init>:
    2262:	24 9a       	sbi	0x04, 4	; 4
    2264:	2c 9a       	sbi	0x05, 4	; 5
    2266:	08 95       	ret

00002268 <SPI_default_config>:
    2268:	83 e5       	ldi	r24, 0x53	; 83
    226a:	8c bd       	out	0x2c, r24	; 44
    226c:	81 e0       	ldi	r24, 0x01	; 1
    226e:	8d bd       	out	0x2d, r24	; 45
    2270:	8d e0       	ldi	r24, 0x0D	; 13
    2272:	8a 95       	dec	r24
    2274:	f1 f7       	brne	.-4      	; 0x2272 <SPI_default_config+0xa>
    2276:	08 95       	ret

00002278 <SPI_ATtiny0_config>:
    2278:	83 e5       	ldi	r24, 0x53	; 83
    227a:	8c bd       	out	0x2c, r24	; 44
    227c:	1d bc       	out	0x2d, r1	; 45
    227e:	84 ef       	ldi	r24, 0xF4	; 244
    2280:	91 e0       	ldi	r25, 0x01	; 1
    2282:	01 97       	sbiw	r24, 0x01	; 1
    2284:	f1 f7       	brne	.-4      	; 0x2282 <SPI_ATtiny0_config+0xa>
    2286:	08 95       	ret

00002288 <SPI_PSXC_config>:
    2288:	8f e7       	ldi	r24, 0x7F	; 127
    228a:	8c bd       	out	0x2c, r24	; 44
    228c:	1d bc       	out	0x2d, r1	; 45
    228e:	84 ef       	ldi	r24, 0xF4	; 244
    2290:	91 e0       	ldi	r25, 0x01	; 1
    2292:	01 97       	sbiw	r24, 0x01	; 1
    2294:	f1 f7       	brne	.-4      	; 0x2292 <SPI_PSXC_config+0xa>
    2296:	08 95       	ret

00002298 <SPI_LCD_config>:
    2298:	83 e5       	ldi	r24, 0x53	; 83
    229a:	8c bd       	out	0x2c, r24	; 44
    229c:	81 e0       	ldi	r24, 0x01	; 1
    229e:	8d bd       	out	0x2d, r24	; 45
    22a0:	8d e0       	ldi	r24, 0x0D	; 13
    22a2:	8a 95       	dec	r24
    22a4:	f1 f7       	brne	.-4      	; 0x22a2 <SPI_LCD_config+0xa>
    22a6:	08 95       	ret

000022a8 <SPI_FLASH_config>:
    22a8:	83 e5       	ldi	r24, 0x53	; 83
    22aa:	8c bd       	out	0x2c, r24	; 44
    22ac:	81 e0       	ldi	r24, 0x01	; 1
    22ae:	8d bd       	out	0x2d, r24	; 45
    22b0:	84 ef       	ldi	r24, 0xF4	; 244
    22b2:	91 e0       	ldi	r25, 0x01	; 1
    22b4:	01 97       	sbiw	r24, 0x01	; 1
    22b6:	f1 f7       	brne	.-4      	; 0x22b4 <SPI_FLASH_config+0xc>
    22b8:	08 95       	ret

000022ba <__SPI_init>:
    22ba:	25 9a       	sbi	0x04, 5	; 4
    22bc:	26 98       	cbi	0x04, 6	; 4
    22be:	27 9a       	sbi	0x04, 7	; 4
    22c0:	20 9a       	sbi	0x04, 0	; 4
    22c2:	21 9a       	sbi	0x04, 1	; 4
    22c4:	22 9a       	sbi	0x04, 2	; 4
    22c6:	08 95       	ret

000022c8 <SPI_receive>:
    22c8:	1f 93       	push	r17
    22ca:	16 2f       	mov	r17, r22
    22cc:	0e 94 e6 04 	call	0x9cc	; 0x9cc <SPI_set_slave_addr>
    22d0:	82 e0       	ldi	r24, 0x02	; 2
    22d2:	0e 94 7e 09 	call	0x12fc	; 0x12fc <SYS_get_state>
    22d6:	81 30       	cpi	r24, 0x01	; 1
    22d8:	11 f0       	breq	.+4      	; 0x22de <SPI_receive+0x16>
    22da:	80 e0       	ldi	r24, 0x00	; 0
    22dc:	05 c0       	rjmp	.+10     	; 0x22e8 <SPI_receive+0x20>
    22de:	1e bd       	out	0x2e, r17	; 46
    22e0:	0d b4       	in	r0, 0x2d	; 45
    22e2:	07 fe       	sbrs	r0, 7
    22e4:	fd cf       	rjmp	.-6      	; 0x22e0 <SPI_receive+0x18>
    22e6:	8e b5       	in	r24, 0x2e	; 46
    22e8:	1f 91       	pop	r17
    22ea:	08 95       	ret

000022ec <__SPKR_close>:
    22ec:	82 30       	cpi	r24, 0x02	; 2
    22ee:	29 f4       	brne	.+10     	; 0x22fa <__SPKR_close+0xe>
    22f0:	80 91 81 00 	lds	r24, 0x0081
    22f4:	8e 7f       	andi	r24, 0xFE	; 254
    22f6:	80 93 81 00 	sts	0x0081, r24
    22fa:	80 91 fc 03 	lds	r24, 0x03FC
    22fe:	81 30       	cpi	r24, 0x01	; 1
    2300:	31 f4       	brne	.+12     	; 0x230e <__SPKR_close+0x22>
    2302:	80 91 fd 03 	lds	r24, 0x03FD
    2306:	81 30       	cpi	r24, 0x01	; 1
    2308:	11 f4       	brne	.+4      	; 0x230e <__SPKR_close+0x22>
    230a:	00 00       	nop
    230c:	08 95       	ret
    230e:	80 91 fc 03 	lds	r24, 0x03FC
    2312:	81 30       	cpi	r24, 0x01	; 1
    2314:	21 f0       	breq	.+8      	; 0x231e <__SPKR_close+0x32>
    2316:	80 91 fd 03 	lds	r24, 0x03FD
    231a:	81 30       	cpi	r24, 0x01	; 1
    231c:	11 f4       	brne	.+4      	; 0x2322 <__SPKR_close+0x36>
    231e:	5f 98       	cbi	0x0b, 7	; 11
    2320:	57 98       	cbi	0x0a, 7	; 10
    2322:	08 95       	ret

00002324 <STEPPER_set_decel_step_values>:
    2324:	ef 92       	push	r14
    2326:	ff 92       	push	r15
    2328:	0f 93       	push	r16
    232a:	1f 93       	push	r17
    232c:	cf 93       	push	r28
    232e:	df 93       	push	r29
    2330:	eb 01       	movw	r28, r22
    2332:	88 23       	and	r24, r24
    2334:	21 f0       	breq	.+8      	; 0x233e <STEPPER_set_decel_step_values+0x1a>
    2336:	81 30       	cpi	r24, 0x01	; 1
    2338:	09 f0       	breq	.+2      	; 0x233c <STEPPER_set_decel_step_values+0x18>
    233a:	5a c0       	rjmp	.+180    	; 0x23f0 <STEPPER_set_decel_step_values+0xcc>
    233c:	2d c0       	rjmp	.+90     	; 0x2398 <STEPPER_set_decel_step_values+0x74>
    233e:	9a 01       	movw	r18, r20
    2340:	40 e0       	ldi	r20, 0x00	; 0
    2342:	50 e0       	ldi	r21, 0x00	; 0
    2344:	ca 01       	movw	r24, r20
    2346:	b9 01       	movw	r22, r18
    2348:	0e 94 6d 31 	call	0x62da	; 0x62da <__mulsi3>
    234c:	20 91 1d 04 	lds	r18, 0x041D
    2350:	30 91 1e 04 	lds	r19, 0x041E
    2354:	22 0f       	add	r18, r18
    2356:	33 1f       	adc	r19, r19
    2358:	40 e0       	ldi	r20, 0x00	; 0
    235a:	50 e0       	ldi	r21, 0x00	; 0
    235c:	0e 94 91 31 	call	0x6322	; 0x6322 <__udivmodsi4>
    2360:	79 01       	movw	r14, r18
    2362:	8a 01       	movw	r16, r20
    2364:	a8 01       	movw	r20, r16
    2366:	97 01       	movw	r18, r14
    2368:	22 0f       	add	r18, r18
    236a:	33 1f       	adc	r19, r19
    236c:	44 1f       	adc	r20, r20
    236e:	55 1f       	adc	r21, r21
    2370:	ce 01       	movw	r24, r28
    2372:	a0 e0       	ldi	r26, 0x00	; 0
    2374:	b0 e0       	ldi	r27, 0x00	; 0
    2376:	82 17       	cp	r24, r18
    2378:	93 07       	cpc	r25, r19
    237a:	a4 07       	cpc	r26, r20
    237c:	b5 07       	cpc	r27, r21
    237e:	28 f0       	brcs	.+10     	; 0x238a <STEPPER_set_decel_step_values+0x66>
    2380:	f0 92 2a 04 	sts	0x042A, r15
    2384:	e0 92 29 04 	sts	0x0429, r14
    2388:	33 c0       	rjmp	.+102    	; 0x23f0 <STEPPER_set_decel_step_values+0xcc>
    238a:	d6 95       	lsr	r29
    238c:	c7 95       	ror	r28
    238e:	d0 93 2a 04 	sts	0x042A, r29
    2392:	c0 93 29 04 	sts	0x0429, r28
    2396:	2c c0       	rjmp	.+88     	; 0x23f0 <STEPPER_set_decel_step_values+0xcc>
    2398:	9a 01       	movw	r18, r20
    239a:	40 e0       	ldi	r20, 0x00	; 0
    239c:	50 e0       	ldi	r21, 0x00	; 0
    239e:	ca 01       	movw	r24, r20
    23a0:	b9 01       	movw	r22, r18
    23a2:	0e 94 6d 31 	call	0x62da	; 0x62da <__mulsi3>
    23a6:	20 91 1f 04 	lds	r18, 0x041F
    23aa:	30 91 20 04 	lds	r19, 0x0420
    23ae:	22 0f       	add	r18, r18
    23b0:	33 1f       	adc	r19, r19
    23b2:	40 e0       	ldi	r20, 0x00	; 0
    23b4:	50 e0       	ldi	r21, 0x00	; 0
    23b6:	0e 94 91 31 	call	0x6322	; 0x6322 <__udivmodsi4>
    23ba:	79 01       	movw	r14, r18
    23bc:	8a 01       	movw	r16, r20
    23be:	a8 01       	movw	r20, r16
    23c0:	97 01       	movw	r18, r14
    23c2:	22 0f       	add	r18, r18
    23c4:	33 1f       	adc	r19, r19
    23c6:	44 1f       	adc	r20, r20
    23c8:	55 1f       	adc	r21, r21
    23ca:	ce 01       	movw	r24, r28
    23cc:	a0 e0       	ldi	r26, 0x00	; 0
    23ce:	b0 e0       	ldi	r27, 0x00	; 0
    23d0:	82 17       	cp	r24, r18
    23d2:	93 07       	cpc	r25, r19
    23d4:	a4 07       	cpc	r26, r20
    23d6:	b5 07       	cpc	r27, r21
    23d8:	28 f0       	brcs	.+10     	; 0x23e4 <STEPPER_set_decel_step_values+0xc0>
    23da:	f0 92 2c 04 	sts	0x042C, r15
    23de:	e0 92 2b 04 	sts	0x042B, r14
    23e2:	06 c0       	rjmp	.+12     	; 0x23f0 <STEPPER_set_decel_step_values+0xcc>
    23e4:	d6 95       	lsr	r29
    23e6:	c7 95       	ror	r28
    23e8:	d0 93 2c 04 	sts	0x042C, r29
    23ec:	c0 93 2b 04 	sts	0x042B, r28
    23f0:	df 91       	pop	r29
    23f2:	cf 91       	pop	r28
    23f4:	1f 91       	pop	r17
    23f6:	0f 91       	pop	r16
    23f8:	ff 90       	pop	r15
    23fa:	ef 90       	pop	r14
    23fc:	08 95       	ret

000023fe <__TIMER0_COMPA_vect>:
    23fe:	0e 94 0f 12 	call	0x241e	; 0x241e <TMRSRVC_tick>
    2402:	0e 94 4f 12 	call	0x249e	; 0x249e <STEPPER_clk>
    2406:	0e 94 28 12 	call	0x2450	; 0x2450 <SPKR_beep_clk>
    240a:	08 95       	ret

0000240c <__TMRSRVC_init>:
    240c:	84 b5       	in	r24, 0x24	; 36
    240e:	82 60       	ori	r24, 0x02	; 2
    2410:	84 bd       	out	0x24, r24	; 36
    2412:	85 b5       	in	r24, 0x25	; 37
    2414:	84 60       	ori	r24, 0x04	; 4
    2416:	85 bd       	out	0x25, r24	; 37
    2418:	8e e4       	ldi	r24, 0x4E	; 78
    241a:	87 bd       	out	0x27, r24	; 39
    241c:	08 95       	ret

0000241e <TMRSRVC_tick>:
    241e:	88 e0       	ldi	r24, 0x08	; 8
    2420:	0e 94 7e 09 	call	0x12fc	; 0x12fc <SYS_get_state>
    2424:	88 23       	and	r24, r24
    2426:	11 f4       	brne	.+4      	; 0x242c <TMRSRVC_tick+0xe>
    2428:	84 e0       	ldi	r24, 0x04	; 4
    242a:	08 95       	ret
    242c:	80 91 0d 04 	lds	r24, 0x040D
    2430:	88 23       	and	r24, r24
    2432:	11 f4       	brne	.+4      	; 0x2438 <TMRSRVC_tick+0x1a>
    2434:	83 e0       	ldi	r24, 0x03	; 3
    2436:	08 95       	ret
    2438:	80 91 0c 04 	lds	r24, 0x040C
    243c:	88 23       	and	r24, r24
    243e:	11 f0       	breq	.+4      	; 0x2444 <TMRSRVC_tick+0x26>
    2440:	82 e0       	ldi	r24, 0x02	; 2
    2442:	08 95       	ret
    2444:	0e 94 9c 14 	call	0x2938	; 0x2938 <TMRSRVC_process>
    2448:	81 30       	cpi	r24, 0x01	; 1
    244a:	e1 f3       	breq	.-8      	; 0x2444 <TMRSRVC_tick+0x26>
    244c:	80 e0       	ldi	r24, 0x00	; 0
    244e:	08 95       	ret

00002450 <SPKR_beep_clk>:
    2450:	80 91 fd 03 	lds	r24, 0x03FD
    2454:	81 30       	cpi	r24, 0x01	; 1
    2456:	11 f5       	brne	.+68     	; 0x249c <SPKR_beep_clk+0x4c>
    2458:	80 91 06 04 	lds	r24, 0x0406
    245c:	90 91 07 04 	lds	r25, 0x0407
    2460:	20 91 08 04 	lds	r18, 0x0408
    2464:	30 91 09 04 	lds	r19, 0x0409
    2468:	28 0f       	add	r18, r24
    246a:	39 1f       	adc	r19, r25
    246c:	30 93 07 04 	sts	0x0407, r19
    2470:	20 93 06 04 	sts	0x0406, r18
    2474:	80 91 06 04 	lds	r24, 0x0406
    2478:	90 91 07 04 	lds	r25, 0x0407
    247c:	88 5e       	subi	r24, 0xE8	; 232
    247e:	93 40       	sbci	r25, 0x03	; 3
    2480:	6c f0       	brlt	.+26     	; 0x249c <SPKR_beep_clk+0x4c>
    2482:	8b b1       	in	r24, 0x0b	; 11
    2484:	80 58       	subi	r24, 0x80	; 128
    2486:	8b b9       	out	0x0b, r24	; 11
    2488:	80 91 06 04 	lds	r24, 0x0406
    248c:	90 91 07 04 	lds	r25, 0x0407
    2490:	88 5e       	subi	r24, 0xE8	; 232
    2492:	93 40       	sbci	r25, 0x03	; 3
    2494:	90 93 07 04 	sts	0x0407, r25
    2498:	80 93 06 04 	sts	0x0406, r24
    249c:	08 95       	ret

0000249e <STEPPER_clk>:
    249e:	87 e0       	ldi	r24, 0x07	; 7
    24a0:	0e 94 7e 09 	call	0x12fc	; 0x12fc <SYS_get_state>
    24a4:	81 30       	cpi	r24, 0x01	; 1
    24a6:	09 f0       	breq	.+2      	; 0x24aa <STEPPER_clk+0xc>
    24a8:	aa c0       	rjmp	.+340    	; 0x25fe <STEPPER_clk+0x160>
    24aa:	80 91 1d 04 	lds	r24, 0x041D
    24ae:	90 91 1e 04 	lds	r25, 0x041E
    24b2:	89 2b       	or	r24, r25
    24b4:	09 f1       	breq	.+66     	; 0x24f8 <STEPPER_clk+0x5a>
    24b6:	80 91 41 04 	lds	r24, 0x0441
    24ba:	90 91 42 04 	lds	r25, 0x0442
    24be:	20 91 1d 04 	lds	r18, 0x041D
    24c2:	30 91 1e 04 	lds	r19, 0x041E
    24c6:	82 0f       	add	r24, r18
    24c8:	93 1f       	adc	r25, r19
    24ca:	90 93 42 04 	sts	0x0442, r25
    24ce:	80 93 41 04 	sts	0x0441, r24
    24d2:	80 91 41 04 	lds	r24, 0x0441
    24d6:	90 91 42 04 	lds	r25, 0x0442
    24da:	88 5e       	subi	r24, 0xE8	; 232
    24dc:	93 40       	sbci	r25, 0x03	; 3
    24de:	a4 f0       	brlt	.+40     	; 0x2508 <STEPPER_clk+0x6a>
    24e0:	80 91 41 04 	lds	r24, 0x0441
    24e4:	90 91 42 04 	lds	r25, 0x0442
    24e8:	88 5e       	subi	r24, 0xE8	; 232
    24ea:	93 40       	sbci	r25, 0x03	; 3
    24ec:	90 93 42 04 	sts	0x0442, r25
    24f0:	80 93 41 04 	sts	0x0441, r24
    24f4:	41 e0       	ldi	r20, 0x01	; 1
    24f6:	09 c0       	rjmp	.+18     	; 0x250a <STEPPER_clk+0x6c>
    24f8:	80 91 15 04 	lds	r24, 0x0415
    24fc:	90 91 16 04 	lds	r25, 0x0416
    2500:	90 93 1a 04 	sts	0x041A, r25
    2504:	80 93 19 04 	sts	0x0419, r24
    2508:	40 e0       	ldi	r20, 0x00	; 0
    250a:	80 91 1f 04 	lds	r24, 0x041F
    250e:	90 91 20 04 	lds	r25, 0x0420
    2512:	89 2b       	or	r24, r25
    2514:	09 f1       	breq	.+66     	; 0x2558 <STEPPER_clk+0xba>
    2516:	80 91 43 04 	lds	r24, 0x0443
    251a:	90 91 44 04 	lds	r25, 0x0444
    251e:	20 91 1f 04 	lds	r18, 0x041F
    2522:	30 91 20 04 	lds	r19, 0x0420
    2526:	82 0f       	add	r24, r18
    2528:	93 1f       	adc	r25, r19
    252a:	90 93 44 04 	sts	0x0444, r25
    252e:	80 93 43 04 	sts	0x0443, r24
    2532:	80 91 43 04 	lds	r24, 0x0443
    2536:	90 91 44 04 	lds	r25, 0x0444
    253a:	88 5e       	subi	r24, 0xE8	; 232
    253c:	93 40       	sbci	r25, 0x03	; 3
    253e:	a4 f0       	brlt	.+40     	; 0x2568 <STEPPER_clk+0xca>
    2540:	80 91 43 04 	lds	r24, 0x0443
    2544:	90 91 44 04 	lds	r25, 0x0444
    2548:	88 5e       	subi	r24, 0xE8	; 232
    254a:	93 40       	sbci	r25, 0x03	; 3
    254c:	90 93 44 04 	sts	0x0444, r25
    2550:	80 93 43 04 	sts	0x0443, r24
    2554:	61 e0       	ldi	r22, 0x01	; 1
    2556:	09 c0       	rjmp	.+18     	; 0x256a <STEPPER_clk+0xcc>
    2558:	80 91 17 04 	lds	r24, 0x0417
    255c:	90 91 18 04 	lds	r25, 0x0418
    2560:	90 93 1c 04 	sts	0x041C, r25
    2564:	80 93 1b 04 	sts	0x041B, r24
    2568:	60 e0       	ldi	r22, 0x00	; 0
    256a:	84 2f       	mov	r24, r20
    256c:	0e 94 00 13 	call	0x2600	; 0x2600 <STEPPER_process_accel>
    2570:	80 91 3d 04 	lds	r24, 0x043D
    2574:	90 91 3e 04 	lds	r25, 0x043E
    2578:	20 91 19 04 	lds	r18, 0x0419
    257c:	30 91 1a 04 	lds	r19, 0x041A
    2580:	28 0f       	add	r18, r24
    2582:	39 1f       	adc	r19, r25
    2584:	30 93 3e 04 	sts	0x043E, r19
    2588:	20 93 3d 04 	sts	0x043D, r18
    258c:	80 91 3d 04 	lds	r24, 0x043D
    2590:	90 91 3e 04 	lds	r25, 0x043E
    2594:	88 5e       	subi	r24, 0xE8	; 232
    2596:	93 40       	sbci	r25, 0x03	; 3
    2598:	14 f4       	brge	.+4      	; 0x259e <STEPPER_clk+0x100>
    259a:	40 e0       	ldi	r20, 0x00	; 0
    259c:	0b c0       	rjmp	.+22     	; 0x25b4 <STEPPER_clk+0x116>
    259e:	80 91 3d 04 	lds	r24, 0x043D
    25a2:	90 91 3e 04 	lds	r25, 0x043E
    25a6:	88 5e       	subi	r24, 0xE8	; 232
    25a8:	93 40       	sbci	r25, 0x03	; 3
    25aa:	90 93 3e 04 	sts	0x043E, r25
    25ae:	80 93 3d 04 	sts	0x043D, r24
    25b2:	41 e0       	ldi	r20, 0x01	; 1
    25b4:	80 91 3f 04 	lds	r24, 0x043F
    25b8:	90 91 40 04 	lds	r25, 0x0440
    25bc:	20 91 1b 04 	lds	r18, 0x041B
    25c0:	30 91 1c 04 	lds	r19, 0x041C
    25c4:	28 0f       	add	r18, r24
    25c6:	39 1f       	adc	r19, r25
    25c8:	30 93 40 04 	sts	0x0440, r19
    25cc:	20 93 3f 04 	sts	0x043F, r18
    25d0:	80 91 3f 04 	lds	r24, 0x043F
    25d4:	90 91 40 04 	lds	r25, 0x0440
    25d8:	88 5e       	subi	r24, 0xE8	; 232
    25da:	93 40       	sbci	r25, 0x03	; 3
    25dc:	14 f4       	brge	.+4      	; 0x25e2 <STEPPER_clk+0x144>
    25de:	60 e0       	ldi	r22, 0x00	; 0
    25e0:	0b c0       	rjmp	.+22     	; 0x25f8 <STEPPER_clk+0x15a>
    25e2:	80 91 3f 04 	lds	r24, 0x043F
    25e6:	90 91 40 04 	lds	r25, 0x0440
    25ea:	88 5e       	subi	r24, 0xE8	; 232
    25ec:	93 40       	sbci	r25, 0x03	; 3
    25ee:	90 93 40 04 	sts	0x0440, r25
    25f2:	80 93 3f 04 	sts	0x043F, r24
    25f6:	61 e0       	ldi	r22, 0x01	; 1
    25f8:	84 2f       	mov	r24, r20
    25fa:	0e 94 45 13 	call	0x268a	; 0x268a <STEPPER_process_run_mode>
    25fe:	08 95       	ret

00002600 <STEPPER_process_accel>:
    2600:	88 23       	and	r24, r24
    2602:	f1 f0       	breq	.+60     	; 0x2640 <STEPPER_process_accel+0x40>
    2604:	20 91 15 04 	lds	r18, 0x0415
    2608:	30 91 16 04 	lds	r19, 0x0416
    260c:	80 91 19 04 	lds	r24, 0x0419
    2610:	90 91 1a 04 	lds	r25, 0x041A
    2614:	28 1b       	sub	r18, r24
    2616:	39 0b       	sbc	r19, r25
    2618:	12 16       	cp	r1, r18
    261a:	13 06       	cpc	r1, r19
    261c:	34 f4       	brge	.+12     	; 0x262a <STEPPER_process_accel+0x2a>
    261e:	80 91 19 04 	lds	r24, 0x0419
    2622:	90 91 1a 04 	lds	r25, 0x041A
    2626:	01 96       	adiw	r24, 0x01	; 1
    2628:	07 c0       	rjmp	.+14     	; 0x2638 <STEPPER_process_accel+0x38>
    262a:	23 2b       	or	r18, r19
    262c:	49 f0       	breq	.+18     	; 0x2640 <STEPPER_process_accel+0x40>
    262e:	80 91 19 04 	lds	r24, 0x0419
    2632:	90 91 1a 04 	lds	r25, 0x041A
    2636:	01 97       	sbiw	r24, 0x01	; 1
    2638:	90 93 1a 04 	sts	0x041A, r25
    263c:	80 93 19 04 	sts	0x0419, r24
    2640:	66 23       	and	r22, r22
    2642:	11 f1       	breq	.+68     	; 0x2688 <STEPPER_process_accel+0x88>
    2644:	20 91 17 04 	lds	r18, 0x0417
    2648:	30 91 18 04 	lds	r19, 0x0418
    264c:	80 91 1b 04 	lds	r24, 0x041B
    2650:	90 91 1c 04 	lds	r25, 0x041C
    2654:	28 1b       	sub	r18, r24
    2656:	39 0b       	sbc	r19, r25
    2658:	12 16       	cp	r1, r18
    265a:	13 06       	cpc	r1, r19
    265c:	54 f4       	brge	.+20     	; 0x2672 <STEPPER_process_accel+0x72>
    265e:	80 91 1b 04 	lds	r24, 0x041B
    2662:	90 91 1c 04 	lds	r25, 0x041C
    2666:	01 96       	adiw	r24, 0x01	; 1
    2668:	90 93 1c 04 	sts	0x041C, r25
    266c:	80 93 1b 04 	sts	0x041B, r24
    2670:	08 95       	ret
    2672:	23 2b       	or	r18, r19
    2674:	49 f0       	breq	.+18     	; 0x2688 <STEPPER_process_accel+0x88>
    2676:	80 91 1b 04 	lds	r24, 0x041B
    267a:	90 91 1c 04 	lds	r25, 0x041C
    267e:	01 97       	sbiw	r24, 0x01	; 1
    2680:	90 93 1c 04 	sts	0x041C, r25
    2684:	80 93 1b 04 	sts	0x041B, r24
    2688:	08 95       	ret

0000268a <STEPPER_process_run_mode>:
    268a:	0f 93       	push	r16
    268c:	1f 93       	push	r17
    268e:	18 2f       	mov	r17, r24
    2690:	06 2f       	mov	r16, r22
    2692:	80 91 49 04 	lds	r24, 0x0449
    2696:	88 23       	and	r24, r24
    2698:	09 f0       	breq	.+2      	; 0x269c <STEPPER_process_run_mode+0x12>
    269a:	e7 c0       	rjmp	.+462    	; 0x286a <STEPPER_process_run_mode+0x1e0>
    269c:	80 91 31 04 	lds	r24, 0x0431
    26a0:	88 23       	and	r24, r24
    26a2:	09 f0       	breq	.+2      	; 0x26a6 <STEPPER_process_run_mode+0x1c>
    26a4:	5a c0       	rjmp	.+180    	; 0x275a <STEPPER_process_run_mode+0xd0>
    26a6:	80 91 19 04 	lds	r24, 0x0419
    26aa:	90 91 1a 04 	lds	r25, 0x041A
    26ae:	89 2b       	or	r24, r25
    26b0:	e9 f4       	brne	.+58     	; 0x26ec <STEPPER_process_run_mode+0x62>
    26b2:	80 91 0e 04 	lds	r24, 0x040E
    26b6:	83 7e       	andi	r24, 0xE3	; 227
    26b8:	80 93 0e 04 	sts	0x040E, r24
    26bc:	10 92 3a 04 	sts	0x043A, r1
    26c0:	80 91 45 04 	lds	r24, 0x0445
    26c4:	88 23       	and	r24, r24
    26c6:	09 f4       	brne	.+2      	; 0x26ca <STEPPER_process_run_mode+0x40>
    26c8:	5d c0       	rjmp	.+186    	; 0x2784 <STEPPER_process_run_mode+0xfa>
    26ca:	60 91 33 04 	lds	r22, 0x0433
    26ce:	80 e0       	ldi	r24, 0x00	; 0
    26d0:	0e 94 0b 09 	call	0x1216	; 0x1216 <STEPPER_stop>
    26d4:	e0 91 47 04 	lds	r30, 0x0447
    26d8:	f0 91 48 04 	lds	r31, 0x0448
    26dc:	30 97       	sbiw	r30, 0x00	; 0
    26de:	09 f4       	brne	.+2      	; 0x26e2 <STEPPER_process_run_mode+0x58>
    26e0:	51 c0       	rjmp	.+162    	; 0x2784 <STEPPER_process_run_mode+0xfa>
    26e2:	81 e0       	ldi	r24, 0x01	; 1
    26e4:	80 83       	st	Z, r24
    26e6:	10 92 45 04 	sts	0x0445, r1
    26ea:	4c c0       	rjmp	.+152    	; 0x2784 <STEPPER_process_run_mode+0xfa>
    26ec:	80 91 13 04 	lds	r24, 0x0413
    26f0:	81 30       	cpi	r24, 0x01	; 1
    26f2:	41 f4       	brne	.+16     	; 0x2704 <STEPPER_process_run_mode+0x7a>
    26f4:	80 91 25 04 	lds	r24, 0x0425
    26f8:	90 91 26 04 	lds	r25, 0x0426
    26fc:	01 97       	sbiw	r24, 0x01	; 1
    26fe:	11 f4       	brne	.+4      	; 0x2704 <STEPPER_process_run_mode+0x7a>
    2700:	11 e0       	ldi	r17, 0x01	; 1
    2702:	02 c0       	rjmp	.+4      	; 0x2708 <STEPPER_process_run_mode+0x7e>
    2704:	11 23       	and	r17, r17
    2706:	f1 f1       	breq	.+124    	; 0x2784 <STEPPER_process_run_mode+0xfa>
    2708:	e0 91 38 04 	lds	r30, 0x0438
    270c:	f0 e0       	ldi	r31, 0x00	; 0
    270e:	ef 5f       	subi	r30, 0xFF	; 255
    2710:	fe 4f       	sbci	r31, 0xFE	; 254
    2712:	90 91 0e 04 	lds	r25, 0x040E
    2716:	93 7e       	andi	r25, 0xE3	; 227
    2718:	80 81       	ld	r24, Z
    271a:	89 2b       	or	r24, r25
    271c:	80 93 0e 04 	sts	0x040E, r24
    2720:	80 91 36 04 	lds	r24, 0x0436
    2724:	88 23       	and	r24, r24
    2726:	21 f4       	brne	.+8      	; 0x2730 <STEPPER_process_run_mode+0xa6>
    2728:	80 91 38 04 	lds	r24, 0x0438
    272c:	8f 5f       	subi	r24, 0xFF	; 255
    272e:	03 c0       	rjmp	.+6      	; 0x2736 <STEPPER_process_run_mode+0xac>
    2730:	80 91 38 04 	lds	r24, 0x0438
    2734:	81 50       	subi	r24, 0x01	; 1
    2736:	80 93 38 04 	sts	0x0438, r24
    273a:	80 91 38 04 	lds	r24, 0x0438
    273e:	83 70       	andi	r24, 0x03	; 3
    2740:	80 93 38 04 	sts	0x0438, r24
    2744:	81 e0       	ldi	r24, 0x01	; 1
    2746:	80 93 3a 04 	sts	0x043A, r24
    274a:	80 91 13 04 	lds	r24, 0x0413
    274e:	81 30       	cpi	r24, 0x01	; 1
    2750:	c9 f4       	brne	.+50     	; 0x2784 <STEPPER_process_run_mode+0xfa>
    2752:	80 e0       	ldi	r24, 0x00	; 0
    2754:	0e 94 48 14 	call	0x2890	; 0x2890 <STEPPER_process_step_mode>
    2758:	15 c0       	rjmp	.+42     	; 0x2784 <STEPPER_process_run_mode+0xfa>
    275a:	90 91 0e 04 	lds	r25, 0x040E
    275e:	93 7e       	andi	r25, 0xE3	; 227
    2760:	90 93 0e 04 	sts	0x040E, r25
    2764:	e0 91 38 04 	lds	r30, 0x0438
    2768:	f0 e0       	ldi	r31, 0x00	; 0
    276a:	ef 5f       	subi	r30, 0xFF	; 255
    276c:	fe 4f       	sbci	r31, 0xFE	; 254
    276e:	80 81       	ld	r24, Z
    2770:	89 2b       	or	r24, r25
    2772:	80 93 0e 04 	sts	0x040E, r24
    2776:	82 e0       	ldi	r24, 0x02	; 2
    2778:	80 93 3a 04 	sts	0x043A, r24
    277c:	10 92 1a 04 	sts	0x041A, r1
    2780:	10 92 19 04 	sts	0x0419, r1
    2784:	80 91 32 04 	lds	r24, 0x0432
    2788:	88 23       	and	r24, r24
    278a:	09 f0       	breq	.+2      	; 0x278e <STEPPER_process_run_mode+0x104>
    278c:	59 c0       	rjmp	.+178    	; 0x2840 <STEPPER_process_run_mode+0x1b6>
    278e:	80 91 1b 04 	lds	r24, 0x041B
    2792:	90 91 1c 04 	lds	r25, 0x041C
    2796:	89 2b       	or	r24, r25
    2798:	e9 f4       	brne	.+58     	; 0x27d4 <STEPPER_process_run_mode+0x14a>
    279a:	80 91 0e 04 	lds	r24, 0x040E
    279e:	8f 71       	andi	r24, 0x1F	; 31
    27a0:	80 93 0e 04 	sts	0x040E, r24
    27a4:	10 92 3b 04 	sts	0x043B, r1
    27a8:	80 91 46 04 	lds	r24, 0x0446
    27ac:	88 23       	and	r24, r24
    27ae:	09 f4       	brne	.+2      	; 0x27b2 <STEPPER_process_run_mode+0x128>
    27b0:	5c c0       	rjmp	.+184    	; 0x286a <STEPPER_process_run_mode+0x1e0>
    27b2:	60 91 34 04 	lds	r22, 0x0434
    27b6:	81 e0       	ldi	r24, 0x01	; 1
    27b8:	0e 94 0b 09 	call	0x1216	; 0x1216 <STEPPER_stop>
    27bc:	e0 91 47 04 	lds	r30, 0x0447
    27c0:	f0 91 48 04 	lds	r31, 0x0448
    27c4:	30 97       	sbiw	r30, 0x00	; 0
    27c6:	09 f4       	brne	.+2      	; 0x27ca <STEPPER_process_run_mode+0x140>
    27c8:	50 c0       	rjmp	.+160    	; 0x286a <STEPPER_process_run_mode+0x1e0>
    27ca:	81 e0       	ldi	r24, 0x01	; 1
    27cc:	81 83       	std	Z+1, r24	; 0x01
    27ce:	10 92 46 04 	sts	0x0446, r1
    27d2:	4b c0       	rjmp	.+150    	; 0x286a <STEPPER_process_run_mode+0x1e0>
    27d4:	80 91 14 04 	lds	r24, 0x0414
    27d8:	81 30       	cpi	r24, 0x01	; 1
    27da:	41 f4       	brne	.+16     	; 0x27ec <STEPPER_process_run_mode+0x162>
    27dc:	80 91 27 04 	lds	r24, 0x0427
    27e0:	90 91 28 04 	lds	r25, 0x0428
    27e4:	01 97       	sbiw	r24, 0x01	; 1
    27e6:	11 f4       	brne	.+4      	; 0x27ec <STEPPER_process_run_mode+0x162>
    27e8:	01 e0       	ldi	r16, 0x01	; 1
    27ea:	02 c0       	rjmp	.+4      	; 0x27f0 <STEPPER_process_run_mode+0x166>
    27ec:	00 23       	and	r16, r16
    27ee:	e9 f1       	breq	.+122    	; 0x286a <STEPPER_process_run_mode+0x1e0>
    27f0:	e0 91 39 04 	lds	r30, 0x0439
    27f4:	f0 e0       	ldi	r31, 0x00	; 0
    27f6:	eb 5f       	subi	r30, 0xFB	; 251
    27f8:	fe 4f       	sbci	r31, 0xFE	; 254
    27fa:	90 91 0e 04 	lds	r25, 0x040E
    27fe:	9f 71       	andi	r25, 0x1F	; 31
    2800:	80 81       	ld	r24, Z
    2802:	89 2b       	or	r24, r25
    2804:	80 93 0e 04 	sts	0x040E, r24
    2808:	80 91 37 04 	lds	r24, 0x0437
    280c:	88 23       	and	r24, r24
    280e:	21 f4       	brne	.+8      	; 0x2818 <STEPPER_process_run_mode+0x18e>
    2810:	80 91 39 04 	lds	r24, 0x0439
    2814:	8f 5f       	subi	r24, 0xFF	; 255
    2816:	03 c0       	rjmp	.+6      	; 0x281e <STEPPER_process_run_mode+0x194>
    2818:	80 91 39 04 	lds	r24, 0x0439
    281c:	81 50       	subi	r24, 0x01	; 1
    281e:	80 93 39 04 	sts	0x0439, r24
    2822:	80 91 39 04 	lds	r24, 0x0439
    2826:	83 70       	andi	r24, 0x03	; 3
    2828:	80 93 39 04 	sts	0x0439, r24
    282c:	81 e0       	ldi	r24, 0x01	; 1
    282e:	80 93 3b 04 	sts	0x043B, r24
    2832:	80 91 14 04 	lds	r24, 0x0414
    2836:	81 30       	cpi	r24, 0x01	; 1
    2838:	c1 f4       	brne	.+48     	; 0x286a <STEPPER_process_run_mode+0x1e0>
    283a:	0e 94 48 14 	call	0x2890	; 0x2890 <STEPPER_process_step_mode>
    283e:	15 c0       	rjmp	.+42     	; 0x286a <STEPPER_process_run_mode+0x1e0>
    2840:	90 91 0e 04 	lds	r25, 0x040E
    2844:	9f 71       	andi	r25, 0x1F	; 31
    2846:	90 93 0e 04 	sts	0x040E, r25
    284a:	e0 91 39 04 	lds	r30, 0x0439
    284e:	f0 e0       	ldi	r31, 0x00	; 0
    2850:	eb 5f       	subi	r30, 0xFB	; 251
    2852:	fe 4f       	sbci	r31, 0xFE	; 254
    2854:	80 81       	ld	r24, Z
    2856:	89 2b       	or	r24, r25
    2858:	80 93 0e 04 	sts	0x040E, r24
    285c:	82 e0       	ldi	r24, 0x02	; 2
    285e:	80 93 3b 04 	sts	0x043B, r24
    2862:	10 92 1c 04 	sts	0x041C, r1
    2866:	10 92 1b 04 	sts	0x041B, r1
    286a:	80 91 3c 04 	lds	r24, 0x043C
    286e:	88 23       	and	r24, r24
    2870:	31 f4       	brne	.+12     	; 0x287e <STEPPER_process_run_mode+0x1f4>
    2872:	8e e0       	ldi	r24, 0x0E	; 14
    2874:	94 e0       	ldi	r25, 0x04	; 4
    2876:	61 2f       	mov	r22, r17
    2878:	40 2f       	mov	r20, r16
    287a:	0e 94 0a 15 	call	0x2a14	; 0x2a14 <STEPPER_process_pwm>
    287e:	88 b1       	in	r24, 0x08	; 8
    2880:	83 70       	andi	r24, 0x03	; 3
    2882:	90 91 0e 04 	lds	r25, 0x040E
    2886:	89 2b       	or	r24, r25
    2888:	88 b9       	out	0x08, r24	; 8
    288a:	1f 91       	pop	r17
    288c:	0f 91       	pop	r16
    288e:	08 95       	ret

00002890 <STEPPER_process_step_mode>:
    2890:	88 23       	and	r24, r24
    2892:	21 f0       	breq	.+8      	; 0x289c <STEPPER_process_step_mode+0xc>
    2894:	81 30       	cpi	r24, 0x01	; 1
    2896:	09 f0       	breq	.+2      	; 0x289a <STEPPER_process_step_mode+0xa>
    2898:	4e c0       	rjmp	.+156    	; 0x2936 <STEPPER_process_step_mode+0xa6>
    289a:	27 c0       	rjmp	.+78     	; 0x28ea <STEPPER_process_step_mode+0x5a>
    289c:	80 91 25 04 	lds	r24, 0x0425
    28a0:	90 91 26 04 	lds	r25, 0x0426
    28a4:	89 2b       	or	r24, r25
    28a6:	49 f0       	breq	.+18     	; 0x28ba <STEPPER_process_step_mode+0x2a>
    28a8:	80 91 25 04 	lds	r24, 0x0425
    28ac:	90 91 26 04 	lds	r25, 0x0426
    28b0:	01 97       	sbiw	r24, 0x01	; 1
    28b2:	90 93 26 04 	sts	0x0426, r25
    28b6:	80 93 25 04 	sts	0x0425, r24
    28ba:	80 91 45 04 	lds	r24, 0x0445
    28be:	88 23       	and	r24, r24
    28c0:	d1 f5       	brne	.+116    	; 0x2936 <STEPPER_process_step_mode+0xa6>
    28c2:	20 91 25 04 	lds	r18, 0x0425
    28c6:	30 91 26 04 	lds	r19, 0x0426
    28ca:	80 91 29 04 	lds	r24, 0x0429
    28ce:	90 91 2a 04 	lds	r25, 0x042A
    28d2:	28 17       	cp	r18, r24
    28d4:	39 07       	cpc	r19, r25
    28d6:	79 f5       	brne	.+94     	; 0x2936 <STEPPER_process_step_mode+0xa6>
    28d8:	80 e0       	ldi	r24, 0x00	; 0
    28da:	60 e0       	ldi	r22, 0x00	; 0
    28dc:	70 e0       	ldi	r23, 0x00	; 0
    28de:	0e 94 5d 08 	call	0x10ba	; 0x10ba <STEPPER_set_speed>
    28e2:	81 e0       	ldi	r24, 0x01	; 1
    28e4:	80 93 45 04 	sts	0x0445, r24
    28e8:	08 95       	ret
    28ea:	80 91 27 04 	lds	r24, 0x0427
    28ee:	90 91 28 04 	lds	r25, 0x0428
    28f2:	89 2b       	or	r24, r25
    28f4:	49 f0       	breq	.+18     	; 0x2908 <STEPPER_process_step_mode+0x78>
    28f6:	80 91 27 04 	lds	r24, 0x0427
    28fa:	90 91 28 04 	lds	r25, 0x0428
    28fe:	01 97       	sbiw	r24, 0x01	; 1
    2900:	90 93 28 04 	sts	0x0428, r25
    2904:	80 93 27 04 	sts	0x0427, r24
    2908:	80 91 46 04 	lds	r24, 0x0446
    290c:	88 23       	and	r24, r24
    290e:	99 f4       	brne	.+38     	; 0x2936 <STEPPER_process_step_mode+0xa6>
    2910:	20 91 27 04 	lds	r18, 0x0427
    2914:	30 91 28 04 	lds	r19, 0x0428
    2918:	80 91 2b 04 	lds	r24, 0x042B
    291c:	90 91 2c 04 	lds	r25, 0x042C
    2920:	28 17       	cp	r18, r24
    2922:	39 07       	cpc	r19, r25
    2924:	41 f4       	brne	.+16     	; 0x2936 <STEPPER_process_step_mode+0xa6>
    2926:	81 e0       	ldi	r24, 0x01	; 1
    2928:	60 e0       	ldi	r22, 0x00	; 0
    292a:	70 e0       	ldi	r23, 0x00	; 0
    292c:	0e 94 5d 08 	call	0x10ba	; 0x10ba <STEPPER_set_speed>
    2930:	81 e0       	ldi	r24, 0x01	; 1
    2932:	80 93 46 04 	sts	0x0446, r24
    2936:	08 95       	ret

00002938 <TMRSRVC_process>:
    2938:	ff 92       	push	r15
    293a:	0f 93       	push	r16
    293c:	1f 93       	push	r17
    293e:	cf 93       	push	r28
    2940:	df 93       	push	r29
    2942:	80 91 83 04 	lds	r24, 0x0483
    2946:	88 23       	and	r24, r24
    2948:	09 f4       	brne	.+2      	; 0x294c <TMRSRVC_process+0x14>
    294a:	59 c0       	rjmp	.+178    	; 0x29fe <TMRSRVC_process+0xc6>
    294c:	00 91 84 04 	lds	r16, 0x0484
    2950:	10 91 85 04 	lds	r17, 0x0485
    2954:	f8 01       	movw	r30, r16
    2956:	c0 81       	ld	r28, Z
    2958:	d1 81       	ldd	r29, Z+1	; 0x01
    295a:	8c 81       	ldd	r24, Y+4	; 0x04
    295c:	9d 81       	ldd	r25, Y+5	; 0x05
    295e:	01 97       	sbiw	r24, 0x01	; 1
    2960:	9d 83       	std	Y+5, r25	; 0x05
    2962:	8c 83       	std	Y+4, r24	; 0x04
    2964:	18 16       	cp	r1, r24
    2966:	19 06       	cpc	r1, r25
    2968:	0c f4       	brge	.+2      	; 0x296c <TMRSRVC_process+0x34>
    296a:	49 c0       	rjmp	.+146    	; 0x29fe <TMRSRVC_process+0xc6>
    296c:	89 81       	ldd	r24, Y+1	; 0x01
    296e:	80 ff       	sbrs	r24, 0
    2970:	05 c0       	rjmp	.+10     	; 0x297c <TMRSRVC_process+0x44>
    2972:	8e 81       	ldd	r24, Y+6	; 0x06
    2974:	88 23       	and	r24, r24
    2976:	11 f4       	brne	.+4      	; 0x297c <TMRSRVC_process+0x44>
    2978:	81 e0       	ldi	r24, 0x01	; 1
    297a:	8e 83       	std	Y+6, r24	; 0x06
    297c:	89 81       	ldd	r24, Y+1	; 0x01
    297e:	81 ff       	sbrs	r24, 1
    2980:	03 c0       	rjmp	.+6      	; 0x2988 <TMRSRVC_process+0x50>
    2982:	ef 81       	ldd	r30, Y+7	; 0x07
    2984:	f8 85       	ldd	r31, Y+8	; 0x08
    2986:	09 95       	icall
    2988:	80 91 83 04 	lds	r24, 0x0483
    298c:	82 30       	cpi	r24, 0x02	; 2
    298e:	a8 f0       	brcs	.+42     	; 0x29ba <TMRSRVC_process+0x82>
    2990:	f8 01       	movw	r30, r16
    2992:	82 81       	ldd	r24, Z+2	; 0x02
    2994:	93 81       	ldd	r25, Z+3	; 0x03
    2996:	90 93 85 04 	sts	0x0485, r25
    299a:	80 93 84 04 	sts	0x0484, r24
    299e:	13 82       	std	Z+3, r1	; 0x03
    29a0:	12 82       	std	Z+2, r1	; 0x02
    29a2:	e0 91 00 00 	lds	r30, 0x0000
    29a6:	f0 91 01 00 	lds	r31, 0x0001
    29aa:	84 81       	ldd	r24, Z+4	; 0x04
    29ac:	95 81       	ldd	r25, Z+5	; 0x05
    29ae:	18 16       	cp	r1, r24
    29b0:	19 06       	cpc	r1, r25
    29b2:	3c f0       	brlt	.+14     	; 0x29c2 <TMRSRVC_process+0x8a>
    29b4:	ff 24       	eor	r15, r15
    29b6:	f3 94       	inc	r15
    29b8:	05 c0       	rjmp	.+10     	; 0x29c4 <TMRSRVC_process+0x8c>
    29ba:	10 92 85 04 	sts	0x0485, r1
    29be:	10 92 84 04 	sts	0x0484, r1
    29c2:	ff 24       	eor	r15, r15
    29c4:	80 91 83 04 	lds	r24, 0x0483
    29c8:	81 50       	subi	r24, 0x01	; 1
    29ca:	80 93 83 04 	sts	0x0483, r24
    29ce:	80 91 83 04 	lds	r24, 0x0483
    29d2:	88 23       	and	r24, r24
    29d4:	11 f4       	brne	.+4      	; 0x29da <TMRSRVC_process+0xa2>
    29d6:	0e 94 07 15 	call	0x2a0e	; 0x2a0e <TMRSRVC_stop>
    29da:	89 81       	ldd	r24, Y+1	; 0x01
    29dc:	82 ff       	sbrs	r24, 2
    29de:	08 c0       	rjmp	.+16     	; 0x29f0 <TMRSRVC_process+0xb8>
    29e0:	8a 81       	ldd	r24, Y+2	; 0x02
    29e2:	9b 81       	ldd	r25, Y+3	; 0x03
    29e4:	9d 83       	std	Y+5, r25	; 0x05
    29e6:	8c 83       	std	Y+4, r24	; 0x04
    29e8:	c8 01       	movw	r24, r16
    29ea:	0e 94 8e 10 	call	0x211c	; 0x211c <TMRSRVC_insert>
    29ee:	08 c0       	rjmp	.+16     	; 0x2a00 <TMRSRVC_process+0xc8>
    29f0:	c8 01       	movw	r24, r16
    29f2:	0e 94 b0 32 	call	0x6560	; 0x6560 <free>
    29f6:	89 81       	ldd	r24, Y+1	; 0x01
    29f8:	8f 7e       	andi	r24, 0xEF	; 239
    29fa:	89 83       	std	Y+1, r24	; 0x01
    29fc:	01 c0       	rjmp	.+2      	; 0x2a00 <TMRSRVC_process+0xc8>
    29fe:	ff 24       	eor	r15, r15
    2a00:	8f 2d       	mov	r24, r15
    2a02:	df 91       	pop	r29
    2a04:	cf 91       	pop	r28
    2a06:	1f 91       	pop	r17
    2a08:	0f 91       	pop	r16
    2a0a:	ff 90       	pop	r15
    2a0c:	08 95       	ret

00002a0e <TMRSRVC_stop>:
    2a0e:	10 92 0d 04 	sts	0x040D, r1
    2a12:	08 95       	ret

00002a14 <STEPPER_process_pwm>:
    2a14:	fc 01       	movw	r30, r24
    2a16:	80 91 3a 04 	lds	r24, 0x043A
    2a1a:	82 30       	cpi	r24, 0x02	; 2
    2a1c:	69 f4       	brne	.+26     	; 0x2a38 <STEPPER_process_pwm+0x24>
    2a1e:	80 91 12 04 	lds	r24, 0x0412
    2a22:	91 e0       	ldi	r25, 0x01	; 1
    2a24:	89 27       	eor	r24, r25
    2a26:	80 93 12 04 	sts	0x0412, r24
    2a2a:	88 23       	and	r24, r24
    2a2c:	09 f0       	breq	.+2      	; 0x2a30 <STEPPER_process_pwm+0x1c>
    2a2e:	3e c0       	rjmp	.+124    	; 0x2aac <STEPPER_process_pwm+0x98>
    2a30:	80 81       	ld	r24, Z
    2a32:	83 7e       	andi	r24, 0xE3	; 227
    2a34:	80 83       	st	Z, r24
    2a36:	3a c0       	rjmp	.+116    	; 0x2aac <STEPPER_process_pwm+0x98>
    2a38:	80 91 19 04 	lds	r24, 0x0419
    2a3c:	90 91 1a 04 	lds	r25, 0x041A
    2a40:	c3 97       	sbiw	r24, 0x33	; 51
    2a42:	a4 f5       	brge	.+104    	; 0x2aac <STEPPER_process_pwm+0x98>
    2a44:	66 23       	and	r22, r22
    2a46:	d1 f0       	breq	.+52     	; 0x2a7c <STEPPER_process_pwm+0x68>
    2a48:	20 91 19 04 	lds	r18, 0x0419
    2a4c:	30 91 1a 04 	lds	r19, 0x041A
    2a50:	80 e6       	ldi	r24, 0x60	; 96
    2a52:	90 e0       	ldi	r25, 0x00	; 0
    2a54:	bc 01       	movw	r22, r24
    2a56:	26 9f       	mul	r18, r22
    2a58:	c0 01       	movw	r24, r0
    2a5a:	27 9f       	mul	r18, r23
    2a5c:	90 0d       	add	r25, r0
    2a5e:	36 9f       	mul	r19, r22
    2a60:	90 0d       	add	r25, r0
    2a62:	11 24       	eor	r1, r1
    2a64:	88 0f       	add	r24, r24
    2a66:	89 2f       	mov	r24, r25
    2a68:	88 1f       	adc	r24, r24
    2a6a:	99 0b       	sbc	r25, r25
    2a6c:	90 93 2e 04 	sts	0x042E, r25
    2a70:	80 93 2d 04 	sts	0x042D, r24
    2a74:	81 e0       	ldi	r24, 0x01	; 1
    2a76:	80 93 10 04 	sts	0x0410, r24
    2a7a:	18 c0       	rjmp	.+48     	; 0x2aac <STEPPER_process_pwm+0x98>
    2a7c:	80 91 10 04 	lds	r24, 0x0410
    2a80:	88 23       	and	r24, r24
    2a82:	a1 f0       	breq	.+40     	; 0x2aac <STEPPER_process_pwm+0x98>
    2a84:	80 91 2d 04 	lds	r24, 0x042D
    2a88:	90 91 2e 04 	lds	r25, 0x042E
    2a8c:	01 97       	sbiw	r24, 0x01	; 1
    2a8e:	90 93 2e 04 	sts	0x042E, r25
    2a92:	80 93 2d 04 	sts	0x042D, r24
    2a96:	80 91 2d 04 	lds	r24, 0x042D
    2a9a:	90 91 2e 04 	lds	r25, 0x042E
    2a9e:	89 2b       	or	r24, r25
    2aa0:	29 f4       	brne	.+10     	; 0x2aac <STEPPER_process_pwm+0x98>
    2aa2:	80 81       	ld	r24, Z
    2aa4:	83 7e       	andi	r24, 0xE3	; 227
    2aa6:	80 83       	st	Z, r24
    2aa8:	10 92 10 04 	sts	0x0410, r1
    2aac:	80 91 3b 04 	lds	r24, 0x043B
    2ab0:	82 30       	cpi	r24, 0x02	; 2
    2ab2:	69 f4       	brne	.+26     	; 0x2ace <STEPPER_process_pwm+0xba>
    2ab4:	80 91 11 04 	lds	r24, 0x0411
    2ab8:	91 e0       	ldi	r25, 0x01	; 1
    2aba:	89 27       	eor	r24, r25
    2abc:	80 93 11 04 	sts	0x0411, r24
    2ac0:	88 23       	and	r24, r24
    2ac2:	09 f0       	breq	.+2      	; 0x2ac6 <STEPPER_process_pwm+0xb2>
    2ac4:	3e c0       	rjmp	.+124    	; 0x2b42 <STEPPER_process_pwm+0x12e>
    2ac6:	80 81       	ld	r24, Z
    2ac8:	8f 71       	andi	r24, 0x1F	; 31
    2aca:	80 83       	st	Z, r24
    2acc:	08 95       	ret
    2ace:	80 91 1b 04 	lds	r24, 0x041B
    2ad2:	90 91 1c 04 	lds	r25, 0x041C
    2ad6:	c3 97       	sbiw	r24, 0x33	; 51
    2ad8:	a4 f5       	brge	.+104    	; 0x2b42 <STEPPER_process_pwm+0x12e>
    2ada:	44 23       	and	r20, r20
    2adc:	d1 f0       	breq	.+52     	; 0x2b12 <STEPPER_process_pwm+0xfe>
    2ade:	20 91 1b 04 	lds	r18, 0x041B
    2ae2:	30 91 1c 04 	lds	r19, 0x041C
    2ae6:	80 e6       	ldi	r24, 0x60	; 96
    2ae8:	90 e0       	ldi	r25, 0x00	; 0
    2aea:	ac 01       	movw	r20, r24
    2aec:	24 9f       	mul	r18, r20
    2aee:	c0 01       	movw	r24, r0
    2af0:	25 9f       	mul	r18, r21
    2af2:	90 0d       	add	r25, r0
    2af4:	34 9f       	mul	r19, r20
    2af6:	90 0d       	add	r25, r0
    2af8:	11 24       	eor	r1, r1
    2afa:	88 0f       	add	r24, r24
    2afc:	89 2f       	mov	r24, r25
    2afe:	88 1f       	adc	r24, r24
    2b00:	99 0b       	sbc	r25, r25
    2b02:	90 93 30 04 	sts	0x0430, r25
    2b06:	80 93 2f 04 	sts	0x042F, r24
    2b0a:	81 e0       	ldi	r24, 0x01	; 1
    2b0c:	80 93 0f 04 	sts	0x040F, r24
    2b10:	08 95       	ret
    2b12:	80 91 0f 04 	lds	r24, 0x040F
    2b16:	88 23       	and	r24, r24
    2b18:	a1 f0       	breq	.+40     	; 0x2b42 <STEPPER_process_pwm+0x12e>
    2b1a:	80 91 2f 04 	lds	r24, 0x042F
    2b1e:	90 91 30 04 	lds	r25, 0x0430
    2b22:	01 97       	sbiw	r24, 0x01	; 1
    2b24:	90 93 30 04 	sts	0x0430, r25
    2b28:	80 93 2f 04 	sts	0x042F, r24
    2b2c:	80 91 2f 04 	lds	r24, 0x042F
    2b30:	90 91 30 04 	lds	r25, 0x0430
    2b34:	89 2b       	or	r24, r25
    2b36:	29 f4       	brne	.+10     	; 0x2b42 <STEPPER_process_pwm+0x12e>
    2b38:	80 81       	ld	r24, Z
    2b3a:	8f 71       	andi	r24, 0x1F	; 31
    2b3c:	80 83       	st	Z, r24
    2b3e:	10 92 0f 04 	sts	0x040F, r1
    2b42:	08 95       	ret

00002b44 <pseudo_Stepper_Step>:
void pseudo_Stepper_Step(float Right_Wheel_Speed, float Left_Wheel_Speed, float Duration){
    2b44:	4f 92       	push	r4
    2b46:	5f 92       	push	r5
    2b48:	6f 92       	push	r6
    2b4a:	7f 92       	push	r7
    2b4c:	8f 92       	push	r8
    2b4e:	9f 92       	push	r9
    2b50:	af 92       	push	r10
    2b52:	bf 92       	push	r11
    2b54:	cf 92       	push	r12
    2b56:	df 92       	push	r13
    2b58:	ef 92       	push	r14
    2b5a:	ff 92       	push	r15
    2b5c:	0f 93       	push	r16
    2b5e:	1f 93       	push	r17
    2b60:	cf 93       	push	r28
    2b62:	df 93       	push	r29
    2b64:	00 d0       	rcall	.+0      	; 0x2b66 <pseudo_Stepper_Step+0x22>
    2b66:	00 d0       	rcall	.+0      	; 0x2b68 <pseudo_Stepper_Step+0x24>
    2b68:	cd b7       	in	r28, 0x3d	; 61
    2b6a:	de b7       	in	r29, 0x3e	; 62
    2b6c:	4b 01       	movw	r8, r22
    2b6e:	5c 01       	movw	r10, r24
    2b70:	29 01       	movw	r4, r18
    2b72:	3a 01       	movw	r6, r20
    2b74:	67 01       	movw	r12, r14
    2b76:	78 01       	movw	r14, r16
	STEPPER_open();
    2b78:	0e 94 a3 07 	call	0xf46	; 0xf46 <STEPPER_open>
	STEPPER_move_stwt(STEPPER_BOTH,
    2b7c:	c3 01       	movw	r24, r6
    2b7e:	b2 01       	movw	r22, r4
    2b80:	0e 94 bb 2a 	call	0x5576	; 0x5576 <__fixunssfsi>
    2b84:	69 83       	std	Y+1, r22	; 0x01
    2b86:	7a 83       	std	Y+2, r23	; 0x02
    2b88:	8b 83       	std	Y+3, r24	; 0x03
    2b8a:	9c 83       	std	Y+4, r25	; 0x04
    2b8c:	a7 01       	movw	r20, r14
    2b8e:	96 01       	movw	r18, r12
    2b90:	c3 01       	movw	r24, r6
    2b92:	b2 01       	movw	r22, r4
    2b94:	0e 94 02 2c 	call	0x5804	; 0x5804 <__mulsf3>
    2b98:	0e 94 bb 2a 	call	0x5576	; 0x5576 <__fixunssfsi>
    2b9c:	2b 01       	movw	r4, r22
    2b9e:	3c 01       	movw	r6, r24
    2ba0:	1f 92       	push	r1
    2ba2:	1f 92       	push	r1
    2ba4:	1f 92       	push	r1
    2ba6:	81 e0       	ldi	r24, 0x01	; 1
    2ba8:	8f 93       	push	r24
    2baa:	80 e9       	ldi	r24, 0x90	; 144
    2bac:	8f 93       	push	r24
    2bae:	c5 01       	movw	r24, r10
    2bb0:	b4 01       	movw	r22, r8
    2bb2:	0e 94 bb 2a 	call	0x5576	; 0x5576 <__fixunssfsi>
    2bb6:	7f 93       	push	r23
    2bb8:	6f 93       	push	r22
    2bba:	a7 01       	movw	r20, r14
    2bbc:	96 01       	movw	r18, r12
    2bbe:	c5 01       	movw	r24, r10
    2bc0:	b4 01       	movw	r22, r8
    2bc2:	0e 94 02 2c 	call	0x5804	; 0x5804 <__mulsf3>
    2bc6:	0e 94 bb 2a 	call	0x5576	; 0x5576 <__fixunssfsi>
    2bca:	7f 93       	push	r23
    2bcc:	6f 93       	push	r22
    2bce:	81 2c       	mov	r8, r1
    2bd0:	a1 2c       	mov	r10, r1
    2bd2:	b1 2c       	mov	r11, r1
    2bd4:	c1 2c       	mov	r12, r1
    2bd6:	0f 2e       	mov	r0, r31
    2bd8:	f0 e9       	ldi	r31, 0x90	; 144
    2bda:	ef 2e       	mov	r14, r31
    2bdc:	ff 24       	eor	r15, r15
    2bde:	f3 94       	inc	r15
    2be0:	f0 2d       	mov	r31, r0
    2be2:	09 81       	ldd	r16, Y+1	; 0x01
    2be4:	1a 81       	ldd	r17, Y+2	; 0x02
    2be6:	92 01       	movw	r18, r4
    2be8:	40 e0       	ldi	r20, 0x00	; 0
    2bea:	62 e0       	ldi	r22, 0x02	; 2
    2bec:	80 e0       	ldi	r24, 0x00	; 0
    2bee:	0e 94 fc 06 	call	0xdf8	; 0xdf8 <STEPPER_move>
    2bf2:	0f b6       	in	r0, 0x3f	; 63
    2bf4:	f8 94       	cli
    2bf6:	de bf       	out	0x3e, r29	; 62
    2bf8:	0f be       	out	0x3f, r0	; 63
    2bfa:	cd bf       	out	0x3d, r28	; 61
			STEPPER_FWD, (Left_Wheel_Speed*Duration), Left_Wheel_Speed, 400, STEPPER_BRK_OFF,	//Left wheel
			STEPPER_FWD, (Right_Wheel_Speed*Duration), Right_Wheel_Speed, 400, STEPPER_BRK_OFF);	// Right wheel
}
    2bfc:	0f 90       	pop	r0
    2bfe:	0f 90       	pop	r0
    2c00:	0f 90       	pop	r0
    2c02:	0f 90       	pop	r0
    2c04:	df 91       	pop	r29
    2c06:	cf 91       	pop	r28
    2c08:	1f 91       	pop	r17
    2c0a:	0f 91       	pop	r16
    2c0c:	ff 90       	pop	r15
    2c0e:	ef 90       	pop	r14
    2c10:	df 90       	pop	r13
    2c12:	cf 90       	pop	r12
    2c14:	bf 90       	pop	r11
    2c16:	af 90       	pop	r10
    2c18:	9f 90       	pop	r9
    2c1a:	8f 90       	pop	r8
    2c1c:	7f 90       	pop	r7
    2c1e:	6f 90       	pop	r6
    2c20:	5f 90       	pop	r5
    2c22:	4f 90       	pop	r4
    2c24:	08 95       	ret

00002c26 <Tar_vs_Cur_Angle>:

float Tar_vs_Cur_Angle(int Tar_X, int Tar_Y, int X, int Y){
    2c26:	cf 92       	push	r12
    2c28:	df 92       	push	r13
    2c2a:	ef 92       	push	r14
    2c2c:	ff 92       	push	r15
    2c2e:	0f 93       	push	r16
    2c30:	1f 93       	push	r17
    2c32:	cf 93       	push	r28
    2c34:	df 93       	push	r29
    2c36:	8b 01       	movw	r16, r22
    2c38:	e9 01       	movw	r28, r18
	int deltaX, deltaY, Angle;
	deltaX = X - Tar_X;
    2c3a:	ba 01       	movw	r22, r20
    2c3c:	68 1b       	sub	r22, r24
    2c3e:	79 0b       	sbc	r23, r25
	deltaY = Y - Tar_Y;
	Angle = atan2(deltaY,deltaX)*180/M_PI;
    2c40:	88 27       	eor	r24, r24
    2c42:	77 fd       	sbrc	r23, 7
    2c44:	80 95       	com	r24
    2c46:	98 2f       	mov	r25, r24
    2c48:	0e 94 e9 2a 	call	0x55d2	; 0x55d2 <__floatsisf>
    2c4c:	6b 01       	movw	r12, r22
    2c4e:	7c 01       	movw	r14, r24
}

float Tar_vs_Cur_Angle(int Tar_X, int Tar_Y, int X, int Y){
	int deltaX, deltaY, Angle;
	deltaX = X - Tar_X;
	deltaY = Y - Tar_Y;
    2c50:	be 01       	movw	r22, r28
    2c52:	60 1b       	sub	r22, r16
    2c54:	71 0b       	sbc	r23, r17
	Angle = atan2(deltaY,deltaX)*180/M_PI;
    2c56:	88 27       	eor	r24, r24
    2c58:	77 fd       	sbrc	r23, 7
    2c5a:	80 95       	com	r24
    2c5c:	98 2f       	mov	r25, r24
    2c5e:	0e 94 e9 2a 	call	0x55d2	; 0x55d2 <__floatsisf>
    2c62:	a7 01       	movw	r20, r14
    2c64:	96 01       	movw	r18, r12
    2c66:	0e 94 f4 29 	call	0x53e8	; 0x53e8 <atan2>
    2c6a:	20 e0       	ldi	r18, 0x00	; 0
    2c6c:	30 e0       	ldi	r19, 0x00	; 0
    2c6e:	44 e3       	ldi	r20, 0x34	; 52
    2c70:	53 e4       	ldi	r21, 0x43	; 67
    2c72:	0e 94 02 2c 	call	0x5804	; 0x5804 <__mulsf3>
    2c76:	2b ed       	ldi	r18, 0xDB	; 219
    2c78:	3f e0       	ldi	r19, 0x0F	; 15
    2c7a:	49 e4       	ldi	r20, 0x49	; 73
    2c7c:	50 e4       	ldi	r21, 0x40	; 64
    2c7e:	0e 94 4e 2a 	call	0x549c	; 0x549c <__divsf3>
    2c82:	0e 94 b6 2a 	call	0x556c	; 0x556c <__fixsfsi>
	return Angle;
    2c86:	88 27       	eor	r24, r24
    2c88:	77 fd       	sbrc	r23, 7
    2c8a:	80 95       	com	r24
    2c8c:	98 2f       	mov	r25, r24
    2c8e:	0e 94 e9 2a 	call	0x55d2	; 0x55d2 <__floatsisf>
    2c92:	df 91       	pop	r29
    2c94:	cf 91       	pop	r28
    2c96:	1f 91       	pop	r17
    2c98:	0f 91       	pop	r16
    2c9a:	ff 90       	pop	r15
    2c9c:	ef 90       	pop	r14
    2c9e:	df 90       	pop	r13
    2ca0:	cf 90       	pop	r12
    2ca2:	08 95       	ret

00002ca4 <Random_Wanderer>:
// Alexandre van der Ven de Freitas
// Peter Richard Olejnik
// December 18, 2014

// Random wanderer function
void Random_Wanderer(){
    2ca4:	8f 92       	push	r8
    2ca6:	af 92       	push	r10
    2ca8:	bf 92       	push	r11
    2caa:	cf 92       	push	r12
    2cac:	ef 92       	push	r14
    2cae:	ff 92       	push	r15
    2cb0:	0f 93       	push	r16
    2cb2:	1f 93       	push	r17
    2cb4:	cf 93       	push	r28
    2cb6:	df 93       	push	r29
	char RightWheelSpeed;
	char LeftWheelSpeed;
	
	// Randomly select speed of wheels
	RightWheelSpeed = rand() % 201;
    2cb8:	0e 94 8d 33 	call	0x671a	; 0x671a <rand>
    2cbc:	ec 01       	movw	r28, r24
	LeftWheelSpeed = rand() % 201;
    2cbe:	0e 94 8d 33 	call	0x671a	; 0x671a <rand>
    2cc2:	29 ec       	ldi	r18, 0xC9	; 201
    2cc4:	30 e0       	ldi	r19, 0x00	; 0
    2cc6:	b9 01       	movw	r22, r18
    2cc8:	0e 94 7d 31 	call	0x62fa	; 0x62fa <__divmodhi4>
    2ccc:	8c 01       	movw	r16, r24
    2cce:	11 27       	eor	r17, r17

	STEPPER_move_rn(STEPPER_BOTH,
    2cd0:	1f 92       	push	r1
    2cd2:	1f 92       	push	r1
    2cd4:	1f 92       	push	r1
    2cd6:	81 e0       	ldi	r24, 0x01	; 1
    2cd8:	8f 93       	push	r24
    2cda:	80 e9       	ldi	r24, 0x90	; 144
    2cdc:	8f 93       	push	r24
void Random_Wanderer(){
	char RightWheelSpeed;
	char LeftWheelSpeed;
	
	// Randomly select speed of wheels
	RightWheelSpeed = rand() % 201;
    2cde:	ce 01       	movw	r24, r28
    2ce0:	b9 01       	movw	r22, r18
    2ce2:	0e 94 7d 31 	call	0x62fa	; 0x62fa <__divmodhi4>
    2ce6:	99 27       	eor	r25, r25
	LeftWheelSpeed = rand() % 201;

	STEPPER_move_rn(STEPPER_BOTH,
    2ce8:	9f 93       	push	r25
    2cea:	8f 93       	push	r24
    2cec:	1f 92       	push	r1
    2cee:	1f 92       	push	r1
    2cf0:	81 2c       	mov	r8, r1
    2cf2:	a1 2c       	mov	r10, r1
    2cf4:	b1 2c       	mov	r11, r1
    2cf6:	c1 2c       	mov	r12, r1
    2cf8:	0f 2e       	mov	r0, r31
    2cfa:	f0 e9       	ldi	r31, 0x90	; 144
    2cfc:	ef 2e       	mov	r14, r31
    2cfe:	ff 24       	eor	r15, r15
    2d00:	f3 94       	inc	r15
    2d02:	f0 2d       	mov	r31, r0
    2d04:	20 e0       	ldi	r18, 0x00	; 0
    2d06:	30 e0       	ldi	r19, 0x00	; 0
    2d08:	40 e0       	ldi	r20, 0x00	; 0
    2d0a:	62 e0       	ldi	r22, 0x02	; 2
    2d0c:	82 e0       	ldi	r24, 0x02	; 2
    2d0e:	0e 94 fc 06 	call	0xdf8	; 0xdf8 <STEPPER_move>
		STEPPER_FWD, LeftWheelSpeed, 400,	//Left
		STEPPER_FWD, RightWheelSpeed, 400);	//Right
	TMRSRVC_delay(500); // 0.5 Sec duration
    2d12:	84 ef       	ldi	r24, 0xF4	; 244
    2d14:	91 e0       	ldi	r25, 0x01	; 1
    2d16:	0e 94 aa 0a 	call	0x1554	; 0x1554 <TMRSRVC_delay>
    2d1a:	8d b7       	in	r24, 0x3d	; 61
    2d1c:	9e b7       	in	r25, 0x3e	; 62
    2d1e:	09 96       	adiw	r24, 0x09	; 9
    2d20:	0f b6       	in	r0, 0x3f	; 63
    2d22:	f8 94       	cli
    2d24:	9e bf       	out	0x3e, r25	; 62
    2d26:	0f be       	out	0x3f, r0	; 63
    2d28:	8d bf       	out	0x3d, r24	; 61
	}
    2d2a:	df 91       	pop	r29
    2d2c:	cf 91       	pop	r28
    2d2e:	1f 91       	pop	r17
    2d30:	0f 91       	pop	r16
    2d32:	ff 90       	pop	r15
    2d34:	ef 90       	pop	r14
    2d36:	cf 90       	pop	r12
    2d38:	bf 90       	pop	r11
    2d3a:	af 90       	pop	r10
    2d3c:	8f 90       	pop	r8
    2d3e:	08 95       	ret

00002d40 <getLeftIR>:
	//float voltage;//IR range -0.4 to 5.3 V
	float distance;// (cm) 30 cm = 12 inches = 0.4 V
	float dist;//distance in inches
	ADC_SAMPLE adcsample;
	// Set the Voltage Reference first so VREF=5V.
	ADC_set_VREF( ADC_VREF_AVCC );
    2d40:	81 e0       	ldi	r24, 0x01	; 1
    2d42:	0e 94 d8 03 	call	0x7b0	; 0x7b0 <ADC_set_VREF>
	// Set the channel we will sample from.
	ADC_set_channel( IRLEFT_CHAN );
    2d46:	84 e0       	ldi	r24, 0x04	; 4
    2d48:	0e 94 a1 03 	call	0x742	; 0x742 <ADC_set_channel>
	// Now sample it!
	adcsample = ADC_sample();
    2d4c:	0e 94 84 03 	call	0x708	; 0x708 <ADC_sample>
	//LCD_printf( "ADC: %i\n",adcsample);
	// Convert to meaningful voltage value.
	//voltage = adcsample * ( 5.0 / 1024 );
	// Convert to distance in cm
	distance = (2914/(adcsample+5.0))-1.0;
    2d50:	bc 01       	movw	r22, r24
    2d52:	80 e0       	ldi	r24, 0x00	; 0
    2d54:	90 e0       	ldi	r25, 0x00	; 0
    2d56:	0e 94 e7 2a 	call	0x55ce	; 0x55ce <__floatunsisf>
    2d5a:	20 e0       	ldi	r18, 0x00	; 0
    2d5c:	30 e0       	ldi	r19, 0x00	; 0
    2d5e:	40 ea       	ldi	r20, 0xA0	; 160
    2d60:	50 e4       	ldi	r21, 0x40	; 64
    2d62:	0e 94 81 29 	call	0x5302	; 0x5302 <__addsf3>
    2d66:	9b 01       	movw	r18, r22
    2d68:	ac 01       	movw	r20, r24
    2d6a:	60 e0       	ldi	r22, 0x00	; 0
    2d6c:	70 e2       	ldi	r23, 0x20	; 32
    2d6e:	86 e3       	ldi	r24, 0x36	; 54
    2d70:	95 e4       	ldi	r25, 0x45	; 69
    2d72:	0e 94 4e 2a 	call	0x549c	; 0x549c <__divsf3>
    2d76:	20 e0       	ldi	r18, 0x00	; 0
    2d78:	30 e0       	ldi	r19, 0x00	; 0
    2d7a:	40 e8       	ldi	r20, 0x80	; 128
    2d7c:	5f e3       	ldi	r21, 0x3F	; 63
    2d7e:	0e 94 80 29 	call	0x5300	; 0x5300 <__subsf3>
	//Convert distance to inches
	dist = distance*0.3937;
    2d82:	2c e0       	ldi	r18, 0x0C	; 12
    2d84:	33 e9       	ldi	r19, 0x93	; 147
    2d86:	49 ec       	ldi	r20, 0xC9	; 201
    2d88:	5e e3       	ldi	r21, 0x3E	; 62
    2d8a:	0e 94 02 2c 	call	0x5804	; 0x5804 <__mulsf3>
	return dist;
}
    2d8e:	08 95       	ret

00002d90 <getRightIR>:
	//float voltage;//IR range -0.4 to 5.3 V
	float distance;// (cm) 30 cm = 12 inches = 0.4 V
	float dist;//distance in inches
	ADC_SAMPLE adcsample;
	// Set the Voltage Reference first so VREF=5V.
	ADC_set_VREF( ADC_VREF_AVCC );
    2d90:	81 e0       	ldi	r24, 0x01	; 1
    2d92:	0e 94 d8 03 	call	0x7b0	; 0x7b0 <ADC_set_VREF>
	// Set the channel we will sample from.
	ADC_set_channel( IRRIGHT_CHAN );
    2d96:	83 e0       	ldi	r24, 0x03	; 3
    2d98:	0e 94 a1 03 	call	0x742	; 0x742 <ADC_set_channel>
	// Now sample it!
	adcsample = ADC_sample();
    2d9c:	0e 94 84 03 	call	0x708	; 0x708 <ADC_sample>
	// Convert to meaningful voltage value.
	//voltage = adcsample * ( 5.0 / 1024 );
	// Convert to distance in cm
	distance = (2914/(adcsample+5.0))-1.0;
    2da0:	bc 01       	movw	r22, r24
    2da2:	80 e0       	ldi	r24, 0x00	; 0
    2da4:	90 e0       	ldi	r25, 0x00	; 0
    2da6:	0e 94 e7 2a 	call	0x55ce	; 0x55ce <__floatunsisf>
    2daa:	20 e0       	ldi	r18, 0x00	; 0
    2dac:	30 e0       	ldi	r19, 0x00	; 0
    2dae:	40 ea       	ldi	r20, 0xA0	; 160
    2db0:	50 e4       	ldi	r21, 0x40	; 64
    2db2:	0e 94 81 29 	call	0x5302	; 0x5302 <__addsf3>
    2db6:	9b 01       	movw	r18, r22
    2db8:	ac 01       	movw	r20, r24
    2dba:	60 e0       	ldi	r22, 0x00	; 0
    2dbc:	70 e2       	ldi	r23, 0x20	; 32
    2dbe:	86 e3       	ldi	r24, 0x36	; 54
    2dc0:	95 e4       	ldi	r25, 0x45	; 69
    2dc2:	0e 94 4e 2a 	call	0x549c	; 0x549c <__divsf3>
    2dc6:	20 e0       	ldi	r18, 0x00	; 0
    2dc8:	30 e0       	ldi	r19, 0x00	; 0
    2dca:	40 e8       	ldi	r20, 0x80	; 128
    2dcc:	5f e3       	ldi	r21, 0x3F	; 63
    2dce:	0e 94 80 29 	call	0x5300	; 0x5300 <__subsf3>
	//Convert distance to inches
	dist = distance*0.3937;
    2dd2:	2c e0       	ldi	r18, 0x0C	; 12
    2dd4:	33 e9       	ldi	r19, 0x93	; 147
    2dd6:	49 ec       	ldi	r20, 0xC9	; 201
    2dd8:	5e e3       	ldi	r21, 0x3E	; 62
    2dda:	0e 94 02 2c 	call	0x5804	; 0x5804 <__mulsf3>
	return dist;
}
    2dde:	08 95       	ret

00002de0 <getFrontIR>:
	//float voltage;//IR range -0.4 to 5.3 V
	float distance;// (cm) 30 cm = 12 inches = 0.4 V
	float dist;//distance in inches
	ADC_SAMPLE adcsample;
	// Set the Voltage Reference first so VREF=5V.
	ADC_set_VREF( ADC_VREF_AVCC );
    2de0:	81 e0       	ldi	r24, 0x01	; 1
    2de2:	0e 94 d8 03 	call	0x7b0	; 0x7b0 <ADC_set_VREF>
	// Set the channel we will sample from.
	ADC_set_channel(IRFRONT_CHAN);
    2de6:	87 e0       	ldi	r24, 0x07	; 7
    2de8:	0e 94 a1 03 	call	0x742	; 0x742 <ADC_set_channel>
	// Now sample it!
	adcsample = ADC_sample();
    2dec:	0e 94 84 03 	call	0x708	; 0x708 <ADC_sample>
	// Convert to meaningful voltage value.
	//voltage = adcsample * ( 5.0 / 1024 );
	// Convert to distance in cm
	distance = (2914/(adcsample+5.0))-1.0;
    2df0:	bc 01       	movw	r22, r24
    2df2:	80 e0       	ldi	r24, 0x00	; 0
    2df4:	90 e0       	ldi	r25, 0x00	; 0
    2df6:	0e 94 e7 2a 	call	0x55ce	; 0x55ce <__floatunsisf>
    2dfa:	20 e0       	ldi	r18, 0x00	; 0
    2dfc:	30 e0       	ldi	r19, 0x00	; 0
    2dfe:	40 ea       	ldi	r20, 0xA0	; 160
    2e00:	50 e4       	ldi	r21, 0x40	; 64
    2e02:	0e 94 81 29 	call	0x5302	; 0x5302 <__addsf3>
    2e06:	9b 01       	movw	r18, r22
    2e08:	ac 01       	movw	r20, r24
    2e0a:	60 e0       	ldi	r22, 0x00	; 0
    2e0c:	70 e2       	ldi	r23, 0x20	; 32
    2e0e:	86 e3       	ldi	r24, 0x36	; 54
    2e10:	95 e4       	ldi	r25, 0x45	; 69
    2e12:	0e 94 4e 2a 	call	0x549c	; 0x549c <__divsf3>
    2e16:	20 e0       	ldi	r18, 0x00	; 0
    2e18:	30 e0       	ldi	r19, 0x00	; 0
    2e1a:	40 e8       	ldi	r20, 0x80	; 128
    2e1c:	5f e3       	ldi	r21, 0x3F	; 63
    2e1e:	0e 94 80 29 	call	0x5300	; 0x5300 <__subsf3>
	//Convert distance to inches
	dist = distance*0.3937;
    2e22:	2c e0       	ldi	r18, 0x0C	; 12
    2e24:	33 e9       	ldi	r19, 0x93	; 147
    2e26:	49 ec       	ldi	r20, 0xC9	; 201
    2e28:	5e e3       	ldi	r21, 0x3E	; 62
    2e2a:	0e 94 02 2c 	call	0x5804	; 0x5804 <__mulsf3>
	return dist;
}
    2e2e:	08 95       	ret

00002e30 <sTurnLeft>:
	yo = y;
	thetao = theta;
}

// Given an angle and a speed, this function makes the robot turn/spin to the left.
void sTurnLeft(int angle, int speed){
    2e30:	8f 92       	push	r8
    2e32:	af 92       	push	r10
    2e34:	bf 92       	push	r11
    2e36:	cf 92       	push	r12
    2e38:	ef 92       	push	r14
    2e3a:	ff 92       	push	r15
    2e3c:	0f 93       	push	r16
    2e3e:	1f 93       	push	r17
    2e40:	cf 93       	push	r28
    2e42:	df 93       	push	r29
    2e44:	ec 01       	movw	r28, r24
    2e46:	06 2f       	mov	r16, r22
    2e48:	17 2f       	mov	r17, r23
	
	// Performs the same error detection procedure for the Stepper subsystem as it was performed with ATTINY.
	SUBSYS_OPENSTAT openStepper;
	
	// Stepper subsystem is opened.
	openStepper = STEPPER_open();
    2e4a:	0e 94 a3 07 	call	0xf46	; 0xf46 <STEPPER_open>
	
	// Displays an error message if the returned value for the opened stepper subsystem is unexpected.
	if (openStepper.state != SUBSYS_OPEN){
    2e4e:	91 30       	cpi	r25, 0x01	; 1
    2e50:	41 f0       	breq	.+16     	; 0x2e62 <sTurnLeft+0x32>
		LCD_printf("\nError when opening STEPPER subsystem!");
    2e52:	8f eb       	ldi	r24, 0xBF	; 191
    2e54:	91 e0       	ldi	r25, 0x01	; 1
    2e56:	9f 93       	push	r25
    2e58:	8f 93       	push	r24
    2e5a:	0e 94 bd 34 	call	0x697a	; 0x697a <printf>
    2e5e:	0f 90       	pop	r0
    2e60:	0f 90       	pop	r0
	}
	
	steps = angle*130/90;
    2e62:	22 e8       	ldi	r18, 0x82	; 130
    2e64:	2c 9f       	mul	r18, r28
    2e66:	c0 01       	movw	r24, r0
    2e68:	2d 9f       	mul	r18, r29
    2e6a:	90 0d       	add	r25, r0
    2e6c:	11 24       	eor	r1, r1
    2e6e:	6a e5       	ldi	r22, 0x5A	; 90
    2e70:	70 e0       	ldi	r23, 0x00	; 0
    2e72:	0e 94 7d 31 	call	0x62fa	; 0x62fa <__divmodhi4>
    2e76:	26 2f       	mov	r18, r22
    2e78:	37 2f       	mov	r19, r23
	STEPPER_move_stwt(STEPPER_BOTH,
    2e7a:	1f 92       	push	r1
    2e7c:	1f 92       	push	r1
    2e7e:	1f 92       	push	r1
    2e80:	83 e0       	ldi	r24, 0x03	; 3
    2e82:	8f 93       	push	r24
    2e84:	80 e2       	ldi	r24, 0x20	; 32
    2e86:	8f 93       	push	r24
    2e88:	1f 93       	push	r17
    2e8a:	0f 93       	push	r16
    2e8c:	7f 93       	push	r23
    2e8e:	6f 93       	push	r22
    2e90:	81 2c       	mov	r8, r1
    2e92:	a1 2c       	mov	r10, r1
    2e94:	b1 2c       	mov	r11, r1
    2e96:	c1 2c       	mov	r12, r1
    2e98:	0f 2e       	mov	r0, r31
    2e9a:	f0 e2       	ldi	r31, 0x20	; 32
    2e9c:	ef 2e       	mov	r14, r31
    2e9e:	f3 e0       	ldi	r31, 0x03	; 3
    2ea0:	ff 2e       	mov	r15, r31
    2ea2:	f0 2d       	mov	r31, r0
    2ea4:	41 e0       	ldi	r20, 0x01	; 1
    2ea6:	62 e0       	ldi	r22, 0x02	; 2
    2ea8:	80 e0       	ldi	r24, 0x00	; 0
    2eaa:	0e 94 fc 06 	call	0xdf8	; 0xdf8 <STEPPER_move>
		STEPPER_REV, steps, speed, 800, STEPPER_BRK_OFF,	//Left wheel
		STEPPER_FWD, steps, speed, 800, STEPPER_BRK_OFF);	//Right wheel
		
	STEPPER_close();
    2eae:	0e 94 31 06 	call	0xc62	; 0xc62 <STEPPER_close>
    2eb2:	8d b7       	in	r24, 0x3d	; 61
    2eb4:	9e b7       	in	r25, 0x3e	; 62
    2eb6:	09 96       	adiw	r24, 0x09	; 9
    2eb8:	0f b6       	in	r0, 0x3f	; 63
    2eba:	f8 94       	cli
    2ebc:	9e bf       	out	0x3e, r25	; 62
    2ebe:	0f be       	out	0x3f, r0	; 63
    2ec0:	8d bf       	out	0x3d, r24	; 61
}
    2ec2:	df 91       	pop	r29
    2ec4:	cf 91       	pop	r28
    2ec6:	1f 91       	pop	r17
    2ec8:	0f 91       	pop	r16
    2eca:	ff 90       	pop	r15
    2ecc:	ef 90       	pop	r14
    2ece:	cf 90       	pop	r12
    2ed0:	bf 90       	pop	r11
    2ed2:	af 90       	pop	r10
    2ed4:	8f 90       	pop	r8
    2ed6:	08 95       	ret

00002ed8 <sTurnRight>:

// Given an angle and a speed, this function makes the robot turn/spin to the right.
void sTurnRight(int angle, int speed){
    2ed8:	8f 92       	push	r8
    2eda:	af 92       	push	r10
    2edc:	bf 92       	push	r11
    2ede:	cf 92       	push	r12
    2ee0:	ef 92       	push	r14
    2ee2:	ff 92       	push	r15
    2ee4:	0f 93       	push	r16
    2ee6:	1f 93       	push	r17
    2ee8:	cf 93       	push	r28
    2eea:	df 93       	push	r29
    2eec:	ec 01       	movw	r28, r24
    2eee:	06 2f       	mov	r16, r22
    2ef0:	17 2f       	mov	r17, r23
	
	// Performs the same error detection procedure for the Stepper subsystem as it was performed with ATTINY.
	SUBSYS_OPENSTAT openStepper;
	
	// Stepper subsystem is opened.
	openStepper = STEPPER_open();
    2ef2:	0e 94 a3 07 	call	0xf46	; 0xf46 <STEPPER_open>
	
	// Displays an error message if the returned value for the opened stepper subsystem is unexpected.
	if (openStepper.state != SUBSYS_OPEN){
    2ef6:	91 30       	cpi	r25, 0x01	; 1
    2ef8:	41 f0       	breq	.+16     	; 0x2f0a <sTurnRight+0x32>
		LCD_printf("\nError when opening STEPPER subsystem!");
    2efa:	8f eb       	ldi	r24, 0xBF	; 191
    2efc:	91 e0       	ldi	r25, 0x01	; 1
    2efe:	9f 93       	push	r25
    2f00:	8f 93       	push	r24
    2f02:	0e 94 bd 34 	call	0x697a	; 0x697a <printf>
    2f06:	0f 90       	pop	r0
    2f08:	0f 90       	pop	r0
	}
	
	steps = angle*130/90;
    2f0a:	22 e8       	ldi	r18, 0x82	; 130
    2f0c:	2c 9f       	mul	r18, r28
    2f0e:	c0 01       	movw	r24, r0
    2f10:	2d 9f       	mul	r18, r29
    2f12:	90 0d       	add	r25, r0
    2f14:	11 24       	eor	r1, r1
    2f16:	6a e5       	ldi	r22, 0x5A	; 90
    2f18:	70 e0       	ldi	r23, 0x00	; 0
    2f1a:	0e 94 7d 31 	call	0x62fa	; 0x62fa <__divmodhi4>
    2f1e:	26 2f       	mov	r18, r22
    2f20:	37 2f       	mov	r19, r23
	STEPPER_move_stwt(STEPPER_BOTH,
    2f22:	1f 92       	push	r1
    2f24:	1f 92       	push	r1
    2f26:	1f 92       	push	r1
    2f28:	83 e0       	ldi	r24, 0x03	; 3
    2f2a:	8f 93       	push	r24
    2f2c:	80 e2       	ldi	r24, 0x20	; 32
    2f2e:	8f 93       	push	r24
    2f30:	1f 93       	push	r17
    2f32:	0f 93       	push	r16
    2f34:	7f 93       	push	r23
    2f36:	6f 93       	push	r22
    2f38:	88 24       	eor	r8, r8
    2f3a:	83 94       	inc	r8
    2f3c:	a1 2c       	mov	r10, r1
    2f3e:	b1 2c       	mov	r11, r1
    2f40:	c1 2c       	mov	r12, r1
    2f42:	0f 2e       	mov	r0, r31
    2f44:	f0 e2       	ldi	r31, 0x20	; 32
    2f46:	ef 2e       	mov	r14, r31
    2f48:	f3 e0       	ldi	r31, 0x03	; 3
    2f4a:	ff 2e       	mov	r15, r31
    2f4c:	f0 2d       	mov	r31, r0
    2f4e:	40 e0       	ldi	r20, 0x00	; 0
    2f50:	62 e0       	ldi	r22, 0x02	; 2
    2f52:	80 e0       	ldi	r24, 0x00	; 0
    2f54:	0e 94 fc 06 	call	0xdf8	; 0xdf8 <STEPPER_move>
		STEPPER_FWD, steps, speed, 800, STEPPER_BRK_OFF,	//Left wheel
		STEPPER_REV, steps, speed, 800, STEPPER_BRK_OFF);	//Right wheel
		
	STEPPER_close();
    2f58:	0e 94 31 06 	call	0xc62	; 0xc62 <STEPPER_close>
    2f5c:	8d b7       	in	r24, 0x3d	; 61
    2f5e:	9e b7       	in	r25, 0x3e	; 62
    2f60:	09 96       	adiw	r24, 0x09	; 9
    2f62:	0f b6       	in	r0, 0x3f	; 63
    2f64:	f8 94       	cli
    2f66:	9e bf       	out	0x3e, r25	; 62
    2f68:	0f be       	out	0x3f, r0	; 63
    2f6a:	8d bf       	out	0x3d, r24	; 61
}
    2f6c:	df 91       	pop	r29
    2f6e:	cf 91       	pop	r28
    2f70:	1f 91       	pop	r17
    2f72:	0f 91       	pop	r16
    2f74:	ff 90       	pop	r15
    2f76:	ef 90       	pop	r14
    2f78:	cf 90       	pop	r12
    2f7a:	bf 90       	pop	r11
    2f7c:	af 90       	pop	r10
    2f7e:	8f 90       	pop	r8
    2f80:	08 95       	ret

00002f82 <go2Angle>:
		STEPPER_FWD, steps, speed, 400, STEPPER_BRK_OFF,	//Left wheel
		STEPPER_FWD, steps, speed, 400, STEPPER_BRK_OFF);	//Right wheel
}

// Rotates the robot to the required functions.
void go2Angle(int angle){
    2f82:	cf 93       	push	r28
    2f84:	df 93       	push	r29
	
	// If the angle is positive, rotate the robot in a certain angle that is converted in steps to the left.
	if (angle > 0){
    2f86:	18 16       	cp	r1, r24
    2f88:	19 06       	cpc	r1, r25
    2f8a:	dc f4       	brge	.+54     	; 0x2fc2 <go2Angle+0x40>
		if (angle <= 180){
    2f8c:	85 3b       	cpi	r24, 0xB5	; 181
    2f8e:	91 05       	cpc	r25, r1
    2f90:	2c f4       	brge	.+10     	; 0x2f9c <go2Angle+0x1a>
			sTurnLeft(angle, 400);
    2f92:	60 e9       	ldi	r22, 0x90	; 144
    2f94:	71 e0       	ldi	r23, 0x01	; 1
    2f96:	0e 94 18 17 	call	0x2e30	; 0x2e30 <sTurnLeft>
    2f9a:	32 c0       	rjmp	.+100    	; 0x3000 <go2Angle+0x7e>
		}else if(angle > 180){
			angle = angle/2;
    2f9c:	9c 01       	movw	r18, r24
    2f9e:	99 23       	and	r25, r25
    2fa0:	14 f4       	brge	.+4      	; 0x2fa6 <go2Angle+0x24>
    2fa2:	2f 5f       	subi	r18, 0xFF	; 255
    2fa4:	3f 4f       	sbci	r19, 0xFF	; 255
    2fa6:	e9 01       	movw	r28, r18
    2fa8:	d5 95       	asr	r29
    2faa:	c7 95       	ror	r28
			sTurnLeft(angle, 400);
    2fac:	60 e9       	ldi	r22, 0x90	; 144
    2fae:	71 e0       	ldi	r23, 0x01	; 1
    2fb0:	ce 01       	movw	r24, r28
    2fb2:	0e 94 18 17 	call	0x2e30	; 0x2e30 <sTurnLeft>
			sTurnLeft(angle, 400);
    2fb6:	60 e9       	ldi	r22, 0x90	; 144
    2fb8:	71 e0       	ldi	r23, 0x01	; 1
    2fba:	ce 01       	movw	r24, r28
    2fbc:	0e 94 18 17 	call	0x2e30	; 0x2e30 <sTurnLeft>
    2fc0:	1f c0       	rjmp	.+62     	; 0x3000 <go2Angle+0x7e>
		}
	// If the angle is negative, rotate the robot in a certain angle that is converted in steps to the right.
	}else if(angle < 0){
    2fc2:	99 23       	and	r25, r25
    2fc4:	ec f4       	brge	.+58     	; 0x3000 <go2Angle+0x7e>
		angle = angle * (-1); //Make the angle positive to calculate the amount of steps.
    2fc6:	91 95       	neg	r25
    2fc8:	81 95       	neg	r24
    2fca:	91 09       	sbc	r25, r1
		if (angle <= 180){
    2fcc:	85 3b       	cpi	r24, 0xB5	; 181
    2fce:	91 05       	cpc	r25, r1
    2fd0:	2c f4       	brge	.+10     	; 0x2fdc <go2Angle+0x5a>
			sTurnRight(angle, 400);
    2fd2:	60 e9       	ldi	r22, 0x90	; 144
    2fd4:	71 e0       	ldi	r23, 0x01	; 1
    2fd6:	0e 94 6c 17 	call	0x2ed8	; 0x2ed8 <sTurnRight>
    2fda:	12 c0       	rjmp	.+36     	; 0x3000 <go2Angle+0x7e>
		}else if (angle > 180){
			angle = angle/2;
    2fdc:	9c 01       	movw	r18, r24
    2fde:	99 23       	and	r25, r25
    2fe0:	14 f4       	brge	.+4      	; 0x2fe6 <go2Angle+0x64>
    2fe2:	2f 5f       	subi	r18, 0xFF	; 255
    2fe4:	3f 4f       	sbci	r19, 0xFF	; 255
    2fe6:	e9 01       	movw	r28, r18
    2fe8:	d5 95       	asr	r29
    2fea:	c7 95       	ror	r28
			sTurnRight(angle, 400);
    2fec:	60 e9       	ldi	r22, 0x90	; 144
    2fee:	71 e0       	ldi	r23, 0x01	; 1
    2ff0:	ce 01       	movw	r24, r28
    2ff2:	0e 94 6c 17 	call	0x2ed8	; 0x2ed8 <sTurnRight>
			sTurnRight(angle, 400);
    2ff6:	60 e9       	ldi	r22, 0x90	; 144
    2ff8:	71 e0       	ldi	r23, 0x01	; 1
    2ffa:	ce 01       	movw	r24, r28
    2ffc:	0e 94 6c 17 	call	0x2ed8	; 0x2ed8 <sTurnRight>
		}
	}else{
		// does nothing
	}
}
    3000:	df 91       	pop	r29
    3002:	cf 91       	pop	r28
    3004:	08 95       	ret

00003006 <go2ContAngle>:
		STEPPER_REV, steps, speed, 800, STEPPER_BRK_OFF);	//Right wheel
		
	STEPPER_close();
}

void go2ContAngle(float angle, short speed){
    3006:	8f 92       	push	r8
    3008:	9f 92       	push	r9
    300a:	af 92       	push	r10
    300c:	bf 92       	push	r11
    300e:	cf 92       	push	r12
    3010:	df 92       	push	r13
    3012:	ef 92       	push	r14
    3014:	ff 92       	push	r15
    3016:	0f 93       	push	r16
    3018:	1f 93       	push	r17
    301a:	cf 93       	push	r28
    301c:	df 93       	push	r29
    301e:	6b 01       	movw	r12, r22
    3020:	7c 01       	movw	r14, r24
    3022:	04 2f       	mov	r16, r20
    3024:	15 2f       	mov	r17, r21
	unsigned const short timeMultiplier = 500;
	
	if(angle > 0){
    3026:	20 e0       	ldi	r18, 0x00	; 0
    3028:	30 e0       	ldi	r19, 0x00	; 0
    302a:	a9 01       	movw	r20, r18
    302c:	0e 94 f7 2b 	call	0x57ee	; 0x57ee <__gesf2>
    3030:	18 16       	cp	r1, r24
    3032:	0c f0       	brlt	.+2      	; 0x3036 <go2ContAngle+0x30>
    3034:	4d c0       	rjmp	.+154    	; 0x30d0 <go2ContAngle+0xca>
		
		//angle = angle * (-1);
		angle = (timeMultiplier*angle)/45;
    3036:	20 e0       	ldi	r18, 0x00	; 0
    3038:	30 e0       	ldi	r19, 0x00	; 0
    303a:	4a ef       	ldi	r20, 0xFA	; 250
    303c:	53 e4       	ldi	r21, 0x43	; 67
    303e:	c7 01       	movw	r24, r14
    3040:	b6 01       	movw	r22, r12
    3042:	0e 94 02 2c 	call	0x5804	; 0x5804 <__mulsf3>
    3046:	20 e0       	ldi	r18, 0x00	; 0
    3048:	30 e0       	ldi	r19, 0x00	; 0
    304a:	44 e3       	ldi	r20, 0x34	; 52
    304c:	52 e4       	ldi	r21, 0x42	; 66
    304e:	0e 94 4e 2a 	call	0x549c	; 0x549c <__divsf3>
    3052:	96 2e       	mov	r9, r22
    3054:	d7 2f       	mov	r29, r23
    3056:	c8 2f       	mov	r28, r24
    3058:	d9 2e       	mov	r13, r25
		LCD_clear();
    305a:	0e 94 ec 03 	call	0x7d8	; 0x7d8 <LCD_clear>
		LCD_printf("%f", angle);
    305e:	df 92       	push	r13
    3060:	cf 93       	push	r28
    3062:	df 93       	push	r29
    3064:	9f 92       	push	r9
    3066:	27 e1       	ldi	r18, 0x17	; 23
    3068:	32 e0       	ldi	r19, 0x02	; 2
    306a:	3f 93       	push	r19
    306c:	2f 93       	push	r18
    306e:	0e 94 bd 34 	call	0x697a	; 0x697a <printf>
	
		STEPPER_move_rn(STEPPER_BOTH,
    3072:	1f 92       	push	r1
    3074:	1f 92       	push	r1
    3076:	1f 92       	push	r1
    3078:	81 e0       	ldi	r24, 0x01	; 1
    307a:	8f 93       	push	r24
    307c:	80 e9       	ldi	r24, 0x90	; 144
    307e:	8f 93       	push	r24
    3080:	1f 93       	push	r17
    3082:	0f 93       	push	r16
    3084:	1f 92       	push	r1
    3086:	1f 92       	push	r1
    3088:	88 24       	eor	r8, r8
    308a:	83 94       	inc	r8
    308c:	a1 2c       	mov	r10, r1
    308e:	b1 2c       	mov	r11, r1
    3090:	c1 2c       	mov	r12, r1
    3092:	0f 2e       	mov	r0, r31
    3094:	f0 e9       	ldi	r31, 0x90	; 144
    3096:	ef 2e       	mov	r14, r31
    3098:	ff 24       	eor	r15, r15
    309a:	f3 94       	inc	r15
    309c:	f0 2d       	mov	r31, r0
    309e:	20 e0       	ldi	r18, 0x00	; 0
    30a0:	30 e0       	ldi	r19, 0x00	; 0
    30a2:	40 e0       	ldi	r20, 0x00	; 0
    30a4:	62 e0       	ldi	r22, 0x02	; 2
    30a6:	82 e0       	ldi	r24, 0x02	; 2
    30a8:	0e 94 fc 06 	call	0xdf8	; 0xdf8 <STEPPER_move>
			STEPPER_FWD, speed, 400,	//Left
			STEPPER_REV, speed, 400);	//Right
		TMRSRVC_delay(angle);
    30ac:	69 2d       	mov	r22, r9
    30ae:	7d 2f       	mov	r23, r29
    30b0:	8c 2f       	mov	r24, r28
    30b2:	9d 2d       	mov	r25, r13
    30b4:	0e 94 b6 2a 	call	0x556c	; 0x556c <__fixsfsi>
    30b8:	cb 01       	movw	r24, r22
    30ba:	0e 94 aa 0a 	call	0x1554	; 0x1554 <TMRSRVC_delay>
    30be:	8d b7       	in	r24, 0x3d	; 61
    30c0:	9e b7       	in	r25, 0x3e	; 62
    30c2:	0f 96       	adiw	r24, 0x0f	; 15
    30c4:	0f b6       	in	r0, 0x3f	; 63
    30c6:	f8 94       	cli
    30c8:	9e bf       	out	0x3e, r25	; 62
    30ca:	0f be       	out	0x3f, r0	; 63
    30cc:	8d bf       	out	0x3d, r24	; 61
    30ce:	4c c0       	rjmp	.+152    	; 0x3168 <go2ContAngle+0x162>
	}else{
		angle = angle * (-1);
    30d0:	c7 01       	movw	r24, r14
    30d2:	b6 01       	movw	r22, r12
    30d4:	90 58       	subi	r25, 0x80	; 128
		angle = (timeMultiplier*angle)/45;
    30d6:	20 e0       	ldi	r18, 0x00	; 0
    30d8:	30 e0       	ldi	r19, 0x00	; 0
    30da:	4a ef       	ldi	r20, 0xFA	; 250
    30dc:	53 e4       	ldi	r21, 0x43	; 67
    30de:	0e 94 02 2c 	call	0x5804	; 0x5804 <__mulsf3>
    30e2:	20 e0       	ldi	r18, 0x00	; 0
    30e4:	30 e0       	ldi	r19, 0x00	; 0
    30e6:	44 e3       	ldi	r20, 0x34	; 52
    30e8:	52 e4       	ldi	r21, 0x42	; 66
    30ea:	0e 94 4e 2a 	call	0x549c	; 0x549c <__divsf3>
    30ee:	96 2e       	mov	r9, r22
    30f0:	d7 2e       	mov	r13, r23
    30f2:	d8 2f       	mov	r29, r24
    30f4:	c9 2f       	mov	r28, r25
		LCD_clear();
    30f6:	0e 94 ec 03 	call	0x7d8	; 0x7d8 <LCD_clear>
		LCD_printf("%f", angle);
    30fa:	cf 93       	push	r28
    30fc:	df 93       	push	r29
    30fe:	df 92       	push	r13
    3100:	9f 92       	push	r9
    3102:	27 e1       	ldi	r18, 0x17	; 23
    3104:	32 e0       	ldi	r19, 0x02	; 2
    3106:	3f 93       	push	r19
    3108:	2f 93       	push	r18
    310a:	0e 94 bd 34 	call	0x697a	; 0x697a <printf>
	
		STEPPER_move_rn(STEPPER_BOTH,
    310e:	1f 92       	push	r1
    3110:	1f 92       	push	r1
    3112:	1f 92       	push	r1
    3114:	81 e0       	ldi	r24, 0x01	; 1
    3116:	8f 93       	push	r24
    3118:	80 e9       	ldi	r24, 0x90	; 144
    311a:	8f 93       	push	r24
    311c:	1f 93       	push	r17
    311e:	0f 93       	push	r16
    3120:	1f 92       	push	r1
    3122:	1f 92       	push	r1
    3124:	81 2c       	mov	r8, r1
    3126:	a1 2c       	mov	r10, r1
    3128:	b1 2c       	mov	r11, r1
    312a:	c1 2c       	mov	r12, r1
    312c:	0f 2e       	mov	r0, r31
    312e:	f0 e9       	ldi	r31, 0x90	; 144
    3130:	ef 2e       	mov	r14, r31
    3132:	ff 24       	eor	r15, r15
    3134:	f3 94       	inc	r15
    3136:	f0 2d       	mov	r31, r0
    3138:	20 e0       	ldi	r18, 0x00	; 0
    313a:	30 e0       	ldi	r19, 0x00	; 0
    313c:	41 e0       	ldi	r20, 0x01	; 1
    313e:	62 e0       	ldi	r22, 0x02	; 2
    3140:	82 e0       	ldi	r24, 0x02	; 2
    3142:	0e 94 fc 06 	call	0xdf8	; 0xdf8 <STEPPER_move>
			STEPPER_REV, speed, 400,	//Left
			STEPPER_FWD, speed, 400);	//Right
		TMRSRVC_delay(angle);
    3146:	69 2d       	mov	r22, r9
    3148:	7d 2d       	mov	r23, r13
    314a:	8d 2f       	mov	r24, r29
    314c:	9c 2f       	mov	r25, r28
    314e:	0e 94 b6 2a 	call	0x556c	; 0x556c <__fixsfsi>
    3152:	cb 01       	movw	r24, r22
    3154:	0e 94 aa 0a 	call	0x1554	; 0x1554 <TMRSRVC_delay>
    3158:	8d b7       	in	r24, 0x3d	; 61
    315a:	9e b7       	in	r25, 0x3e	; 62
    315c:	0f 96       	adiw	r24, 0x0f	; 15
    315e:	0f b6       	in	r0, 0x3f	; 63
    3160:	f8 94       	cli
    3162:	9e bf       	out	0x3e, r25	; 62
    3164:	0f be       	out	0x3f, r0	; 63
    3166:	8d bf       	out	0x3d, r24	; 61
	}
	STEPPER_stop(STEPPER_BOTH, STEPPER_BRK_OFF);
    3168:	60 e0       	ldi	r22, 0x00	; 0
    316a:	82 e0       	ldi	r24, 0x02	; 2
    316c:	0e 94 0b 09 	call	0x1216	; 0x1216 <STEPPER_stop>
}
    3170:	df 91       	pop	r29
    3172:	cf 91       	pop	r28
    3174:	1f 91       	pop	r17
    3176:	0f 91       	pop	r16
    3178:	ff 90       	pop	r15
    317a:	ef 90       	pop	r14
    317c:	df 90       	pop	r13
    317e:	cf 90       	pop	r12
    3180:	bf 90       	pop	r11
    3182:	af 90       	pop	r10
    3184:	9f 90       	pop	r9
    3186:	8f 90       	pop	r8
    3188:	08 95       	ret

0000318a <rightFollow>:
void rightFollow(void){
    318a:	cf 93       	push	r28
    318c:	df 93       	push	r29
    318e:	00 d0       	rcall	.+0      	; 0x3190 <rightFollow+0x6>
    3190:	00 d0       	rcall	.+0      	; 0x3192 <rightFollow+0x8>
    3192:	1f 92       	push	r1
    3194:	cd b7       	in	r28, 0x3d	; 61
    3196:	de b7       	in	r29, 0x3e	; 62
	char lowerLimit = 4.75;
	char higherLimit = 5.25;
	char ICT = 12;
	float LP, RP, LWS, RWS, frontIR, rightIR, leftIR;
	float oLWS = 0;
	float oRWS = 0;
    3198:	21 2c       	mov	r2, r1
    319a:	31 2c       	mov	r3, r1
    319c:	1a 82       	std	Y+2, r1	; 0x02
    319e:	1b 82       	std	Y+3, r1	; 0x03
	// code that powers the right wall following routine
	char lowerLimit = 4.75;
	char higherLimit = 5.25;
	char ICT = 12;
	float LP, RP, LWS, RWS, frontIR, rightIR, leftIR;
	float oLWS = 0;
    31a0:	91 2c       	mov	r9, r1
    31a2:	19 82       	std	Y+1, r1	; 0x01
    31a4:	1d 82       	std	Y+5, r1	; 0x05
    31a6:	1c 82       	std	Y+4, r1	; 0x04
	char KP = 1.5;
	char KI = 0.75;
	char KD = 0;

	while(1){
		frontIR = getFrontIR();
    31a8:	0e 94 f0 16 	call	0x2de0	; 0x2de0 <getFrontIR>
    31ac:	2b 01       	movw	r4, r22
    31ae:	3c 01       	movw	r6, r24
		rightIR = getRightIR();
    31b0:	0e 94 c8 16 	call	0x2d90	; 0x2d90 <getRightIR>
    31b4:	6b 01       	movw	r12, r22
    31b6:	7c 01       	movw	r14, r24
		leftIR = getLeftIR();
    31b8:	0e 94 a0 16 	call	0x2d40	; 0x2d40 <getLeftIR>
		if((frontIR > ICT) && (rightIR < ICT)){ // Condition for simple wall following
    31bc:	20 e0       	ldi	r18, 0x00	; 0
    31be:	30 e0       	ldi	r19, 0x00	; 0
    31c0:	40 e4       	ldi	r20, 0x40	; 64
    31c2:	51 e4       	ldi	r21, 0x41	; 65
    31c4:	c3 01       	movw	r24, r6
    31c6:	b2 01       	movw	r22, r4
    31c8:	0e 94 f7 2b 	call	0x57ee	; 0x57ee <__gesf2>
    31cc:	18 16       	cp	r1, r24
    31ce:	0c f0       	brlt	.+2      	; 0x31d2 <rightFollow+0x48>
    31d0:	fe c0       	rjmp	.+508    	; 0x33ce <rightFollow+0x244>
    31d2:	20 e0       	ldi	r18, 0x00	; 0
    31d4:	30 e0       	ldi	r19, 0x00	; 0
    31d6:	40 e4       	ldi	r20, 0x40	; 64
    31d8:	51 e4       	ldi	r21, 0x41	; 65
    31da:	c7 01       	movw	r24, r14
    31dc:	b6 01       	movw	r22, r12
    31de:	0e 94 47 2a 	call	0x548e	; 0x548e <__cmpsf2>
    31e2:	88 23       	and	r24, r24
    31e4:	0c f0       	brlt	.+2      	; 0x31e8 <rightFollow+0x5e>
    31e6:	f3 c0       	rjmp	.+486    	; 0x33ce <rightFollow+0x244>
			if (rightIR < lowerLimit){ // Too close to wall
    31e8:	20 e0       	ldi	r18, 0x00	; 0
    31ea:	30 e0       	ldi	r19, 0x00	; 0
    31ec:	40 e8       	ldi	r20, 0x80	; 128
    31ee:	50 e4       	ldi	r21, 0x40	; 64
    31f0:	c7 01       	movw	r24, r14
    31f2:	b6 01       	movw	r22, r12
    31f4:	0e 94 47 2a 	call	0x548e	; 0x548e <__cmpsf2>
    31f8:	88 23       	and	r24, r24
    31fa:	e4 f4       	brge	.+56     	; 0x3234 <rightFollow+0xaa>
				LCD_clear();
    31fc:	0e 94 ec 03 	call	0x7d8	; 0x7d8 <LCD_clear>
				LCD_printf("Right Follow\n");
    3200:	8a e1       	ldi	r24, 0x1A	; 26
    3202:	92 e0       	ldi	r25, 0x02	; 2
    3204:	0e 94 d1 34 	call	0x69a2	; 0x69a2 <puts>
				LCD_printf("Inside Target\n");
    3208:	87 e2       	ldi	r24, 0x27	; 39
    320a:	92 e0       	ldi	r25, 0x02	; 2
    320c:	0e 94 d1 34 	call	0x69a2	; 0x69a2 <puts>
				LCD_printf("Range\n");
    3210:	85 e3       	ldi	r24, 0x35	; 53
    3212:	92 e0       	ldi	r25, 0x02	; 2
    3214:	0e 94 d1 34 	call	0x69a2	; 0x69a2 <puts>

				LP = 0;
				RP = lowerLimit - rightIR;
    3218:	a7 01       	movw	r20, r14
    321a:	96 01       	movw	r18, r12
    321c:	60 e0       	ldi	r22, 0x00	; 0
    321e:	70 e0       	ldi	r23, 0x00	; 0
    3220:	80 e8       	ldi	r24, 0x80	; 128
    3222:	90 e4       	ldi	r25, 0x40	; 64
    3224:	0e 94 80 29 	call	0x5300	; 0x5300 <__subsf3>
    3228:	2b 01       	movw	r4, r22
    322a:	3c 01       	movw	r6, r24
				LCD_clear();
				LCD_printf("Right Follow\n");
				LCD_printf("Inside Target\n");
				LCD_printf("Range\n");

				LP = 0;
    322c:	60 e0       	ldi	r22, 0x00	; 0
    322e:	70 e0       	ldi	r23, 0x00	; 0
    3230:	cb 01       	movw	r24, r22
    3232:	37 c0       	rjmp	.+110    	; 0x32a2 <rightFollow+0x118>
				RP = lowerLimit - rightIR;
				LI = 0;
				RI = RI++;
			}else if(rightIR > higherLimit){ // Too far from wall
    3234:	20 e0       	ldi	r18, 0x00	; 0
    3236:	30 e0       	ldi	r19, 0x00	; 0
    3238:	40 ea       	ldi	r20, 0xA0	; 160
    323a:	50 e4       	ldi	r21, 0x40	; 64
    323c:	c7 01       	movw	r24, r14
    323e:	b6 01       	movw	r22, r12
    3240:	0e 94 f7 2b 	call	0x57ee	; 0x57ee <__gesf2>
    3244:	18 16       	cp	r1, r24
    3246:	d4 f4       	brge	.+52     	; 0x327c <rightFollow+0xf2>
				LCD_clear();
    3248:	0e 94 ec 03 	call	0x7d8	; 0x7d8 <LCD_clear>
				LCD_printf("Right Follow\n");
    324c:	8a e1       	ldi	r24, 0x1A	; 26
    324e:	92 e0       	ldi	r25, 0x02	; 2
    3250:	0e 94 d1 34 	call	0x69a2	; 0x69a2 <puts>
				LCD_printf("Outside Target\n");
    3254:	8b e3       	ldi	r24, 0x3B	; 59
    3256:	92 e0       	ldi	r25, 0x02	; 2
    3258:	0e 94 d1 34 	call	0x69a2	; 0x69a2 <puts>
				LCD_printf("Range\n");
    325c:	85 e3       	ldi	r24, 0x35	; 53
    325e:	92 e0       	ldi	r25, 0x02	; 2
    3260:	0e 94 d1 34 	call	0x69a2	; 0x69a2 <puts>

				LP = rightIR - higherLimit;
    3264:	20 e0       	ldi	r18, 0x00	; 0
    3266:	30 e0       	ldi	r19, 0x00	; 0
    3268:	40 ea       	ldi	r20, 0xA0	; 160
    326a:	50 e4       	ldi	r21, 0x40	; 64
    326c:	c7 01       	movw	r24, r14
    326e:	b6 01       	movw	r22, r12
    3270:	0e 94 80 29 	call	0x5300	; 0x5300 <__subsf3>
				RP = 0;
    3274:	41 2c       	mov	r4, r1
    3276:	51 2c       	mov	r5, r1
    3278:	32 01       	movw	r6, r4
    327a:	13 c0       	rjmp	.+38     	; 0x32a2 <rightFollow+0x118>
				LI = LI++;
				RI = 0;
			}else{ // Proper range from wall
				LCD_clear();
    327c:	0e 94 ec 03 	call	0x7d8	; 0x7d8 <LCD_clear>
				LCD_printf("Right Follow\n");
    3280:	8a e1       	ldi	r24, 0x1A	; 26
    3282:	92 e0       	ldi	r25, 0x02	; 2
    3284:	0e 94 d1 34 	call	0x69a2	; 0x69a2 <puts>
				LCD_printf("At Target\n");
    3288:	8a e4       	ldi	r24, 0x4A	; 74
    328a:	92 e0       	ldi	r25, 0x02	; 2
    328c:	0e 94 d1 34 	call	0x69a2	; 0x69a2 <puts>
				LCD_printf("Range\n");
    3290:	85 e3       	ldi	r24, 0x35	; 53
    3292:	92 e0       	ldi	r25, 0x02	; 2
    3294:	0e 94 d1 34 	call	0x69a2	; 0x69a2 <puts>

				LP = 0;
				RP = 0;
    3298:	41 2c       	mov	r4, r1
    329a:	51 2c       	mov	r5, r1
    329c:	32 01       	movw	r6, r4
				LCD_clear();
				LCD_printf("Right Follow\n");
				LCD_printf("At Target\n");
				LCD_printf("Range\n");

				LP = 0;
    329e:	c3 01       	movw	r24, r6
    32a0:	b2 01       	movw	r22, r4
				RI = 0;
			}

			// PID lopp

			LWS = KP*LP + KI*LI + base; // Proportinal and Integral
    32a2:	20 e0       	ldi	r18, 0x00	; 0
    32a4:	30 e0       	ldi	r19, 0x00	; 0
    32a6:	a9 01       	movw	r20, r18
    32a8:	0e 94 81 29 	call	0x5302	; 0x5302 <__addsf3>
    32ac:	20 e0       	ldi	r18, 0x00	; 0
    32ae:	30 e0       	ldi	r19, 0x00	; 0
    32b0:	40 ef       	ldi	r20, 0xF0	; 240
    32b2:	52 e4       	ldi	r21, 0x42	; 66
    32b4:	0e 94 81 29 	call	0x5302	; 0x5302 <__addsf3>
    32b8:	e6 2e       	mov	r14, r22
    32ba:	f7 2e       	mov	r15, r23
    32bc:	08 2f       	mov	r16, r24
    32be:	19 2f       	mov	r17, r25
			RWS = KP*RP + KI*RI + base;
    32c0:	20 e0       	ldi	r18, 0x00	; 0
    32c2:	30 e0       	ldi	r19, 0x00	; 0
    32c4:	a9 01       	movw	r20, r18
    32c6:	c3 01       	movw	r24, r6
    32c8:	b2 01       	movw	r22, r4
    32ca:	0e 94 81 29 	call	0x5302	; 0x5302 <__addsf3>
    32ce:	20 e0       	ldi	r18, 0x00	; 0
    32d0:	30 e0       	ldi	r19, 0x00	; 0
    32d2:	40 ef       	ldi	r20, 0xF0	; 240
    32d4:	52 e4       	ldi	r21, 0x42	; 66
    32d6:	0e 94 81 29 	call	0x5302	; 0x5302 <__addsf3>
    32da:	46 2e       	mov	r4, r22
    32dc:	57 2e       	mov	r5, r23
    32de:	68 2e       	mov	r6, r24
    32e0:	79 2e       	mov	r7, r25
			if (oLWS == 0){ // Case to prevent weird stuff on first run
    32e2:	20 e0       	ldi	r18, 0x00	; 0
    32e4:	30 e0       	ldi	r19, 0x00	; 0
    32e6:	a9 01       	movw	r20, r18
    32e8:	69 2d       	mov	r22, r9
    32ea:	79 81       	ldd	r23, Y+1	; 0x01
    32ec:	8d 81       	ldd	r24, Y+5	; 0x05
    32ee:	9c 81       	ldd	r25, Y+4	; 0x04
    32f0:	0e 94 47 2a 	call	0x548e	; 0x548e <__cmpsf2>
    32f4:	81 11       	cpse	r24, r1
    32f6:	08 c0       	rjmp	.+16     	; 0x3308 <rightFollow+0x17e>
				oLWS = LWS;
				oRWS = RWS;
    32f8:	24 2c       	mov	r2, r4
    32fa:	35 2c       	mov	r3, r5
    32fc:	6a 82       	std	Y+2, r6	; 0x02
    32fe:	7b 82       	std	Y+3, r7	; 0x03
			// PID lopp

			LWS = KP*LP + KI*LI + base; // Proportinal and Integral
			RWS = KP*RP + KI*RI + base;
			if (oLWS == 0){ // Case to prevent weird stuff on first run
				oLWS = LWS;
    3300:	9e 2c       	mov	r9, r14
    3302:	f9 82       	std	Y+1, r15	; 0x01
    3304:	0d 83       	std	Y+5, r16	; 0x05
    3306:	1c 83       	std	Y+4, r17	; 0x04
				oRWS = RWS;
			}
			LWS = LWS + KD*(oLWS-LWS); // Derivative component
    3308:	2e 2d       	mov	r18, r14
    330a:	3f 2d       	mov	r19, r15
    330c:	40 2f       	mov	r20, r16
    330e:	51 2f       	mov	r21, r17
    3310:	69 2d       	mov	r22, r9
    3312:	79 81       	ldd	r23, Y+1	; 0x01
    3314:	8d 81       	ldd	r24, Y+5	; 0x05
    3316:	9c 81       	ldd	r25, Y+4	; 0x04
    3318:	0e 94 80 29 	call	0x5300	; 0x5300 <__subsf3>
    331c:	20 e0       	ldi	r18, 0x00	; 0
    331e:	30 e0       	ldi	r19, 0x00	; 0
    3320:	a9 01       	movw	r20, r18
    3322:	0e 94 02 2c 	call	0x5804	; 0x5804 <__mulsf3>
    3326:	2e 2d       	mov	r18, r14
    3328:	3f 2d       	mov	r19, r15
    332a:	40 2f       	mov	r20, r16
    332c:	51 2f       	mov	r21, r17
    332e:	0e 94 81 29 	call	0x5302	; 0x5302 <__addsf3>
    3332:	96 2e       	mov	r9, r22
    3334:	79 83       	std	Y+1, r23	; 0x01
    3336:	8d 83       	std	Y+5, r24	; 0x05
    3338:	9c 83       	std	Y+4, r25	; 0x04
			RWS = RWS + KD*(oRWS-RWS);
    333a:	24 2d       	mov	r18, r4
    333c:	35 2d       	mov	r19, r5
    333e:	46 2d       	mov	r20, r6
    3340:	57 2d       	mov	r21, r7
    3342:	62 2d       	mov	r22, r2
    3344:	73 2d       	mov	r23, r3
    3346:	8a 81       	ldd	r24, Y+2	; 0x02
    3348:	9b 81       	ldd	r25, Y+3	; 0x03
    334a:	0e 94 80 29 	call	0x5300	; 0x5300 <__subsf3>
    334e:	20 e0       	ldi	r18, 0x00	; 0
    3350:	30 e0       	ldi	r19, 0x00	; 0
    3352:	a9 01       	movw	r20, r18
    3354:	0e 94 02 2c 	call	0x5804	; 0x5804 <__mulsf3>
    3358:	24 2d       	mov	r18, r4
    335a:	35 2d       	mov	r19, r5
    335c:	46 2d       	mov	r20, r6
    335e:	57 2d       	mov	r21, r7
    3360:	0e 94 81 29 	call	0x5302	; 0x5302 <__addsf3>
    3364:	26 2e       	mov	r2, r22
    3366:	37 2e       	mov	r3, r23
    3368:	8a 83       	std	Y+2, r24	; 0x02
    336a:	9b 83       	std	Y+3, r25	; 0x03

			STEPPER_move_rn(STEPPER_BOTH, // Forward Movement based on input speeds
    336c:	69 2d       	mov	r22, r9
    336e:	79 81       	ldd	r23, Y+1	; 0x01
    3370:	8d 81       	ldd	r24, Y+5	; 0x05
    3372:	9c 81       	ldd	r25, Y+4	; 0x04
    3374:	0e 94 bb 2a 	call	0x5576	; 0x5576 <__fixunssfsi>
    3378:	2b 01       	movw	r4, r22
    337a:	3c 01       	movw	r6, r24
    337c:	1f 92       	push	r1
    337e:	1f 92       	push	r1
    3380:	1f 92       	push	r1
    3382:	21 e0       	ldi	r18, 0x01	; 1
    3384:	2f 93       	push	r18
    3386:	30 e9       	ldi	r19, 0x90	; 144
    3388:	3f 93       	push	r19
    338a:	62 2d       	mov	r22, r2
    338c:	73 2d       	mov	r23, r3
    338e:	8a 81       	ldd	r24, Y+2	; 0x02
    3390:	9b 81       	ldd	r25, Y+3	; 0x03
    3392:	0e 94 bb 2a 	call	0x5576	; 0x5576 <__fixunssfsi>
    3396:	7f 93       	push	r23
    3398:	6f 93       	push	r22
    339a:	1f 92       	push	r1
    339c:	1f 92       	push	r1
    339e:	81 2c       	mov	r8, r1
    33a0:	a1 2c       	mov	r10, r1
    33a2:	b1 2c       	mov	r11, r1
    33a4:	c1 2c       	mov	r12, r1
    33a6:	0f 2e       	mov	r0, r31
    33a8:	f0 e9       	ldi	r31, 0x90	; 144
    33aa:	ef 2e       	mov	r14, r31
    33ac:	ff 24       	eor	r15, r15
    33ae:	f3 94       	inc	r15
    33b0:	f0 2d       	mov	r31, r0
    33b2:	82 01       	movw	r16, r4
    33b4:	20 e0       	ldi	r18, 0x00	; 0
    33b6:	30 e0       	ldi	r19, 0x00	; 0
    33b8:	40 e0       	ldi	r20, 0x00	; 0
    33ba:	62 e0       	ldi	r22, 0x02	; 2
    33bc:	82 e0       	ldi	r24, 0x02	; 2
    33be:	0e 94 fc 06 	call	0xdf8	; 0xdf8 <STEPPER_move>
					STEPPER_FWD, LWS, 400,	//Left
					STEPPER_FWD, RWS, 400);	//Right

			oLWS = LWS; // Remember previous speeds for derivative component
			oRWS = RWS;
    33c2:	0f b6       	in	r0, 0x3f	; 63
    33c4:	f8 94       	cli
    33c6:	de bf       	out	0x3e, r29	; 62
    33c8:	0f be       	out	0x3f, r0	; 63
    33ca:	cd bf       	out	0x3d, r28	; 61
    33cc:	ed ce       	rjmp	.-550    	; 0x31a8 <rightFollow+0x1e>

		}else if((frontIR < ICT) && (rightIR < ICT)){ // Condition for if wall is in front
    33ce:	20 e0       	ldi	r18, 0x00	; 0
    33d0:	30 e0       	ldi	r19, 0x00	; 0
    33d2:	40 e4       	ldi	r20, 0x40	; 64
    33d4:	51 e4       	ldi	r21, 0x41	; 65
    33d6:	c3 01       	movw	r24, r6
    33d8:	b2 01       	movw	r22, r4
    33da:	0e 94 47 2a 	call	0x548e	; 0x548e <__cmpsf2>
    33de:	88 23       	and	r24, r24
    33e0:	0c f0       	brlt	.+2      	; 0x33e4 <rightFollow+0x25a>
    33e2:	4a c0       	rjmp	.+148    	; 0x3478 <rightFollow+0x2ee>
    33e4:	20 e0       	ldi	r18, 0x00	; 0
    33e6:	30 e0       	ldi	r19, 0x00	; 0
    33e8:	40 e4       	ldi	r20, 0x40	; 64
    33ea:	51 e4       	ldi	r21, 0x41	; 65
    33ec:	c7 01       	movw	r24, r14
    33ee:	b6 01       	movw	r22, r12
    33f0:	0e 94 47 2a 	call	0x548e	; 0x548e <__cmpsf2>
    33f4:	88 23       	and	r24, r24
    33f6:	0c f0       	brlt	.+2      	; 0x33fa <rightFollow+0x270>
    33f8:	3f c0       	rjmp	.+126    	; 0x3478 <rightFollow+0x2ee>
			LCD_clear();
    33fa:	0e 94 ec 03 	call	0x7d8	; 0x7d8 <LCD_clear>
			LCD_printf("Right Follow\n");
    33fe:	8a e1       	ldi	r24, 0x1A	; 26
    3400:	92 e0       	ldi	r25, 0x02	; 2
    3402:	0e 94 d1 34 	call	0x69a2	; 0x69a2 <puts>
			LCD_printf("Wall in Front\n");
    3406:	84 e5       	ldi	r24, 0x54	; 84
    3408:	92 e0       	ldi	r25, 0x02	; 2
    340a:	0e 94 d1 34 	call	0x69a2	; 0x69a2 <puts>
			LCD_printf("Turning Left\n");
    340e:	82 e6       	ldi	r24, 0x62	; 98
    3410:	92 e0       	ldi	r25, 0x02	; 2
    3412:	0e 94 d1 34 	call	0x69a2	; 0x69a2 <puts>

			STEPPER_move_rn(STEPPER_BOTH, // Forward movement
    3416:	1f 92       	push	r1
    3418:	1f 92       	push	r1
    341a:	1f 92       	push	r1
    341c:	91 e0       	ldi	r25, 0x01	; 1
    341e:	9f 93       	push	r25
    3420:	e0 e9       	ldi	r30, 0x90	; 144
    3422:	ef 93       	push	r30
    3424:	1f 92       	push	r1
    3426:	f6 e9       	ldi	r31, 0x96	; 150
    3428:	ff 93       	push	r31
    342a:	1f 92       	push	r1
    342c:	1f 92       	push	r1
    342e:	81 2c       	mov	r8, r1
    3430:	a1 2c       	mov	r10, r1
    3432:	b1 2c       	mov	r11, r1
    3434:	c1 2c       	mov	r12, r1
    3436:	0f 2e       	mov	r0, r31
    3438:	f0 e9       	ldi	r31, 0x90	; 144
    343a:	ef 2e       	mov	r14, r31
    343c:	ff 24       	eor	r15, r15
    343e:	f3 94       	inc	r15
    3440:	f0 2d       	mov	r31, r0
    3442:	06 e9       	ldi	r16, 0x96	; 150
    3444:	10 e0       	ldi	r17, 0x00	; 0
    3446:	20 e0       	ldi	r18, 0x00	; 0
    3448:	30 e0       	ldi	r19, 0x00	; 0
    344a:	40 e0       	ldi	r20, 0x00	; 0
    344c:	62 e0       	ldi	r22, 0x02	; 2
    344e:	82 e0       	ldi	r24, 0x02	; 2
    3450:	0e 94 fc 06 	call	0xdf8	; 0xdf8 <STEPPER_move>
					STEPPER_FWD, 150, 400,	//Left
					STEPPER_FWD, 150, 400);	//Right
			TMRSRVC_delay(500); // 0.5 sec delay
    3454:	84 ef       	ldi	r24, 0xF4	; 244
    3456:	91 e0       	ldi	r25, 0x01	; 1
    3458:	0e 94 aa 0a 	call	0x1554	; 0x1554 <TMRSRVC_delay>
			go2ContAngle(-90, 100); // Left 90 Turn
    345c:	44 e6       	ldi	r20, 0x64	; 100
    345e:	50 e0       	ldi	r21, 0x00	; 0
    3460:	60 e0       	ldi	r22, 0x00	; 0
    3462:	70 e0       	ldi	r23, 0x00	; 0
    3464:	84 eb       	ldi	r24, 0xB4	; 180
    3466:	92 ec       	ldi	r25, 0xC2	; 194
    3468:	0e 94 03 18 	call	0x3006	; 0x3006 <go2ContAngle>
			LP = 0;
			RP = 0;
			LI = 0;
			RI = 0;
    346c:	0f b6       	in	r0, 0x3f	; 63
    346e:	f8 94       	cli
    3470:	de bf       	out	0x3e, r29	; 62
    3472:	0f be       	out	0x3f, r0	; 63
    3474:	cd bf       	out	0x3d, r28	; 61
    3476:	98 ce       	rjmp	.-720    	; 0x31a8 <rightFollow+0x1e>
		}else if((frontIR > ICT) && (rightIR > ICT)){ // Condition for is no wall to follow or in front
    3478:	20 e0       	ldi	r18, 0x00	; 0
    347a:	30 e0       	ldi	r19, 0x00	; 0
    347c:	40 e4       	ldi	r20, 0x40	; 64
    347e:	51 e4       	ldi	r21, 0x41	; 65
    3480:	c3 01       	movw	r24, r6
    3482:	b2 01       	movw	r22, r4
    3484:	0e 94 f7 2b 	call	0x57ee	; 0x57ee <__gesf2>
    3488:	18 16       	cp	r1, r24
    348a:	0c f0       	brlt	.+2      	; 0x348e <rightFollow+0x304>
    348c:	8d ce       	rjmp	.-742    	; 0x31a8 <rightFollow+0x1e>
    348e:	20 e0       	ldi	r18, 0x00	; 0
    3490:	30 e0       	ldi	r19, 0x00	; 0
    3492:	40 e4       	ldi	r20, 0x40	; 64
    3494:	51 e4       	ldi	r21, 0x41	; 65
    3496:	c7 01       	movw	r24, r14
    3498:	b6 01       	movw	r22, r12
    349a:	0e 94 f7 2b 	call	0x57ee	; 0x57ee <__gesf2>
    349e:	18 16       	cp	r1, r24
    34a0:	0c f0       	brlt	.+2      	; 0x34a4 <rightFollow+0x31a>
    34a2:	82 ce       	rjmp	.-764    	; 0x31a8 <rightFollow+0x1e>
			LCD_clear();
    34a4:	0e 94 ec 03 	call	0x7d8	; 0x7d8 <LCD_clear>
			LCD_printf("Right Follow\n");
    34a8:	8a e1       	ldi	r24, 0x1A	; 26
    34aa:	92 e0       	ldi	r25, 0x02	; 2
    34ac:	0e 94 d1 34 	call	0x69a2	; 0x69a2 <puts>
			LCD_printf("Lack of Wall\n");
    34b0:	8f e6       	ldi	r24, 0x6F	; 111
    34b2:	92 e0       	ldi	r25, 0x02	; 2
    34b4:	0e 94 d1 34 	call	0x69a2	; 0x69a2 <puts>
			LCD_printf("Turning Right\n");
    34b8:	8c e7       	ldi	r24, 0x7C	; 124
    34ba:	92 e0       	ldi	r25, 0x02	; 2
    34bc:	0e 94 d1 34 	call	0x69a2	; 0x69a2 <puts>

			STEPPER_move_rn(STEPPER_BOTH, // Forward movement
    34c0:	1f 92       	push	r1
    34c2:	1f 92       	push	r1
    34c4:	1f 92       	push	r1
    34c6:	31 e0       	ldi	r19, 0x01	; 1
    34c8:	3f 93       	push	r19
    34ca:	80 e9       	ldi	r24, 0x90	; 144
    34cc:	8f 93       	push	r24
    34ce:	1f 92       	push	r1
    34d0:	96 e9       	ldi	r25, 0x96	; 150
    34d2:	9f 93       	push	r25
    34d4:	1f 92       	push	r1
    34d6:	1f 92       	push	r1
    34d8:	81 2c       	mov	r8, r1
    34da:	a1 2c       	mov	r10, r1
    34dc:	b1 2c       	mov	r11, r1
    34de:	c1 2c       	mov	r12, r1
    34e0:	0f 2e       	mov	r0, r31
    34e2:	f0 e9       	ldi	r31, 0x90	; 144
    34e4:	ef 2e       	mov	r14, r31
    34e6:	ff 24       	eor	r15, r15
    34e8:	f3 94       	inc	r15
    34ea:	f0 2d       	mov	r31, r0
    34ec:	06 e9       	ldi	r16, 0x96	; 150
    34ee:	10 e0       	ldi	r17, 0x00	; 0
    34f0:	20 e0       	ldi	r18, 0x00	; 0
    34f2:	30 e0       	ldi	r19, 0x00	; 0
    34f4:	40 e0       	ldi	r20, 0x00	; 0
    34f6:	62 e0       	ldi	r22, 0x02	; 2
    34f8:	82 e0       	ldi	r24, 0x02	; 2
    34fa:	0e 94 fc 06 	call	0xdf8	; 0xdf8 <STEPPER_move>
					STEPPER_FWD, 150, 400,	//Left
					STEPPER_FWD, 150, 400);	//Right
			TMRSRVC_delay(500); // 0.5 Sec delay
    34fe:	84 ef       	ldi	r24, 0xF4	; 244
    3500:	91 e0       	ldi	r25, 0x01	; 1
    3502:	0e 94 aa 0a 	call	0x1554	; 0x1554 <TMRSRVC_delay>
			rightIR = getRightIR();
    3506:	0e 94 c8 16 	call	0x2d90	; 0x2d90 <getRightIR>
			if ((frontIR > ICT) && (rightIR > ICT)){
    350a:	0f b6       	in	r0, 0x3f	; 63
    350c:	f8 94       	cli
    350e:	de bf       	out	0x3e, r29	; 62
    3510:	0f be       	out	0x3f, r0	; 63
    3512:	cd bf       	out	0x3d, r28	; 61
    3514:	20 e0       	ldi	r18, 0x00	; 0
    3516:	30 e0       	ldi	r19, 0x00	; 0
    3518:	40 e4       	ldi	r20, 0x40	; 64
    351a:	51 e4       	ldi	r21, 0x41	; 65
    351c:	0e 94 f7 2b 	call	0x57ee	; 0x57ee <__gesf2>
    3520:	18 16       	cp	r1, r24
    3522:	0c f0       	brlt	.+2      	; 0x3526 <rightFollow+0x39c>
    3524:	41 ce       	rjmp	.-894    	; 0x31a8 <rightFollow+0x1e>
				go2ContAngle(90, 100); // Right 90 Turn
    3526:	44 e6       	ldi	r20, 0x64	; 100
    3528:	50 e0       	ldi	r21, 0x00	; 0
    352a:	60 e0       	ldi	r22, 0x00	; 0
    352c:	70 e0       	ldi	r23, 0x00	; 0
    352e:	84 eb       	ldi	r24, 0xB4	; 180
    3530:	92 e4       	ldi	r25, 0x42	; 66
    3532:	0e 94 03 18 	call	0x3006	; 0x3006 <go2ContAngle>
				STEPPER_move_rn(STEPPER_BOTH, // Forward movement
    3536:	1f 92       	push	r1
    3538:	1f 92       	push	r1
    353a:	1f 92       	push	r1
    353c:	f1 e0       	ldi	r31, 0x01	; 1
    353e:	ff 93       	push	r31
    3540:	20 e9       	ldi	r18, 0x90	; 144
    3542:	2f 93       	push	r18
    3544:	1f 92       	push	r1
    3546:	36 e9       	ldi	r19, 0x96	; 150
    3548:	3f 93       	push	r19
    354a:	1f 92       	push	r1
    354c:	1f 92       	push	r1
    354e:	20 e0       	ldi	r18, 0x00	; 0
    3550:	30 e0       	ldi	r19, 0x00	; 0
    3552:	40 e0       	ldi	r20, 0x00	; 0
    3554:	62 e0       	ldi	r22, 0x02	; 2
    3556:	82 e0       	ldi	r24, 0x02	; 2
    3558:	0e 94 fc 06 	call	0xdf8	; 0xdf8 <STEPPER_move>
						STEPPER_FWD, 150, 400,	//Left
						STEPPER_FWD, 150, 400);	//Right
				rightIR = getRightIR();
    355c:	0e 94 c8 16 	call	0x2d90	; 0x2d90 <getRightIR>
				while(rightIR > ICT){
    3560:	0f b6       	in	r0, 0x3f	; 63
    3562:	f8 94       	cli
    3564:	de bf       	out	0x3e, r29	; 62
    3566:	0f be       	out	0x3f, r0	; 63
    3568:	cd bf       	out	0x3d, r28	; 61
    356a:	20 e0       	ldi	r18, 0x00	; 0
    356c:	30 e0       	ldi	r19, 0x00	; 0
    356e:	40 e4       	ldi	r20, 0x40	; 64
    3570:	51 e4       	ldi	r21, 0x41	; 65
    3572:	0e 94 f7 2b 	call	0x57ee	; 0x57ee <__gesf2>
    3576:	18 16       	cp	r1, r24
    3578:	0c f0       	brlt	.+2      	; 0x357c <rightFollow+0x3f2>
    357a:	16 ce       	rjmp	.-980    	; 0x31a8 <rightFollow+0x1e>
					TMRSRVC_delay(100); // 0.1 sec delay
    357c:	84 e6       	ldi	r24, 0x64	; 100
    357e:	90 e0       	ldi	r25, 0x00	; 0
    3580:	0e 94 aa 0a 	call	0x1554	; 0x1554 <TMRSRVC_delay>
					rightIR = getRightIR();
    3584:	0e 94 c8 16 	call	0x2d90	; 0x2d90 <getRightIR>
				go2ContAngle(90, 100); // Right 90 Turn
				STEPPER_move_rn(STEPPER_BOTH, // Forward movement
						STEPPER_FWD, 150, 400,	//Left
						STEPPER_FWD, 150, 400);	//Right
				rightIR = getRightIR();
				while(rightIR > ICT){
    3588:	20 e0       	ldi	r18, 0x00	; 0
    358a:	30 e0       	ldi	r19, 0x00	; 0
    358c:	40 e4       	ldi	r20, 0x40	; 64
    358e:	51 e4       	ldi	r21, 0x41	; 65
    3590:	0e 94 f7 2b 	call	0x57ee	; 0x57ee <__gesf2>
    3594:	18 16       	cp	r1, r24
    3596:	94 f3       	brlt	.-28     	; 0x357c <rightFollow+0x3f2>
    3598:	07 ce       	rjmp	.-1010   	; 0x31a8 <rightFollow+0x1e>

0000359a <leftFollow>:
			}
		}
	}
}

void leftFollow(void){
    359a:	cf 93       	push	r28
    359c:	df 93       	push	r29
    359e:	00 d0       	rcall	.+0      	; 0x35a0 <leftFollow+0x6>
    35a0:	00 d0       	rcall	.+0      	; 0x35a2 <leftFollow+0x8>
    35a2:	1f 92       	push	r1
    35a4:	cd b7       	in	r28, 0x3d	; 61
    35a6:	de b7       	in	r29, 0x3e	; 62
	char lowerLimit = 4.75;
	char higherLimit = 5.25;
	char ICT = 12;
	float LP, RP, LWS, RWS, frontIR, rightIR, leftIR;
	float oLWS = 0;
	float oRWS = 0;
    35a8:	21 2c       	mov	r2, r1
    35aa:	31 2c       	mov	r3, r1
    35ac:	1a 82       	std	Y+2, r1	; 0x02
    35ae:	1b 82       	std	Y+3, r1	; 0x03
	// code that powers the left wall following routine
	char lowerLimit = 4.75;
	char higherLimit = 5.25;
	char ICT = 12;
	float LP, RP, LWS, RWS, frontIR, rightIR, leftIR;
	float oLWS = 0;
    35b0:	91 2c       	mov	r9, r1
    35b2:	19 82       	std	Y+1, r1	; 0x01
    35b4:	1d 82       	std	Y+5, r1	; 0x05
    35b6:	1c 82       	std	Y+4, r1	; 0x04
	char KP = 1.5;
	char KI = 0.75;
	char KD = 0;

	while(1){
		frontIR = getFrontIR();
    35b8:	0e 94 f0 16 	call	0x2de0	; 0x2de0 <getFrontIR>
    35bc:	2b 01       	movw	r4, r22
    35be:	3c 01       	movw	r6, r24
		rightIR = getRightIR();
    35c0:	0e 94 c8 16 	call	0x2d90	; 0x2d90 <getRightIR>
		leftIR = getLeftIR();
    35c4:	0e 94 a0 16 	call	0x2d40	; 0x2d40 <getLeftIR>
    35c8:	6b 01       	movw	r12, r22
    35ca:	7c 01       	movw	r14, r24
		if((frontIR > ICT) && (leftIR < ICT)){ // Condition for simple wall following
    35cc:	20 e0       	ldi	r18, 0x00	; 0
    35ce:	30 e0       	ldi	r19, 0x00	; 0
    35d0:	40 e4       	ldi	r20, 0x40	; 64
    35d2:	51 e4       	ldi	r21, 0x41	; 65
    35d4:	c3 01       	movw	r24, r6
    35d6:	b2 01       	movw	r22, r4
    35d8:	0e 94 f7 2b 	call	0x57ee	; 0x57ee <__gesf2>
    35dc:	18 16       	cp	r1, r24
    35de:	0c f0       	brlt	.+2      	; 0x35e2 <leftFollow+0x48>
    35e0:	fe c0       	rjmp	.+508    	; 0x37de <leftFollow+0x244>
    35e2:	20 e0       	ldi	r18, 0x00	; 0
    35e4:	30 e0       	ldi	r19, 0x00	; 0
    35e6:	40 e4       	ldi	r20, 0x40	; 64
    35e8:	51 e4       	ldi	r21, 0x41	; 65
    35ea:	c7 01       	movw	r24, r14
    35ec:	b6 01       	movw	r22, r12
    35ee:	0e 94 47 2a 	call	0x548e	; 0x548e <__cmpsf2>
    35f2:	88 23       	and	r24, r24
    35f4:	0c f0       	brlt	.+2      	; 0x35f8 <leftFollow+0x5e>
    35f6:	f3 c0       	rjmp	.+486    	; 0x37de <leftFollow+0x244>
			if (leftIR < lowerLimit){ // Too close to wall
    35f8:	20 e0       	ldi	r18, 0x00	; 0
    35fa:	30 e0       	ldi	r19, 0x00	; 0
    35fc:	40 e8       	ldi	r20, 0x80	; 128
    35fe:	50 e4       	ldi	r21, 0x40	; 64
    3600:	c7 01       	movw	r24, r14
    3602:	b6 01       	movw	r22, r12
    3604:	0e 94 47 2a 	call	0x548e	; 0x548e <__cmpsf2>
    3608:	88 23       	and	r24, r24
    360a:	d4 f4       	brge	.+52     	; 0x3640 <leftFollow+0xa6>
				LCD_clear();
    360c:	0e 94 ec 03 	call	0x7d8	; 0x7d8 <LCD_clear>
				LCD_printf("Left Follow\n");
    3610:	8a e8       	ldi	r24, 0x8A	; 138
    3612:	92 e0       	ldi	r25, 0x02	; 2
    3614:	0e 94 d1 34 	call	0x69a2	; 0x69a2 <puts>
				LCD_printf("Inside Target\n");
    3618:	87 e2       	ldi	r24, 0x27	; 39
    361a:	92 e0       	ldi	r25, 0x02	; 2
    361c:	0e 94 d1 34 	call	0x69a2	; 0x69a2 <puts>
				LCD_printf("Range\n");
    3620:	85 e3       	ldi	r24, 0x35	; 53
    3622:	92 e0       	ldi	r25, 0x02	; 2
    3624:	0e 94 d1 34 	call	0x69a2	; 0x69a2 <puts>

				LP = lowerLimit - leftIR;
    3628:	a7 01       	movw	r20, r14
    362a:	96 01       	movw	r18, r12
    362c:	60 e0       	ldi	r22, 0x00	; 0
    362e:	70 e0       	ldi	r23, 0x00	; 0
    3630:	80 e8       	ldi	r24, 0x80	; 128
    3632:	90 e4       	ldi	r25, 0x40	; 64
    3634:	0e 94 80 29 	call	0x5300	; 0x5300 <__subsf3>
				RP = 0;
    3638:	41 2c       	mov	r4, r1
    363a:	51 2c       	mov	r5, r1
    363c:	32 01       	movw	r6, r4
    363e:	39 c0       	rjmp	.+114    	; 0x36b2 <leftFollow+0x118>
				LI = LI++;
				RI = 0;
			}else if(leftIR > higherLimit){ // Too far from wall
    3640:	20 e0       	ldi	r18, 0x00	; 0
    3642:	30 e0       	ldi	r19, 0x00	; 0
    3644:	40 ea       	ldi	r20, 0xA0	; 160
    3646:	50 e4       	ldi	r21, 0x40	; 64
    3648:	c7 01       	movw	r24, r14
    364a:	b6 01       	movw	r22, r12
    364c:	0e 94 f7 2b 	call	0x57ee	; 0x57ee <__gesf2>
    3650:	18 16       	cp	r1, r24
    3652:	e4 f4       	brge	.+56     	; 0x368c <leftFollow+0xf2>
				LCD_clear();
    3654:	0e 94 ec 03 	call	0x7d8	; 0x7d8 <LCD_clear>
				LCD_printf("Left Follow\n");
    3658:	8a e8       	ldi	r24, 0x8A	; 138
    365a:	92 e0       	ldi	r25, 0x02	; 2
    365c:	0e 94 d1 34 	call	0x69a2	; 0x69a2 <puts>
				LCD_printf("Outside Target\n");
    3660:	8b e3       	ldi	r24, 0x3B	; 59
    3662:	92 e0       	ldi	r25, 0x02	; 2
    3664:	0e 94 d1 34 	call	0x69a2	; 0x69a2 <puts>
				LCD_printf("Range\n");
    3668:	85 e3       	ldi	r24, 0x35	; 53
    366a:	92 e0       	ldi	r25, 0x02	; 2
    366c:	0e 94 d1 34 	call	0x69a2	; 0x69a2 <puts>

				LP = 0;
				RP = leftIR - higherLimit;
    3670:	20 e0       	ldi	r18, 0x00	; 0
    3672:	30 e0       	ldi	r19, 0x00	; 0
    3674:	40 ea       	ldi	r20, 0xA0	; 160
    3676:	50 e4       	ldi	r21, 0x40	; 64
    3678:	c7 01       	movw	r24, r14
    367a:	b6 01       	movw	r22, r12
    367c:	0e 94 80 29 	call	0x5300	; 0x5300 <__subsf3>
    3680:	2b 01       	movw	r4, r22
    3682:	3c 01       	movw	r6, r24
				LCD_clear();
				LCD_printf("Left Follow\n");
				LCD_printf("Outside Target\n");
				LCD_printf("Range\n");

				LP = 0;
    3684:	60 e0       	ldi	r22, 0x00	; 0
    3686:	70 e0       	ldi	r23, 0x00	; 0
    3688:	cb 01       	movw	r24, r22
    368a:	13 c0       	rjmp	.+38     	; 0x36b2 <leftFollow+0x118>
				RP = leftIR - higherLimit;
				LI = 0;
				RI = RI++;
			}else{ // Proper range from wall
				LCD_clear();
    368c:	0e 94 ec 03 	call	0x7d8	; 0x7d8 <LCD_clear>
				LCD_printf("Left Follow\n");
    3690:	8a e8       	ldi	r24, 0x8A	; 138
    3692:	92 e0       	ldi	r25, 0x02	; 2
    3694:	0e 94 d1 34 	call	0x69a2	; 0x69a2 <puts>
				LCD_printf("At Target\n");
    3698:	8a e4       	ldi	r24, 0x4A	; 74
    369a:	92 e0       	ldi	r25, 0x02	; 2
    369c:	0e 94 d1 34 	call	0x69a2	; 0x69a2 <puts>
				LCD_printf("Range\n");
    36a0:	85 e3       	ldi	r24, 0x35	; 53
    36a2:	92 e0       	ldi	r25, 0x02	; 2
    36a4:	0e 94 d1 34 	call	0x69a2	; 0x69a2 <puts>

				LP = 0;
				RP = 0;
    36a8:	41 2c       	mov	r4, r1
    36aa:	51 2c       	mov	r5, r1
    36ac:	32 01       	movw	r6, r4
				LCD_clear();
				LCD_printf("Left Follow\n");
				LCD_printf("At Target\n");
				LCD_printf("Range\n");

				LP = 0;
    36ae:	c3 01       	movw	r24, r6
    36b0:	b2 01       	movw	r22, r4
				RI = 0;
			}

			// PID lopp

			LWS = KP*LP + KI*LI + base; // Proportinal and Integral
    36b2:	20 e0       	ldi	r18, 0x00	; 0
    36b4:	30 e0       	ldi	r19, 0x00	; 0
    36b6:	a9 01       	movw	r20, r18
    36b8:	0e 94 81 29 	call	0x5302	; 0x5302 <__addsf3>
    36bc:	20 e0       	ldi	r18, 0x00	; 0
    36be:	30 e0       	ldi	r19, 0x00	; 0
    36c0:	40 ef       	ldi	r20, 0xF0	; 240
    36c2:	52 e4       	ldi	r21, 0x42	; 66
    36c4:	0e 94 81 29 	call	0x5302	; 0x5302 <__addsf3>
    36c8:	e6 2e       	mov	r14, r22
    36ca:	f7 2e       	mov	r15, r23
    36cc:	08 2f       	mov	r16, r24
    36ce:	19 2f       	mov	r17, r25
			RWS = KP*RP + KI*RI + base;
    36d0:	20 e0       	ldi	r18, 0x00	; 0
    36d2:	30 e0       	ldi	r19, 0x00	; 0
    36d4:	a9 01       	movw	r20, r18
    36d6:	c3 01       	movw	r24, r6
    36d8:	b2 01       	movw	r22, r4
    36da:	0e 94 81 29 	call	0x5302	; 0x5302 <__addsf3>
    36de:	20 e0       	ldi	r18, 0x00	; 0
    36e0:	30 e0       	ldi	r19, 0x00	; 0
    36e2:	40 ef       	ldi	r20, 0xF0	; 240
    36e4:	52 e4       	ldi	r21, 0x42	; 66
    36e6:	0e 94 81 29 	call	0x5302	; 0x5302 <__addsf3>
    36ea:	46 2e       	mov	r4, r22
    36ec:	57 2e       	mov	r5, r23
    36ee:	68 2e       	mov	r6, r24
    36f0:	79 2e       	mov	r7, r25
			if (oLWS == 0){ // Case to prevent weird stuff on first run
    36f2:	20 e0       	ldi	r18, 0x00	; 0
    36f4:	30 e0       	ldi	r19, 0x00	; 0
    36f6:	a9 01       	movw	r20, r18
    36f8:	69 2d       	mov	r22, r9
    36fa:	79 81       	ldd	r23, Y+1	; 0x01
    36fc:	8d 81       	ldd	r24, Y+5	; 0x05
    36fe:	9c 81       	ldd	r25, Y+4	; 0x04
    3700:	0e 94 47 2a 	call	0x548e	; 0x548e <__cmpsf2>
    3704:	81 11       	cpse	r24, r1
    3706:	08 c0       	rjmp	.+16     	; 0x3718 <leftFollow+0x17e>
				oLWS = LWS;
				oRWS = RWS;
    3708:	24 2c       	mov	r2, r4
    370a:	35 2c       	mov	r3, r5
    370c:	6a 82       	std	Y+2, r6	; 0x02
    370e:	7b 82       	std	Y+3, r7	; 0x03
			// PID lopp

			LWS = KP*LP + KI*LI + base; // Proportinal and Integral
			RWS = KP*RP + KI*RI + base;
			if (oLWS == 0){ // Case to prevent weird stuff on first run
				oLWS = LWS;
    3710:	9e 2c       	mov	r9, r14
    3712:	f9 82       	std	Y+1, r15	; 0x01
    3714:	0d 83       	std	Y+5, r16	; 0x05
    3716:	1c 83       	std	Y+4, r17	; 0x04
				oRWS = RWS;
			}
			LWS = LWS + KD*(oLWS-LWS); // Derivative component
    3718:	2e 2d       	mov	r18, r14
    371a:	3f 2d       	mov	r19, r15
    371c:	40 2f       	mov	r20, r16
    371e:	51 2f       	mov	r21, r17
    3720:	69 2d       	mov	r22, r9
    3722:	79 81       	ldd	r23, Y+1	; 0x01
    3724:	8d 81       	ldd	r24, Y+5	; 0x05
    3726:	9c 81       	ldd	r25, Y+4	; 0x04
    3728:	0e 94 80 29 	call	0x5300	; 0x5300 <__subsf3>
    372c:	20 e0       	ldi	r18, 0x00	; 0
    372e:	30 e0       	ldi	r19, 0x00	; 0
    3730:	a9 01       	movw	r20, r18
    3732:	0e 94 02 2c 	call	0x5804	; 0x5804 <__mulsf3>
    3736:	2e 2d       	mov	r18, r14
    3738:	3f 2d       	mov	r19, r15
    373a:	40 2f       	mov	r20, r16
    373c:	51 2f       	mov	r21, r17
    373e:	0e 94 81 29 	call	0x5302	; 0x5302 <__addsf3>
    3742:	96 2e       	mov	r9, r22
    3744:	79 83       	std	Y+1, r23	; 0x01
    3746:	8d 83       	std	Y+5, r24	; 0x05
    3748:	9c 83       	std	Y+4, r25	; 0x04
			RWS = RWS + KD*(oRWS-RWS);
    374a:	24 2d       	mov	r18, r4
    374c:	35 2d       	mov	r19, r5
    374e:	46 2d       	mov	r20, r6
    3750:	57 2d       	mov	r21, r7
    3752:	62 2d       	mov	r22, r2
    3754:	73 2d       	mov	r23, r3
    3756:	8a 81       	ldd	r24, Y+2	; 0x02
    3758:	9b 81       	ldd	r25, Y+3	; 0x03
    375a:	0e 94 80 29 	call	0x5300	; 0x5300 <__subsf3>
    375e:	20 e0       	ldi	r18, 0x00	; 0
    3760:	30 e0       	ldi	r19, 0x00	; 0
    3762:	a9 01       	movw	r20, r18
    3764:	0e 94 02 2c 	call	0x5804	; 0x5804 <__mulsf3>
    3768:	24 2d       	mov	r18, r4
    376a:	35 2d       	mov	r19, r5
    376c:	46 2d       	mov	r20, r6
    376e:	57 2d       	mov	r21, r7
    3770:	0e 94 81 29 	call	0x5302	; 0x5302 <__addsf3>
    3774:	26 2e       	mov	r2, r22
    3776:	37 2e       	mov	r3, r23
    3778:	8a 83       	std	Y+2, r24	; 0x02
    377a:	9b 83       	std	Y+3, r25	; 0x03

			STEPPER_move_rn(STEPPER_BOTH, // Forward Movement based on input speeds
    377c:	69 2d       	mov	r22, r9
    377e:	79 81       	ldd	r23, Y+1	; 0x01
    3780:	8d 81       	ldd	r24, Y+5	; 0x05
    3782:	9c 81       	ldd	r25, Y+4	; 0x04
    3784:	0e 94 bb 2a 	call	0x5576	; 0x5576 <__fixunssfsi>
    3788:	2b 01       	movw	r4, r22
    378a:	3c 01       	movw	r6, r24
    378c:	1f 92       	push	r1
    378e:	1f 92       	push	r1
    3790:	1f 92       	push	r1
    3792:	21 e0       	ldi	r18, 0x01	; 1
    3794:	2f 93       	push	r18
    3796:	30 e9       	ldi	r19, 0x90	; 144
    3798:	3f 93       	push	r19
    379a:	62 2d       	mov	r22, r2
    379c:	73 2d       	mov	r23, r3
    379e:	8a 81       	ldd	r24, Y+2	; 0x02
    37a0:	9b 81       	ldd	r25, Y+3	; 0x03
    37a2:	0e 94 bb 2a 	call	0x5576	; 0x5576 <__fixunssfsi>
    37a6:	7f 93       	push	r23
    37a8:	6f 93       	push	r22
    37aa:	1f 92       	push	r1
    37ac:	1f 92       	push	r1
    37ae:	81 2c       	mov	r8, r1
    37b0:	a1 2c       	mov	r10, r1
    37b2:	b1 2c       	mov	r11, r1
    37b4:	c1 2c       	mov	r12, r1
    37b6:	0f 2e       	mov	r0, r31
    37b8:	f0 e9       	ldi	r31, 0x90	; 144
    37ba:	ef 2e       	mov	r14, r31
    37bc:	ff 24       	eor	r15, r15
    37be:	f3 94       	inc	r15
    37c0:	f0 2d       	mov	r31, r0
    37c2:	82 01       	movw	r16, r4
    37c4:	20 e0       	ldi	r18, 0x00	; 0
    37c6:	30 e0       	ldi	r19, 0x00	; 0
    37c8:	40 e0       	ldi	r20, 0x00	; 0
    37ca:	62 e0       	ldi	r22, 0x02	; 2
    37cc:	82 e0       	ldi	r24, 0x02	; 2
    37ce:	0e 94 fc 06 	call	0xdf8	; 0xdf8 <STEPPER_move>
					STEPPER_FWD, LWS, 400,	//Left
					STEPPER_FWD, RWS, 400);	//Right

			oLWS = LWS; // Remember previous speeds for derivative component
			oRWS = RWS;
    37d2:	0f b6       	in	r0, 0x3f	; 63
    37d4:	f8 94       	cli
    37d6:	de bf       	out	0x3e, r29	; 62
    37d8:	0f be       	out	0x3f, r0	; 63
    37da:	cd bf       	out	0x3d, r28	; 61
    37dc:	ed ce       	rjmp	.-550    	; 0x35b8 <leftFollow+0x1e>

		}else if((frontIR < ICT) && (leftIR < ICT)){ // Condition for if wall is in front
    37de:	20 e0       	ldi	r18, 0x00	; 0
    37e0:	30 e0       	ldi	r19, 0x00	; 0
    37e2:	40 e4       	ldi	r20, 0x40	; 64
    37e4:	51 e4       	ldi	r21, 0x41	; 65
    37e6:	c3 01       	movw	r24, r6
    37e8:	b2 01       	movw	r22, r4
    37ea:	0e 94 47 2a 	call	0x548e	; 0x548e <__cmpsf2>
    37ee:	88 23       	and	r24, r24
    37f0:	0c f0       	brlt	.+2      	; 0x37f4 <leftFollow+0x25a>
    37f2:	4a c0       	rjmp	.+148    	; 0x3888 <leftFollow+0x2ee>
    37f4:	20 e0       	ldi	r18, 0x00	; 0
    37f6:	30 e0       	ldi	r19, 0x00	; 0
    37f8:	40 e4       	ldi	r20, 0x40	; 64
    37fa:	51 e4       	ldi	r21, 0x41	; 65
    37fc:	c7 01       	movw	r24, r14
    37fe:	b6 01       	movw	r22, r12
    3800:	0e 94 47 2a 	call	0x548e	; 0x548e <__cmpsf2>
    3804:	88 23       	and	r24, r24
    3806:	0c f0       	brlt	.+2      	; 0x380a <leftFollow+0x270>
    3808:	3f c0       	rjmp	.+126    	; 0x3888 <leftFollow+0x2ee>
			LCD_clear();
    380a:	0e 94 ec 03 	call	0x7d8	; 0x7d8 <LCD_clear>
			LCD_printf("Left Follow\n");
    380e:	8a e8       	ldi	r24, 0x8A	; 138
    3810:	92 e0       	ldi	r25, 0x02	; 2
    3812:	0e 94 d1 34 	call	0x69a2	; 0x69a2 <puts>
			LCD_printf("Wall in Front\n");
    3816:	84 e5       	ldi	r24, 0x54	; 84
    3818:	92 e0       	ldi	r25, 0x02	; 2
    381a:	0e 94 d1 34 	call	0x69a2	; 0x69a2 <puts>
			LCD_printf("Turning Right\n");
    381e:	8c e7       	ldi	r24, 0x7C	; 124
    3820:	92 e0       	ldi	r25, 0x02	; 2
    3822:	0e 94 d1 34 	call	0x69a2	; 0x69a2 <puts>

			STEPPER_move_rn(STEPPER_BOTH, // Forward movement
    3826:	1f 92       	push	r1
    3828:	1f 92       	push	r1
    382a:	1f 92       	push	r1
    382c:	91 e0       	ldi	r25, 0x01	; 1
    382e:	9f 93       	push	r25
    3830:	e0 e9       	ldi	r30, 0x90	; 144
    3832:	ef 93       	push	r30
    3834:	1f 92       	push	r1
    3836:	f6 e9       	ldi	r31, 0x96	; 150
    3838:	ff 93       	push	r31
    383a:	1f 92       	push	r1
    383c:	1f 92       	push	r1
    383e:	81 2c       	mov	r8, r1
    3840:	a1 2c       	mov	r10, r1
    3842:	b1 2c       	mov	r11, r1
    3844:	c1 2c       	mov	r12, r1
    3846:	0f 2e       	mov	r0, r31
    3848:	f0 e9       	ldi	r31, 0x90	; 144
    384a:	ef 2e       	mov	r14, r31
    384c:	ff 24       	eor	r15, r15
    384e:	f3 94       	inc	r15
    3850:	f0 2d       	mov	r31, r0
    3852:	06 e9       	ldi	r16, 0x96	; 150
    3854:	10 e0       	ldi	r17, 0x00	; 0
    3856:	20 e0       	ldi	r18, 0x00	; 0
    3858:	30 e0       	ldi	r19, 0x00	; 0
    385a:	40 e0       	ldi	r20, 0x00	; 0
    385c:	62 e0       	ldi	r22, 0x02	; 2
    385e:	82 e0       	ldi	r24, 0x02	; 2
    3860:	0e 94 fc 06 	call	0xdf8	; 0xdf8 <STEPPER_move>
					STEPPER_FWD, 150, 400,	//Left
					STEPPER_FWD, 150, 400);	//Right
			TMRSRVC_delay(500); // 0.5 sec delay
    3864:	84 ef       	ldi	r24, 0xF4	; 244
    3866:	91 e0       	ldi	r25, 0x01	; 1
    3868:	0e 94 aa 0a 	call	0x1554	; 0x1554 <TMRSRVC_delay>
			go2ContAngle(90, 100); // Right 90 Turn
    386c:	44 e6       	ldi	r20, 0x64	; 100
    386e:	50 e0       	ldi	r21, 0x00	; 0
    3870:	60 e0       	ldi	r22, 0x00	; 0
    3872:	70 e0       	ldi	r23, 0x00	; 0
    3874:	84 eb       	ldi	r24, 0xB4	; 180
    3876:	92 e4       	ldi	r25, 0x42	; 66
    3878:	0e 94 03 18 	call	0x3006	; 0x3006 <go2ContAngle>
			LP = 0;
			RP = 0;
			LI = 0;
			RI = 0;	
    387c:	0f b6       	in	r0, 0x3f	; 63
    387e:	f8 94       	cli
    3880:	de bf       	out	0x3e, r29	; 62
    3882:	0f be       	out	0x3f, r0	; 63
    3884:	cd bf       	out	0x3d, r28	; 61
    3886:	98 ce       	rjmp	.-720    	; 0x35b8 <leftFollow+0x1e>
		}else if((frontIR > ICT) && (leftIR > ICT)){ // Condition for is no wall to follow or in front
    3888:	20 e0       	ldi	r18, 0x00	; 0
    388a:	30 e0       	ldi	r19, 0x00	; 0
    388c:	40 e4       	ldi	r20, 0x40	; 64
    388e:	51 e4       	ldi	r21, 0x41	; 65
    3890:	c3 01       	movw	r24, r6
    3892:	b2 01       	movw	r22, r4
    3894:	0e 94 f7 2b 	call	0x57ee	; 0x57ee <__gesf2>
    3898:	18 16       	cp	r1, r24
    389a:	0c f0       	brlt	.+2      	; 0x389e <leftFollow+0x304>
    389c:	8d ce       	rjmp	.-742    	; 0x35b8 <leftFollow+0x1e>
    389e:	20 e0       	ldi	r18, 0x00	; 0
    38a0:	30 e0       	ldi	r19, 0x00	; 0
    38a2:	40 e4       	ldi	r20, 0x40	; 64
    38a4:	51 e4       	ldi	r21, 0x41	; 65
    38a6:	c7 01       	movw	r24, r14
    38a8:	b6 01       	movw	r22, r12
    38aa:	0e 94 f7 2b 	call	0x57ee	; 0x57ee <__gesf2>
    38ae:	18 16       	cp	r1, r24
    38b0:	0c f0       	brlt	.+2      	; 0x38b4 <leftFollow+0x31a>
    38b2:	82 ce       	rjmp	.-764    	; 0x35b8 <leftFollow+0x1e>
			LCD_clear();
    38b4:	0e 94 ec 03 	call	0x7d8	; 0x7d8 <LCD_clear>
			LCD_printf("Left Follow\n");
    38b8:	8a e8       	ldi	r24, 0x8A	; 138
    38ba:	92 e0       	ldi	r25, 0x02	; 2
    38bc:	0e 94 d1 34 	call	0x69a2	; 0x69a2 <puts>
			LCD_printf("Lack of Wall\n");
    38c0:	8f e6       	ldi	r24, 0x6F	; 111
    38c2:	92 e0       	ldi	r25, 0x02	; 2
    38c4:	0e 94 d1 34 	call	0x69a2	; 0x69a2 <puts>
			LCD_printf("Turning Left\n");
    38c8:	82 e6       	ldi	r24, 0x62	; 98
    38ca:	92 e0       	ldi	r25, 0x02	; 2
    38cc:	0e 94 d1 34 	call	0x69a2	; 0x69a2 <puts>

			STEPPER_move_rn(STEPPER_BOTH, // Forward movement
    38d0:	1f 92       	push	r1
    38d2:	1f 92       	push	r1
    38d4:	1f 92       	push	r1
    38d6:	31 e0       	ldi	r19, 0x01	; 1
    38d8:	3f 93       	push	r19
    38da:	80 e9       	ldi	r24, 0x90	; 144
    38dc:	8f 93       	push	r24
    38de:	1f 92       	push	r1
    38e0:	96 e9       	ldi	r25, 0x96	; 150
    38e2:	9f 93       	push	r25
    38e4:	1f 92       	push	r1
    38e6:	1f 92       	push	r1
    38e8:	81 2c       	mov	r8, r1
    38ea:	a1 2c       	mov	r10, r1
    38ec:	b1 2c       	mov	r11, r1
    38ee:	c1 2c       	mov	r12, r1
    38f0:	0f 2e       	mov	r0, r31
    38f2:	f0 e9       	ldi	r31, 0x90	; 144
    38f4:	ef 2e       	mov	r14, r31
    38f6:	ff 24       	eor	r15, r15
    38f8:	f3 94       	inc	r15
    38fa:	f0 2d       	mov	r31, r0
    38fc:	06 e9       	ldi	r16, 0x96	; 150
    38fe:	10 e0       	ldi	r17, 0x00	; 0
    3900:	20 e0       	ldi	r18, 0x00	; 0
    3902:	30 e0       	ldi	r19, 0x00	; 0
    3904:	40 e0       	ldi	r20, 0x00	; 0
    3906:	62 e0       	ldi	r22, 0x02	; 2
    3908:	82 e0       	ldi	r24, 0x02	; 2
    390a:	0e 94 fc 06 	call	0xdf8	; 0xdf8 <STEPPER_move>
					STEPPER_FWD, 150, 400,	//Left
					STEPPER_FWD, 150, 400);	//Right
			TMRSRVC_delay(500); // 0.5 sec delay
    390e:	84 ef       	ldi	r24, 0xF4	; 244
    3910:	91 e0       	ldi	r25, 0x01	; 1
    3912:	0e 94 aa 0a 	call	0x1554	; 0x1554 <TMRSRVC_delay>
			leftIR = getLeftIR();
    3916:	0e 94 a0 16 	call	0x2d40	; 0x2d40 <getLeftIR>
			if ((frontIR > ICT) && (leftIR > ICT)){
    391a:	0f b6       	in	r0, 0x3f	; 63
    391c:	f8 94       	cli
    391e:	de bf       	out	0x3e, r29	; 62
    3920:	0f be       	out	0x3f, r0	; 63
    3922:	cd bf       	out	0x3d, r28	; 61
    3924:	20 e0       	ldi	r18, 0x00	; 0
    3926:	30 e0       	ldi	r19, 0x00	; 0
    3928:	40 e4       	ldi	r20, 0x40	; 64
    392a:	51 e4       	ldi	r21, 0x41	; 65
    392c:	0e 94 f7 2b 	call	0x57ee	; 0x57ee <__gesf2>
    3930:	18 16       	cp	r1, r24
    3932:	0c f0       	brlt	.+2      	; 0x3936 <leftFollow+0x39c>
    3934:	41 ce       	rjmp	.-894    	; 0x35b8 <leftFollow+0x1e>
				go2ContAngle(-90, 100); // Left 90 Turn
    3936:	44 e6       	ldi	r20, 0x64	; 100
    3938:	50 e0       	ldi	r21, 0x00	; 0
    393a:	60 e0       	ldi	r22, 0x00	; 0
    393c:	70 e0       	ldi	r23, 0x00	; 0
    393e:	84 eb       	ldi	r24, 0xB4	; 180
    3940:	92 ec       	ldi	r25, 0xC2	; 194
    3942:	0e 94 03 18 	call	0x3006	; 0x3006 <go2ContAngle>
				STEPPER_move_rn(STEPPER_BOTH, // Forward movement
    3946:	1f 92       	push	r1
    3948:	1f 92       	push	r1
    394a:	1f 92       	push	r1
    394c:	f1 e0       	ldi	r31, 0x01	; 1
    394e:	ff 93       	push	r31
    3950:	20 e9       	ldi	r18, 0x90	; 144
    3952:	2f 93       	push	r18
    3954:	1f 92       	push	r1
    3956:	36 e9       	ldi	r19, 0x96	; 150
    3958:	3f 93       	push	r19
    395a:	1f 92       	push	r1
    395c:	1f 92       	push	r1
    395e:	20 e0       	ldi	r18, 0x00	; 0
    3960:	30 e0       	ldi	r19, 0x00	; 0
    3962:	40 e0       	ldi	r20, 0x00	; 0
    3964:	62 e0       	ldi	r22, 0x02	; 2
    3966:	82 e0       	ldi	r24, 0x02	; 2
    3968:	0e 94 fc 06 	call	0xdf8	; 0xdf8 <STEPPER_move>
						STEPPER_FWD, 150, 400,	//Left
						STEPPER_FWD, 150, 400);	//Right
				leftIR = getLeftIR();
    396c:	0e 94 a0 16 	call	0x2d40	; 0x2d40 <getLeftIR>
				while(leftIR > ICT){
    3970:	0f b6       	in	r0, 0x3f	; 63
    3972:	f8 94       	cli
    3974:	de bf       	out	0x3e, r29	; 62
    3976:	0f be       	out	0x3f, r0	; 63
    3978:	cd bf       	out	0x3d, r28	; 61
    397a:	20 e0       	ldi	r18, 0x00	; 0
    397c:	30 e0       	ldi	r19, 0x00	; 0
    397e:	40 e4       	ldi	r20, 0x40	; 64
    3980:	51 e4       	ldi	r21, 0x41	; 65
    3982:	0e 94 f7 2b 	call	0x57ee	; 0x57ee <__gesf2>
    3986:	18 16       	cp	r1, r24
    3988:	0c f0       	brlt	.+2      	; 0x398c <leftFollow+0x3f2>
    398a:	16 ce       	rjmp	.-980    	; 0x35b8 <leftFollow+0x1e>
					TMRSRVC_delay(100); // 0.1 sec delay
    398c:	84 e6       	ldi	r24, 0x64	; 100
    398e:	90 e0       	ldi	r25, 0x00	; 0
    3990:	0e 94 aa 0a 	call	0x1554	; 0x1554 <TMRSRVC_delay>
					leftIR = getLeftIR();
    3994:	0e 94 a0 16 	call	0x2d40	; 0x2d40 <getLeftIR>
				go2ContAngle(-90, 100); // Left 90 Turn
				STEPPER_move_rn(STEPPER_BOTH, // Forward movement
						STEPPER_FWD, 150, 400,	//Left
						STEPPER_FWD, 150, 400);	//Right
				leftIR = getLeftIR();
				while(leftIR > ICT){
    3998:	20 e0       	ldi	r18, 0x00	; 0
    399a:	30 e0       	ldi	r19, 0x00	; 0
    399c:	40 e4       	ldi	r20, 0x40	; 64
    399e:	51 e4       	ldi	r21, 0x41	; 65
    39a0:	0e 94 f7 2b 	call	0x57ee	; 0x57ee <__gesf2>
    39a4:	18 16       	cp	r1, r24
    39a6:	94 f3       	brlt	.-28     	; 0x398c <leftFollow+0x3f2>
    39a8:	07 ce       	rjmp	.-1010   	; 0x35b8 <leftFollow+0x1e>

000039aa <centerFollow>:
				RI = 0;	
			}
		}
	}
}
void centerFollow(void){
    39aa:	2f 92       	push	r2
    39ac:	3f 92       	push	r3
    39ae:	4f 92       	push	r4
    39b0:	5f 92       	push	r5
    39b2:	6f 92       	push	r6
    39b4:	7f 92       	push	r7
    39b6:	8f 92       	push	r8
    39b8:	9f 92       	push	r9
    39ba:	af 92       	push	r10
    39bc:	bf 92       	push	r11
    39be:	cf 92       	push	r12
    39c0:	df 92       	push	r13
    39c2:	ef 92       	push	r14
    39c4:	ff 92       	push	r15
    39c6:	0f 93       	push	r16
    39c8:	1f 93       	push	r17
    39ca:	cf 93       	push	r28
    39cc:	df 93       	push	r29
    39ce:	cd b7       	in	r28, 0x3d	; 61
    39d0:	de b7       	in	r29, 0x3e	; 62
    39d2:	2f 97       	sbiw	r28, 0x0f	; 15
    39d4:	0f b6       	in	r0, 0x3f	; 63
    39d6:	f8 94       	cli
    39d8:	de bf       	out	0x3e, r29	; 62
    39da:	0f be       	out	0x3f, r0	; 63
    39dc:	cd bf       	out	0x3d, r28	; 61

	char KP = 1.5;
	char KI = 0.75;
	char KD = 0;

	rightIR = getRightIR();
    39de:	0e 94 c8 16 	call	0x2d90	; 0x2d90 <getRightIR>
    39e2:	6b 01       	movw	r12, r22
    39e4:	7c 01       	movw	r14, r24
	leftIR = getLeftIR();
    39e6:	0e 94 a0 16 	call	0x2d40	; 0x2d40 <getLeftIR>
	while ((leftIR < ICT) && (rightIR < ICT)){ // If between two walls
    39ea:	20 e0       	ldi	r18, 0x00	; 0
    39ec:	30 e0       	ldi	r19, 0x00	; 0
    39ee:	40 e4       	ldi	r20, 0x40	; 64
    39f0:	51 e4       	ldi	r21, 0x41	; 65
    39f2:	0e 94 47 2a 	call	0x548e	; 0x548e <__cmpsf2>
    39f6:	88 23       	and	r24, r24
    39f8:	0c f0       	brlt	.+2      	; 0x39fc <centerFollow+0x52>
    39fa:	5d c1       	rjmp	.+698    	; 0x3cb6 <centerFollow+0x30c>
    39fc:	20 e0       	ldi	r18, 0x00	; 0
    39fe:	30 e0       	ldi	r19, 0x00	; 0
    3a00:	40 e4       	ldi	r20, 0x40	; 64
    3a02:	51 e4       	ldi	r21, 0x41	; 65
    3a04:	c7 01       	movw	r24, r14
    3a06:	b6 01       	movw	r22, r12
    3a08:	0e 94 47 2a 	call	0x548e	; 0x548e <__cmpsf2>
    3a0c:	88 23       	and	r24, r24
    3a0e:	0c f0       	brlt	.+2      	; 0x3a12 <centerFollow+0x68>
    3a10:	52 c1       	rjmp	.+676    	; 0x3cb6 <centerFollow+0x30c>
void centerFollow(void){
	// Code that powers the center follower
	char tollerance_band = 0;
	float LP, RP, LWS, RWS, frontIR, rightIR, leftIR, avrageIR;
	float oLWS = 0;
	float oRWS = 0;
    3a12:	1d 82       	std	Y+5, r1	; 0x05
    3a14:	1e 82       	std	Y+6, r1	; 0x06
    3a16:	1f 82       	std	Y+7, r1	; 0x07
    3a18:	18 86       	std	Y+8, r1	; 0x08
}
void centerFollow(void){
	// Code that powers the center follower
	char tollerance_band = 0;
	float LP, RP, LWS, RWS, frontIR, rightIR, leftIR, avrageIR;
	float oLWS = 0;
    3a1a:	31 2c       	mov	r3, r1
    3a1c:	21 2c       	mov	r2, r1
    3a1e:	00 e0       	ldi	r16, 0x00	; 0
    3a20:	10 e0       	ldi	r17, 0x00	; 0
			oRWS = RWS;
		}
		LWS = LWS + KD*(oLWS-LWS); // Derivative Control
		RWS = RWS + KD*(oRWS-RWS);

		STEPPER_move_rn(STEPPER_BOTH, // Forward Movement based on input speeds
    3a22:	0e 87       	std	Y+14, r16	; 0x0e
    3a24:	1f 87       	std	Y+15, r17	; 0x0f
	char KD = 0;

	rightIR = getRightIR();
	leftIR = getLeftIR();
	while ((leftIR < ICT) && (rightIR < ICT)){ // If between two walls
		rightIR = getRightIR();
    3a26:	0e 94 c8 16 	call	0x2d90	; 0x2d90 <getRightIR>
    3a2a:	2b 01       	movw	r4, r22
    3a2c:	3c 01       	movw	r6, r24
		leftIR = getLeftIR();
    3a2e:	0e 94 a0 16 	call	0x2d40	; 0x2d40 <getLeftIR>
    3a32:	6a 87       	std	Y+10, r22	; 0x0a
    3a34:	7b 87       	std	Y+11, r23	; 0x0b
    3a36:	8c 87       	std	Y+12, r24	; 0x0c
    3a38:	9d 87       	std	Y+13, r25	; 0x0d
		avrageIR = (rightIR + leftIR)/2;
    3a3a:	9b 01       	movw	r18, r22
    3a3c:	ac 01       	movw	r20, r24
    3a3e:	c3 01       	movw	r24, r6
    3a40:	b2 01       	movw	r22, r4
    3a42:	0e 94 81 29 	call	0x5302	; 0x5302 <__addsf3>
    3a46:	20 e0       	ldi	r18, 0x00	; 0
    3a48:	30 e0       	ldi	r19, 0x00	; 0
    3a4a:	40 e0       	ldi	r20, 0x00	; 0
    3a4c:	5f e3       	ldi	r21, 0x3F	; 63
    3a4e:	0e 94 02 2c 	call	0x5804	; 0x5804 <__mulsf3>
    3a52:	4b 01       	movw	r8, r22
    3a54:	5c 01       	movw	r10, r24
		if ((rightIR - avrageIR) > tollerance_band){
    3a56:	9b 01       	movw	r18, r22
    3a58:	ac 01       	movw	r20, r24
    3a5a:	c3 01       	movw	r24, r6
    3a5c:	b2 01       	movw	r22, r4
    3a5e:	0e 94 80 29 	call	0x5300	; 0x5300 <__subsf3>
    3a62:	6b 01       	movw	r12, r22
    3a64:	7c 01       	movw	r14, r24
    3a66:	20 e0       	ldi	r18, 0x00	; 0
    3a68:	30 e0       	ldi	r19, 0x00	; 0
    3a6a:	a9 01       	movw	r20, r18
    3a6c:	0e 94 f7 2b 	call	0x57ee	; 0x57ee <__gesf2>
    3a70:	18 16       	cp	r1, r24
    3a72:	94 f4       	brge	.+36     	; 0x3a98 <centerFollow+0xee>
			//means left of center
			LCD_clear();
    3a74:	0e 94 ec 03 	call	0x7d8	; 0x7d8 <LCD_clear>
			LCD_printf("Center Follow\n");
    3a78:	86 e9       	ldi	r24, 0x96	; 150
    3a7a:	92 e0       	ldi	r25, 0x02	; 2
    3a7c:	0e 94 d1 34 	call	0x69a2	; 0x69a2 <puts>
			LCD_printf("Left of\n");
    3a80:	84 ea       	ldi	r24, 0xA4	; 164
    3a82:	92 e0       	ldi	r25, 0x02	; 2
    3a84:	0e 94 d1 34 	call	0x69a2	; 0x69a2 <puts>
			LCD_printf("Center\n");
    3a88:	8c ea       	ldi	r24, 0xAC	; 172
    3a8a:	92 e0       	ldi	r25, 0x02	; 2
    3a8c:	0e 94 d1 34 	call	0x69a2	; 0x69a2 <puts>

			LP = rightIR - avrageIR;
			RP = 0;
    3a90:	81 2c       	mov	r8, r1
    3a92:	91 2c       	mov	r9, r1
    3a94:	54 01       	movw	r10, r8
    3a96:	3c c0       	rjmp	.+120    	; 0x3b10 <centerFollow+0x166>
			LI = LI++;
			RI = 0;
		} else if ((avrageIR - rightIR) > (tollerance_band)) {
    3a98:	a3 01       	movw	r20, r6
    3a9a:	92 01       	movw	r18, r4
    3a9c:	c5 01       	movw	r24, r10
    3a9e:	b4 01       	movw	r22, r8
    3aa0:	0e 94 80 29 	call	0x5300	; 0x5300 <__subsf3>
    3aa4:	20 e0       	ldi	r18, 0x00	; 0
    3aa6:	30 e0       	ldi	r19, 0x00	; 0
    3aa8:	a9 01       	movw	r20, r18
    3aaa:	0e 94 f7 2b 	call	0x57ee	; 0x57ee <__gesf2>
    3aae:	18 16       	cp	r1, r24
    3ab0:	e4 f4       	brge	.+56     	; 0x3aea <centerFollow+0x140>
			//means right of center
			LCD_clear();
    3ab2:	0e 94 ec 03 	call	0x7d8	; 0x7d8 <LCD_clear>
			LCD_printf("Center Follow\n");
    3ab6:	86 e9       	ldi	r24, 0x96	; 150
    3ab8:	92 e0       	ldi	r25, 0x02	; 2
    3aba:	0e 94 d1 34 	call	0x69a2	; 0x69a2 <puts>
			LCD_printf("Right of\n");
    3abe:	83 eb       	ldi	r24, 0xB3	; 179
    3ac0:	92 e0       	ldi	r25, 0x02	; 2
    3ac2:	0e 94 d1 34 	call	0x69a2	; 0x69a2 <puts>
			LCD_printf("Center\n");
    3ac6:	8c ea       	ldi	r24, 0xAC	; 172
    3ac8:	92 e0       	ldi	r25, 0x02	; 2
    3aca:	0e 94 d1 34 	call	0x69a2	; 0x69a2 <puts>

			LP = 0;
			RP = leftIR - avrageIR;
    3ace:	a5 01       	movw	r20, r10
    3ad0:	94 01       	movw	r18, r8
    3ad2:	6a 85       	ldd	r22, Y+10	; 0x0a
    3ad4:	7b 85       	ldd	r23, Y+11	; 0x0b
    3ad6:	8c 85       	ldd	r24, Y+12	; 0x0c
    3ad8:	9d 85       	ldd	r25, Y+13	; 0x0d
    3ada:	0e 94 80 29 	call	0x5300	; 0x5300 <__subsf3>
    3ade:	4b 01       	movw	r8, r22
    3ae0:	5c 01       	movw	r10, r24
			LCD_clear();
			LCD_printf("Center Follow\n");
			LCD_printf("Right of\n");
			LCD_printf("Center\n");

			LP = 0;
    3ae2:	c1 2c       	mov	r12, r1
    3ae4:	d1 2c       	mov	r13, r1
    3ae6:	76 01       	movw	r14, r12
    3ae8:	13 c0       	rjmp	.+38     	; 0x3b10 <centerFollow+0x166>
			RP = leftIR - avrageIR;
			LI = 0;
			RI = RI++;
		} else {
			//means center of center
			LCD_clear();
    3aea:	0e 94 ec 03 	call	0x7d8	; 0x7d8 <LCD_clear>
			LCD_printf("I shall\n");
    3aee:	8c eb       	ldi	r24, 0xBC	; 188
    3af0:	92 e0       	ldi	r25, 0x02	; 2
    3af2:	0e 94 d1 34 	call	0x69a2	; 0x69a2 <puts>
			LCD_printf("fear no\n");
    3af6:	84 ec       	ldi	r24, 0xC4	; 196
    3af8:	92 e0       	ldi	r25, 0x02	; 2
    3afa:	0e 94 d1 34 	call	0x69a2	; 0x69a2 <puts>
			LCD_printf("evil\n");
    3afe:	8c ec       	ldi	r24, 0xCC	; 204
    3b00:	92 e0       	ldi	r25, 0x02	; 2
    3b02:	0e 94 d1 34 	call	0x69a2	; 0x69a2 <puts>

			LP = 0;
			RP = 0;
    3b06:	81 2c       	mov	r8, r1
    3b08:	91 2c       	mov	r9, r1
    3b0a:	54 01       	movw	r10, r8
			LCD_clear();
			LCD_printf("I shall\n");
			LCD_printf("fear no\n");
			LCD_printf("evil\n");

			LP = 0;
    3b0c:	75 01       	movw	r14, r10
    3b0e:	64 01       	movw	r12, r8
			RI = 0;
		}

		// PID lopp

		LWS = KP*LP + KI*LI + KD*oLWS + base; // Proportinal and Integral Control
    3b10:	20 e0       	ldi	r18, 0x00	; 0
    3b12:	30 e0       	ldi	r19, 0x00	; 0
    3b14:	a9 01       	movw	r20, r18
    3b16:	c7 01       	movw	r24, r14
    3b18:	b6 01       	movw	r22, r12
    3b1a:	0e 94 81 29 	call	0x5302	; 0x5302 <__addsf3>
    3b1e:	6b 01       	movw	r12, r22
    3b20:	7c 01       	movw	r14, r24
    3b22:	20 e0       	ldi	r18, 0x00	; 0
    3b24:	30 e0       	ldi	r19, 0x00	; 0
    3b26:	a9 01       	movw	r20, r18
    3b28:	63 2d       	mov	r22, r3
    3b2a:	72 2d       	mov	r23, r2
    3b2c:	8e 85       	ldd	r24, Y+14	; 0x0e
    3b2e:	9f 85       	ldd	r25, Y+15	; 0x0f
    3b30:	0e 94 02 2c 	call	0x5804	; 0x5804 <__mulsf3>
    3b34:	9b 01       	movw	r18, r22
    3b36:	ac 01       	movw	r20, r24
    3b38:	c7 01       	movw	r24, r14
    3b3a:	b6 01       	movw	r22, r12
    3b3c:	0e 94 81 29 	call	0x5302	; 0x5302 <__addsf3>
    3b40:	20 e0       	ldi	r18, 0x00	; 0
    3b42:	30 e0       	ldi	r19, 0x00	; 0
    3b44:	40 ef       	ldi	r20, 0xF0	; 240
    3b46:	52 e4       	ldi	r21, 0x42	; 66
    3b48:	0e 94 81 29 	call	0x5302	; 0x5302 <__addsf3>
    3b4c:	69 83       	std	Y+1, r22	; 0x01
    3b4e:	79 87       	std	Y+9, r23	; 0x09
    3b50:	18 2f       	mov	r17, r24
    3b52:	09 2f       	mov	r16, r25
		RWS = KP*RP + KI*RI + KD*oRWS + base;
    3b54:	20 e0       	ldi	r18, 0x00	; 0
    3b56:	30 e0       	ldi	r19, 0x00	; 0
    3b58:	a9 01       	movw	r20, r18
    3b5a:	c5 01       	movw	r24, r10
    3b5c:	b4 01       	movw	r22, r8
    3b5e:	0e 94 81 29 	call	0x5302	; 0x5302 <__addsf3>
    3b62:	6b 01       	movw	r12, r22
    3b64:	7c 01       	movw	r14, r24
    3b66:	20 e0       	ldi	r18, 0x00	; 0
    3b68:	30 e0       	ldi	r19, 0x00	; 0
    3b6a:	a9 01       	movw	r20, r18
    3b6c:	6d 81       	ldd	r22, Y+5	; 0x05
    3b6e:	7e 81       	ldd	r23, Y+6	; 0x06
    3b70:	8f 81       	ldd	r24, Y+7	; 0x07
    3b72:	98 85       	ldd	r25, Y+8	; 0x08
    3b74:	0e 94 02 2c 	call	0x5804	; 0x5804 <__mulsf3>
    3b78:	9b 01       	movw	r18, r22
    3b7a:	ac 01       	movw	r20, r24
    3b7c:	c7 01       	movw	r24, r14
    3b7e:	b6 01       	movw	r22, r12
    3b80:	0e 94 81 29 	call	0x5302	; 0x5302 <__addsf3>
    3b84:	20 e0       	ldi	r18, 0x00	; 0
    3b86:	30 e0       	ldi	r19, 0x00	; 0
    3b88:	40 ef       	ldi	r20, 0xF0	; 240
    3b8a:	52 e4       	ldi	r21, 0x42	; 66
    3b8c:	0e 94 81 29 	call	0x5302	; 0x5302 <__addsf3>
    3b90:	c6 2e       	mov	r12, r22
    3b92:	d7 2e       	mov	r13, r23
    3b94:	e8 2e       	mov	r14, r24
    3b96:	f9 2e       	mov	r15, r25
		if (oLWS == 0){ // For first case
    3b98:	20 e0       	ldi	r18, 0x00	; 0
    3b9a:	30 e0       	ldi	r19, 0x00	; 0
    3b9c:	a9 01       	movw	r20, r18
    3b9e:	63 2d       	mov	r22, r3
    3ba0:	72 2d       	mov	r23, r2
    3ba2:	8e 85       	ldd	r24, Y+14	; 0x0e
    3ba4:	9f 85       	ldd	r25, Y+15	; 0x0f
    3ba6:	0e 94 47 2a 	call	0x548e	; 0x548e <__cmpsf2>
    3baa:	81 11       	cpse	r24, r1
    3bac:	08 c0       	rjmp	.+16     	; 0x3bbe <centerFollow+0x214>
			oLWS = LWS;
			oRWS = RWS;
    3bae:	cd 82       	std	Y+5, r12	; 0x05
    3bb0:	de 82       	std	Y+6, r13	; 0x06
    3bb2:	ef 82       	std	Y+7, r14	; 0x07
    3bb4:	f8 86       	std	Y+8, r15	; 0x08
		// PID lopp

		LWS = KP*LP + KI*LI + KD*oLWS + base; // Proportinal and Integral Control
		RWS = KP*RP + KI*RI + KD*oRWS + base;
		if (oLWS == 0){ // For first case
			oLWS = LWS;
    3bb6:	39 80       	ldd	r3, Y+1	; 0x01
    3bb8:	29 84       	ldd	r2, Y+9	; 0x09
    3bba:	1e 87       	std	Y+14, r17	; 0x0e
    3bbc:	0f 87       	std	Y+15, r16	; 0x0f
			oRWS = RWS;
		}
		LWS = LWS + KD*(oLWS-LWS); // Derivative Control
    3bbe:	29 81       	ldd	r18, Y+1	; 0x01
    3bc0:	39 85       	ldd	r19, Y+9	; 0x09
    3bc2:	41 2f       	mov	r20, r17
    3bc4:	50 2f       	mov	r21, r16
    3bc6:	63 2d       	mov	r22, r3
    3bc8:	72 2d       	mov	r23, r2
    3bca:	8e 85       	ldd	r24, Y+14	; 0x0e
    3bcc:	9f 85       	ldd	r25, Y+15	; 0x0f
    3bce:	0e 94 80 29 	call	0x5300	; 0x5300 <__subsf3>
    3bd2:	20 e0       	ldi	r18, 0x00	; 0
    3bd4:	30 e0       	ldi	r19, 0x00	; 0
    3bd6:	a9 01       	movw	r20, r18
    3bd8:	0e 94 02 2c 	call	0x5804	; 0x5804 <__mulsf3>
    3bdc:	29 81       	ldd	r18, Y+1	; 0x01
    3bde:	39 85       	ldd	r19, Y+9	; 0x09
    3be0:	41 2f       	mov	r20, r17
    3be2:	50 2f       	mov	r21, r16
    3be4:	0e 94 81 29 	call	0x5302	; 0x5302 <__addsf3>
    3be8:	36 2e       	mov	r3, r22
    3bea:	27 2e       	mov	r2, r23
    3bec:	8e 87       	std	Y+14, r24	; 0x0e
    3bee:	9f 87       	std	Y+15, r25	; 0x0f
		RWS = RWS + KD*(oRWS-RWS);
    3bf0:	2c 2d       	mov	r18, r12
    3bf2:	3d 2d       	mov	r19, r13
    3bf4:	4e 2d       	mov	r20, r14
    3bf6:	5f 2d       	mov	r21, r15
    3bf8:	6d 81       	ldd	r22, Y+5	; 0x05
    3bfa:	7e 81       	ldd	r23, Y+6	; 0x06
    3bfc:	8f 81       	ldd	r24, Y+7	; 0x07
    3bfe:	98 85       	ldd	r25, Y+8	; 0x08
    3c00:	0e 94 80 29 	call	0x5300	; 0x5300 <__subsf3>
    3c04:	20 e0       	ldi	r18, 0x00	; 0
    3c06:	30 e0       	ldi	r19, 0x00	; 0
    3c08:	a9 01       	movw	r20, r18
    3c0a:	0e 94 02 2c 	call	0x5804	; 0x5804 <__mulsf3>
    3c0e:	2c 2d       	mov	r18, r12
    3c10:	3d 2d       	mov	r19, r13
    3c12:	4e 2d       	mov	r20, r14
    3c14:	5f 2d       	mov	r21, r15
    3c16:	0e 94 81 29 	call	0x5302	; 0x5302 <__addsf3>
    3c1a:	6d 83       	std	Y+5, r22	; 0x05
    3c1c:	7e 83       	std	Y+6, r23	; 0x06
    3c1e:	8f 83       	std	Y+7, r24	; 0x07
    3c20:	98 87       	std	Y+8, r25	; 0x08

		STEPPER_move_rn(STEPPER_BOTH, // Forward Movement based on input speeds
    3c22:	63 2d       	mov	r22, r3
    3c24:	72 2d       	mov	r23, r2
    3c26:	8e 85       	ldd	r24, Y+14	; 0x0e
    3c28:	9f 85       	ldd	r25, Y+15	; 0x0f
    3c2a:	0e 94 bb 2a 	call	0x5576	; 0x5576 <__fixunssfsi>
    3c2e:	69 83       	std	Y+1, r22	; 0x01
    3c30:	7a 83       	std	Y+2, r23	; 0x02
    3c32:	8b 83       	std	Y+3, r24	; 0x03
    3c34:	9c 83       	std	Y+4, r25	; 0x04
    3c36:	1f 92       	push	r1
    3c38:	1f 92       	push	r1
    3c3a:	1f 92       	push	r1
    3c3c:	81 e0       	ldi	r24, 0x01	; 1
    3c3e:	8f 93       	push	r24
    3c40:	90 e9       	ldi	r25, 0x90	; 144
    3c42:	9f 93       	push	r25
    3c44:	6d 81       	ldd	r22, Y+5	; 0x05
    3c46:	7e 81       	ldd	r23, Y+6	; 0x06
    3c48:	8f 81       	ldd	r24, Y+7	; 0x07
    3c4a:	98 85       	ldd	r25, Y+8	; 0x08
    3c4c:	0e 94 bb 2a 	call	0x5576	; 0x5576 <__fixunssfsi>
    3c50:	7f 93       	push	r23
    3c52:	6f 93       	push	r22
    3c54:	1f 92       	push	r1
    3c56:	1f 92       	push	r1
    3c58:	81 2c       	mov	r8, r1
    3c5a:	a1 2c       	mov	r10, r1
    3c5c:	b1 2c       	mov	r11, r1
    3c5e:	c1 2c       	mov	r12, r1
    3c60:	0f 2e       	mov	r0, r31
    3c62:	f0 e9       	ldi	r31, 0x90	; 144
    3c64:	ef 2e       	mov	r14, r31
    3c66:	ff 24       	eor	r15, r15
    3c68:	f3 94       	inc	r15
    3c6a:	f0 2d       	mov	r31, r0
    3c6c:	09 81       	ldd	r16, Y+1	; 0x01
    3c6e:	1a 81       	ldd	r17, Y+2	; 0x02
    3c70:	20 e0       	ldi	r18, 0x00	; 0
    3c72:	30 e0       	ldi	r19, 0x00	; 0
    3c74:	40 e0       	ldi	r20, 0x00	; 0
    3c76:	62 e0       	ldi	r22, 0x02	; 2
    3c78:	82 e0       	ldi	r24, 0x02	; 2
    3c7a:	0e 94 fc 06 	call	0xdf8	; 0xdf8 <STEPPER_move>
	char KI = 0.75;
	char KD = 0;

	rightIR = getRightIR();
	leftIR = getLeftIR();
	while ((leftIR < ICT) && (rightIR < ICT)){ // If between two walls
    3c7e:	0f b6       	in	r0, 0x3f	; 63
    3c80:	f8 94       	cli
    3c82:	de bf       	out	0x3e, r29	; 62
    3c84:	0f be       	out	0x3f, r0	; 63
    3c86:	cd bf       	out	0x3d, r28	; 61
    3c88:	20 e0       	ldi	r18, 0x00	; 0
    3c8a:	30 e0       	ldi	r19, 0x00	; 0
    3c8c:	40 e4       	ldi	r20, 0x40	; 64
    3c8e:	51 e4       	ldi	r21, 0x41	; 65
    3c90:	6a 85       	ldd	r22, Y+10	; 0x0a
    3c92:	7b 85       	ldd	r23, Y+11	; 0x0b
    3c94:	8c 85       	ldd	r24, Y+12	; 0x0c
    3c96:	9d 85       	ldd	r25, Y+13	; 0x0d
    3c98:	0e 94 47 2a 	call	0x548e	; 0x548e <__cmpsf2>
    3c9c:	88 23       	and	r24, r24
    3c9e:	5c f4       	brge	.+22     	; 0x3cb6 <centerFollow+0x30c>
    3ca0:	20 e0       	ldi	r18, 0x00	; 0
    3ca2:	30 e0       	ldi	r19, 0x00	; 0
    3ca4:	40 e4       	ldi	r20, 0x40	; 64
    3ca6:	51 e4       	ldi	r21, 0x41	; 65
    3ca8:	c3 01       	movw	r24, r6
    3caa:	b2 01       	movw	r22, r4
    3cac:	0e 94 47 2a 	call	0x548e	; 0x548e <__cmpsf2>
    3cb0:	88 23       	and	r24, r24
    3cb2:	0c f4       	brge	.+2      	; 0x3cb6 <centerFollow+0x30c>
    3cb4:	b8 ce       	rjmp	.-656    	; 0x3a26 <centerFollow+0x7c>
				STEPPER_FWD, RWS, 400);	//Right

		oLWS = LWS;
		oRWS = RWS;
	}	
}
    3cb6:	2f 96       	adiw	r28, 0x0f	; 15
    3cb8:	0f b6       	in	r0, 0x3f	; 63
    3cba:	f8 94       	cli
    3cbc:	de bf       	out	0x3e, r29	; 62
    3cbe:	0f be       	out	0x3f, r0	; 63
    3cc0:	cd bf       	out	0x3d, r28	; 61
    3cc2:	df 91       	pop	r29
    3cc4:	cf 91       	pop	r28
    3cc6:	1f 91       	pop	r17
    3cc8:	0f 91       	pop	r16
    3cca:	ff 90       	pop	r15
    3ccc:	ef 90       	pop	r14
    3cce:	df 90       	pop	r13
    3cd0:	cf 90       	pop	r12
    3cd2:	bf 90       	pop	r11
    3cd4:	af 90       	pop	r10
    3cd6:	9f 90       	pop	r9
    3cd8:	8f 90       	pop	r8
    3cda:	7f 90       	pop	r7
    3cdc:	6f 90       	pop	r6
    3cde:	5f 90       	pop	r5
    3ce0:	4f 90       	pop	r4
    3ce2:	3f 90       	pop	r3
    3ce4:	2f 90       	pop	r2
    3ce6:	08 95       	ret

00003ce8 <rightStepFollow>:
//
/* ---------------- Underneath are functions that use stepping: ---------------- */
//
//

void rightStepFollow(float* X, float* Y, float* orientation, float X_tar, float Y_tar){// Feed the addresses of X, Y and current orientation
    3ce8:	2f 92       	push	r2
    3cea:	3f 92       	push	r3
    3cec:	4f 92       	push	r4
    3cee:	5f 92       	push	r5
    3cf0:	6f 92       	push	r6
    3cf2:	7f 92       	push	r7
    3cf4:	8f 92       	push	r8
    3cf6:	9f 92       	push	r9
    3cf8:	af 92       	push	r10
    3cfa:	bf 92       	push	r11
    3cfc:	cf 92       	push	r12
    3cfe:	df 92       	push	r13
    3d00:	ef 92       	push	r14
    3d02:	ff 92       	push	r15
    3d04:	0f 93       	push	r16
    3d06:	1f 93       	push	r17
    3d08:	cf 93       	push	r28
    3d0a:	df 93       	push	r29
    3d0c:	cd b7       	in	r28, 0x3d	; 61
    3d0e:	de b7       	in	r29, 0x3e	; 62
    3d10:	64 97       	sbiw	r28, 0x14	; 20
    3d12:	0f b6       	in	r0, 0x3f	; 63
    3d14:	f8 94       	cli
    3d16:	de bf       	out	0x3e, r29	; 62
    3d18:	0f be       	out	0x3f, r0	; 63
    3d1a:	cd bf       	out	0x3d, r28	; 61
    3d1c:	9c 83       	std	Y+4, r25	; 0x04
    3d1e:	8b 83       	std	Y+3, r24	; 0x03
    3d20:	7e 83       	std	Y+6, r23	; 0x06
    3d22:	6d 83       	std	Y+5, r22	; 0x05
    3d24:	3a 01       	movw	r6, r20
    3d26:	0b 87       	std	Y+11, r16	; 0x0b
    3d28:	1c 87       	std	Y+12, r17	; 0x0c
    3d2a:	2d 87       	std	Y+13, r18	; 0x0d
    3d2c:	3e 87       	std	Y+14, r19	; 0x0e
    3d2e:	cf 86       	std	Y+15, r12	; 0x0f
    3d30:	d8 8a       	std	Y+16, r13	; 0x10
    3d32:	e9 8a       	std	Y+17, r14	; 0x11
    3d34:	fa 8a       	std	Y+18, r15	; 0x12
	char lowerLimit = 5;
	char higherLimit = 5;
	char ICT = 12;
	float LP, RP, LWS, RWS, frontIR, rightIR, leftIR, cur_Angle;
	float oLWS = 0;
	float oRWS = 0;
    3d36:	19 82       	std	Y+1, r1	; 0x01
    3d38:	1a 82       	std	Y+2, r1	; 0x02
    3d3a:	41 2c       	mov	r4, r1
    3d3c:	51 2c       	mov	r5, r1
void rightStepFollow(float* X, float* Y, float* orientation, float X_tar, float Y_tar){// Feed the addresses of X, Y and current orientation
	char lowerLimit = 5;
	char higherLimit = 5;
	char ICT = 12;
	float LP, RP, LWS, RWS, frontIR, rightIR, leftIR, cur_Angle;
	float oLWS = 0;
    3d3e:	e1 2c       	mov	r14, r1
    3d40:	f1 2c       	mov	r15, r1
    3d42:	31 2c       	mov	r3, r1
    3d44:	21 2c       	mov	r2, r1
    3d46:	ec 8a       	std	Y+20, r14	; 0x14
    3d48:	fb 8a       	std	Y+19, r15	; 0x13
	char KI = 0;
	char KD = 0;
	char break_condition = 0;

	while(break_condition == 0){
		frontIR = getFrontIR();
    3d4a:	0e 94 f0 16 	call	0x2de0	; 0x2de0 <getFrontIR>
    3d4e:	6b 01       	movw	r12, r22
    3d50:	7c 01       	movw	r14, r24
		rightIR = getRightIR();
    3d52:	0e 94 c8 16 	call	0x2d90	; 0x2d90 <getRightIR>
    3d56:	4b 01       	movw	r8, r22
    3d58:	5c 01       	movw	r10, r24
		leftIR = getLeftIR();
    3d5a:	0e 94 a0 16 	call	0x2d40	; 0x2d40 <getLeftIR>
		if((frontIR > ICT) && (rightIR < ICT)){
    3d5e:	20 e0       	ldi	r18, 0x00	; 0
    3d60:	30 e0       	ldi	r19, 0x00	; 0
    3d62:	40 e4       	ldi	r20, 0x40	; 64
    3d64:	51 e4       	ldi	r21, 0x41	; 65
    3d66:	c7 01       	movw	r24, r14
    3d68:	b6 01       	movw	r22, r12
    3d6a:	0e 94 f7 2b 	call	0x57ee	; 0x57ee <__gesf2>
    3d6e:	18 16       	cp	r1, r24
    3d70:	0c f0       	brlt	.+2      	; 0x3d74 <rightStepFollow+0x8c>
    3d72:	33 c1       	rjmp	.+614    	; 0x3fda <rightStepFollow+0x2f2>
    3d74:	20 e0       	ldi	r18, 0x00	; 0
    3d76:	30 e0       	ldi	r19, 0x00	; 0
    3d78:	40 e4       	ldi	r20, 0x40	; 64
    3d7a:	51 e4       	ldi	r21, 0x41	; 65
    3d7c:	c5 01       	movw	r24, r10
    3d7e:	b4 01       	movw	r22, r8
    3d80:	0e 94 47 2a 	call	0x548e	; 0x548e <__cmpsf2>
    3d84:	88 23       	and	r24, r24
    3d86:	0c f0       	brlt	.+2      	; 0x3d8a <rightStepFollow+0xa2>
    3d88:	28 c1       	rjmp	.+592    	; 0x3fda <rightStepFollow+0x2f2>
			if (rightIR < lowerLimit){
    3d8a:	20 e0       	ldi	r18, 0x00	; 0
    3d8c:	30 e0       	ldi	r19, 0x00	; 0
    3d8e:	40 ea       	ldi	r20, 0xA0	; 160
    3d90:	50 e4       	ldi	r21, 0x40	; 64
    3d92:	c5 01       	movw	r24, r10
    3d94:	b4 01       	movw	r22, r8
    3d96:	0e 94 47 2a 	call	0x548e	; 0x548e <__cmpsf2>
    3d9a:	88 23       	and	r24, r24
    3d9c:	e4 f4       	brge	.+56     	; 0x3dd6 <rightStepFollow+0xee>
				LCD_clear();
    3d9e:	0e 94 ec 03 	call	0x7d8	; 0x7d8 <LCD_clear>
				LCD_printf("Right Follow\n");
    3da2:	8a e1       	ldi	r24, 0x1A	; 26
    3da4:	92 e0       	ldi	r25, 0x02	; 2
    3da6:	0e 94 d1 34 	call	0x69a2	; 0x69a2 <puts>
				LCD_printf("Inside Target\n");
    3daa:	87 e2       	ldi	r24, 0x27	; 39
    3dac:	92 e0       	ldi	r25, 0x02	; 2
    3dae:	0e 94 d1 34 	call	0x69a2	; 0x69a2 <puts>
				LCD_printf("Range\n");
    3db2:	85 e3       	ldi	r24, 0x35	; 53
    3db4:	92 e0       	ldi	r25, 0x02	; 2
    3db6:	0e 94 d1 34 	call	0x69a2	; 0x69a2 <puts>

				LP = 0;
				RP = lowerLimit - rightIR;
    3dba:	a5 01       	movw	r20, r10
    3dbc:	94 01       	movw	r18, r8
    3dbe:	60 e0       	ldi	r22, 0x00	; 0
    3dc0:	70 e0       	ldi	r23, 0x00	; 0
    3dc2:	80 ea       	ldi	r24, 0xA0	; 160
    3dc4:	90 e4       	ldi	r25, 0x40	; 64
    3dc6:	0e 94 80 29 	call	0x5300	; 0x5300 <__subsf3>
    3dca:	6b 01       	movw	r12, r22
    3dcc:	7c 01       	movw	r14, r24
				LCD_clear();
				LCD_printf("Right Follow\n");
				LCD_printf("Inside Target\n");
				LCD_printf("Range\n");

				LP = 0;
    3dce:	60 e0       	ldi	r22, 0x00	; 0
    3dd0:	70 e0       	ldi	r23, 0x00	; 0
    3dd2:	cb 01       	movw	r24, r22
    3dd4:	37 c0       	rjmp	.+110    	; 0x3e44 <rightStepFollow+0x15c>
				RP = lowerLimit - rightIR;
				LI = 0;
				RI = RI++;
			}else if(rightIR > higherLimit){
    3dd6:	20 e0       	ldi	r18, 0x00	; 0
    3dd8:	30 e0       	ldi	r19, 0x00	; 0
    3dda:	40 ea       	ldi	r20, 0xA0	; 160
    3ddc:	50 e4       	ldi	r21, 0x40	; 64
    3dde:	c5 01       	movw	r24, r10
    3de0:	b4 01       	movw	r22, r8
    3de2:	0e 94 f7 2b 	call	0x57ee	; 0x57ee <__gesf2>
    3de6:	18 16       	cp	r1, r24
    3de8:	d4 f4       	brge	.+52     	; 0x3e1e <rightStepFollow+0x136>
				LCD_clear();
    3dea:	0e 94 ec 03 	call	0x7d8	; 0x7d8 <LCD_clear>
				LCD_printf("Right Follow\n");
    3dee:	8a e1       	ldi	r24, 0x1A	; 26
    3df0:	92 e0       	ldi	r25, 0x02	; 2
    3df2:	0e 94 d1 34 	call	0x69a2	; 0x69a2 <puts>
				LCD_printf("Outside Target\n");
    3df6:	8b e3       	ldi	r24, 0x3B	; 59
    3df8:	92 e0       	ldi	r25, 0x02	; 2
    3dfa:	0e 94 d1 34 	call	0x69a2	; 0x69a2 <puts>
				LCD_printf("Range\n");
    3dfe:	85 e3       	ldi	r24, 0x35	; 53
    3e00:	92 e0       	ldi	r25, 0x02	; 2
    3e02:	0e 94 d1 34 	call	0x69a2	; 0x69a2 <puts>

				LP = rightIR - higherLimit;
    3e06:	20 e0       	ldi	r18, 0x00	; 0
    3e08:	30 e0       	ldi	r19, 0x00	; 0
    3e0a:	40 ea       	ldi	r20, 0xA0	; 160
    3e0c:	50 e4       	ldi	r21, 0x40	; 64
    3e0e:	c5 01       	movw	r24, r10
    3e10:	b4 01       	movw	r22, r8
    3e12:	0e 94 80 29 	call	0x5300	; 0x5300 <__subsf3>
				RP = 0;
    3e16:	c1 2c       	mov	r12, r1
    3e18:	d1 2c       	mov	r13, r1
    3e1a:	76 01       	movw	r14, r12
    3e1c:	13 c0       	rjmp	.+38     	; 0x3e44 <rightStepFollow+0x15c>
				LI = LI++;
				RI = 0;
			}else{
				LCD_clear();
    3e1e:	0e 94 ec 03 	call	0x7d8	; 0x7d8 <LCD_clear>
				LCD_printf("Right Follow\n");
    3e22:	8a e1       	ldi	r24, 0x1A	; 26
    3e24:	92 e0       	ldi	r25, 0x02	; 2
    3e26:	0e 94 d1 34 	call	0x69a2	; 0x69a2 <puts>
				LCD_printf("At Target\n");
    3e2a:	8a e4       	ldi	r24, 0x4A	; 74
    3e2c:	92 e0       	ldi	r25, 0x02	; 2
    3e2e:	0e 94 d1 34 	call	0x69a2	; 0x69a2 <puts>
				LCD_printf("Range\n");
    3e32:	85 e3       	ldi	r24, 0x35	; 53
    3e34:	92 e0       	ldi	r25, 0x02	; 2
    3e36:	0e 94 d1 34 	call	0x69a2	; 0x69a2 <puts>

				LP = 0;
				RP = 0;
    3e3a:	c1 2c       	mov	r12, r1
    3e3c:	d1 2c       	mov	r13, r1
    3e3e:	76 01       	movw	r14, r12
				LCD_clear();
				LCD_printf("Right Follow\n");
				LCD_printf("At Target\n");
				LCD_printf("Range\n");

				LP = 0;
    3e40:	c7 01       	movw	r24, r14
    3e42:	b6 01       	movw	r22, r12
				RP = 0;
				LI = 0;
				RI = 0;
			}

			LWS = KP*LP + KI*LI + base;
    3e44:	20 e0       	ldi	r18, 0x00	; 0
    3e46:	30 e0       	ldi	r19, 0x00	; 0
    3e48:	a9 01       	movw	r20, r18
    3e4a:	0e 94 81 29 	call	0x5302	; 0x5302 <__addsf3>
    3e4e:	20 e0       	ldi	r18, 0x00	; 0
    3e50:	30 e0       	ldi	r19, 0x00	; 0
    3e52:	40 ef       	ldi	r20, 0xF0	; 240
    3e54:	52 e4       	ldi	r21, 0x42	; 66
    3e56:	0e 94 81 29 	call	0x5302	; 0x5302 <__addsf3>
    3e5a:	86 2e       	mov	r8, r22
    3e5c:	97 2e       	mov	r9, r23
    3e5e:	a8 2e       	mov	r10, r24
    3e60:	b9 2e       	mov	r11, r25
			RWS = KP*RP + KI*RI + base;
    3e62:	20 e0       	ldi	r18, 0x00	; 0
    3e64:	30 e0       	ldi	r19, 0x00	; 0
    3e66:	a9 01       	movw	r20, r18
    3e68:	c7 01       	movw	r24, r14
    3e6a:	b6 01       	movw	r22, r12
    3e6c:	0e 94 81 29 	call	0x5302	; 0x5302 <__addsf3>
    3e70:	20 e0       	ldi	r18, 0x00	; 0
    3e72:	30 e0       	ldi	r19, 0x00	; 0
    3e74:	40 ef       	ldi	r20, 0xF0	; 240
    3e76:	52 e4       	ldi	r21, 0x42	; 66
    3e78:	0e 94 81 29 	call	0x5302	; 0x5302 <__addsf3>
    3e7c:	c6 2e       	mov	r12, r22
    3e7e:	d7 2e       	mov	r13, r23
    3e80:	e8 2e       	mov	r14, r24
    3e82:	f9 2e       	mov	r15, r25
			if (oLWS == 0){
    3e84:	20 e0       	ldi	r18, 0x00	; 0
    3e86:	30 e0       	ldi	r19, 0x00	; 0
    3e88:	a9 01       	movw	r20, r18
    3e8a:	6c 89       	ldd	r22, Y+20	; 0x14
    3e8c:	7b 89       	ldd	r23, Y+19	; 0x13
    3e8e:	83 2d       	mov	r24, r3
    3e90:	92 2d       	mov	r25, r2
    3e92:	0e 94 47 2a 	call	0x548e	; 0x548e <__cmpsf2>
    3e96:	81 11       	cpse	r24, r1
    3e98:	08 c0       	rjmp	.+16     	; 0x3eaa <rightStepFollow+0x1c2>
				oLWS = LWS;
				oRWS = RWS;
    3e9a:	c9 82       	std	Y+1, r12	; 0x01
    3e9c:	da 82       	std	Y+2, r13	; 0x02
    3e9e:	5e 2c       	mov	r5, r14
    3ea0:	4f 2c       	mov	r4, r15
			}

			LWS = KP*LP + KI*LI + base;
			RWS = KP*RP + KI*RI + base;
			if (oLWS == 0){
				oLWS = LWS;
    3ea2:	8c 8a       	std	Y+20, r8	; 0x14
    3ea4:	9b 8a       	std	Y+19, r9	; 0x13
    3ea6:	3a 2c       	mov	r3, r10
    3ea8:	2b 2c       	mov	r2, r11
				oRWS = RWS;
			}
			LWS = LWS + KD*(oLWS-LWS);
    3eaa:	28 2d       	mov	r18, r8
    3eac:	39 2d       	mov	r19, r9
    3eae:	4a 2d       	mov	r20, r10
    3eb0:	5b 2d       	mov	r21, r11
    3eb2:	6c 89       	ldd	r22, Y+20	; 0x14
    3eb4:	7b 89       	ldd	r23, Y+19	; 0x13
    3eb6:	83 2d       	mov	r24, r3
    3eb8:	92 2d       	mov	r25, r2
    3eba:	0e 94 80 29 	call	0x5300	; 0x5300 <__subsf3>
    3ebe:	20 e0       	ldi	r18, 0x00	; 0
    3ec0:	30 e0       	ldi	r19, 0x00	; 0
    3ec2:	a9 01       	movw	r20, r18
    3ec4:	0e 94 02 2c 	call	0x5804	; 0x5804 <__mulsf3>
    3ec8:	28 2d       	mov	r18, r8
    3eca:	39 2d       	mov	r19, r9
    3ecc:	4a 2d       	mov	r20, r10
    3ece:	5b 2d       	mov	r21, r11
    3ed0:	0e 94 81 29 	call	0x5302	; 0x5302 <__addsf3>
    3ed4:	6c 8b       	std	Y+20, r22	; 0x14
    3ed6:	7b 8b       	std	Y+19, r23	; 0x13
    3ed8:	38 2e       	mov	r3, r24
    3eda:	29 2e       	mov	r2, r25
			RWS = RWS + KD*(oRWS-RWS);
    3edc:	2c 2d       	mov	r18, r12
    3ede:	3d 2d       	mov	r19, r13
    3ee0:	4e 2d       	mov	r20, r14
    3ee2:	5f 2d       	mov	r21, r15
    3ee4:	69 81       	ldd	r22, Y+1	; 0x01
    3ee6:	7a 81       	ldd	r23, Y+2	; 0x02
    3ee8:	85 2d       	mov	r24, r5
    3eea:	94 2d       	mov	r25, r4
    3eec:	0e 94 80 29 	call	0x5300	; 0x5300 <__subsf3>
    3ef0:	20 e0       	ldi	r18, 0x00	; 0
    3ef2:	30 e0       	ldi	r19, 0x00	; 0
    3ef4:	a9 01       	movw	r20, r18
    3ef6:	0e 94 02 2c 	call	0x5804	; 0x5804 <__mulsf3>
    3efa:	2c 2d       	mov	r18, r12
    3efc:	3d 2d       	mov	r19, r13
    3efe:	4e 2d       	mov	r20, r14
    3f00:	5f 2d       	mov	r21, r15
    3f02:	0e 94 81 29 	call	0x5302	; 0x5302 <__addsf3>
    3f06:	69 83       	std	Y+1, r22	; 0x01
    3f08:	7a 83       	std	Y+2, r23	; 0x02
    3f0a:	58 2e       	mov	r5, r24
    3f0c:	49 2e       	mov	r4, r25
			

			pseudo_Stepper_Step(RWS, LWS, 0.1);	// (Right Wheel Speed, Left Wheel Speed, Duration)
    3f0e:	1d ec       	ldi	r17, 0xCD	; 205
    3f10:	e1 2e       	mov	r14, r17
    3f12:	1c ec       	ldi	r17, 0xCC	; 204
    3f14:	f1 2e       	mov	r15, r17
    3f16:	0c ec       	ldi	r16, 0xCC	; 204
    3f18:	1d e3       	ldi	r17, 0x3D	; 61
    3f1a:	2c 89       	ldd	r18, Y+20	; 0x14
    3f1c:	3b 89       	ldd	r19, Y+19	; 0x13
    3f1e:	43 2d       	mov	r20, r3
    3f20:	52 2d       	mov	r21, r2
    3f22:	94 2d       	mov	r25, r4
    3f24:	0e 94 a2 15 	call	0x2b44	; 0x2b44 <pseudo_Stepper_Step>

			oLWS = LWS;
			oRWS = RWS;

			// Computations for position
			*X = cos((*orientation))*((RWS+LWS)*0.1*0.108/2) + (*X);
    3f28:	f3 01       	movw	r30, r6
    3f2a:	60 81       	ld	r22, Z
    3f2c:	71 81       	ldd	r23, Z+1	; 0x01
    3f2e:	82 81       	ldd	r24, Z+2	; 0x02
    3f30:	93 81       	ldd	r25, Z+3	; 0x03
    3f32:	0e 94 4b 2a 	call	0x5496	; 0x5496 <cos>
    3f36:	4b 01       	movw	r8, r22
    3f38:	5c 01       	movw	r10, r24
    3f3a:	2c 89       	ldd	r18, Y+20	; 0x14
    3f3c:	3b 89       	ldd	r19, Y+19	; 0x13
    3f3e:	43 2d       	mov	r20, r3
    3f40:	52 2d       	mov	r21, r2
    3f42:	69 81       	ldd	r22, Y+1	; 0x01
    3f44:	7a 81       	ldd	r23, Y+2	; 0x02
    3f46:	85 2d       	mov	r24, r5
    3f48:	94 2d       	mov	r25, r4
    3f4a:	0e 94 81 29 	call	0x5302	; 0x5302 <__addsf3>
    3f4e:	a8 01       	movw	r20, r16
    3f50:	97 01       	movw	r18, r14
    3f52:	0e 94 02 2c 	call	0x5804	; 0x5804 <__mulsf3>
    3f56:	2b e1       	ldi	r18, 0x1B	; 27
    3f58:	3f e2       	ldi	r19, 0x2F	; 47
    3f5a:	4d ed       	ldi	r20, 0xDD	; 221
    3f5c:	5d e3       	ldi	r21, 0x3D	; 61
    3f5e:	0e 94 02 2c 	call	0x5804	; 0x5804 <__mulsf3>
    3f62:	20 e0       	ldi	r18, 0x00	; 0
    3f64:	30 e0       	ldi	r19, 0x00	; 0
    3f66:	40 e0       	ldi	r20, 0x00	; 0
    3f68:	5f e3       	ldi	r21, 0x3F	; 63
    3f6a:	0e 94 02 2c 	call	0x5804	; 0x5804 <__mulsf3>
    3f6e:	6b 01       	movw	r12, r22
    3f70:	7c 01       	movw	r14, r24
    3f72:	9b 01       	movw	r18, r22
    3f74:	ac 01       	movw	r20, r24
    3f76:	c5 01       	movw	r24, r10
    3f78:	b4 01       	movw	r22, r8
    3f7a:	0e 94 02 2c 	call	0x5804	; 0x5804 <__mulsf3>
    3f7e:	9b 01       	movw	r18, r22
    3f80:	ac 01       	movw	r20, r24
    3f82:	eb 81       	ldd	r30, Y+3	; 0x03
    3f84:	fc 81       	ldd	r31, Y+4	; 0x04
    3f86:	60 81       	ld	r22, Z
    3f88:	71 81       	ldd	r23, Z+1	; 0x01
    3f8a:	82 81       	ldd	r24, Z+2	; 0x02
    3f8c:	93 81       	ldd	r25, Z+3	; 0x03
    3f8e:	0e 94 81 29 	call	0x5302	; 0x5302 <__addsf3>
    3f92:	eb 81       	ldd	r30, Y+3	; 0x03
    3f94:	fc 81       	ldd	r31, Y+4	; 0x04
    3f96:	60 83       	st	Z, r22
    3f98:	71 83       	std	Z+1, r23	; 0x01
    3f9a:	82 83       	std	Z+2, r24	; 0x02
    3f9c:	93 83       	std	Z+3, r25	; 0x03
			*Y = sin((*orientation))*((RWS+LWS)*0.1*0.108/2) + (*Y);	
    3f9e:	f3 01       	movw	r30, r6
    3fa0:	60 81       	ld	r22, Z
    3fa2:	71 81       	ldd	r23, Z+1	; 0x01
    3fa4:	82 81       	ldd	r24, Z+2	; 0x02
    3fa6:	93 81       	ldd	r25, Z+3	; 0x03
    3fa8:	0e 94 65 2c 	call	0x58ca	; 0x58ca <sin>
    3fac:	9b 01       	movw	r18, r22
    3fae:	ac 01       	movw	r20, r24
    3fb0:	c7 01       	movw	r24, r14
    3fb2:	b6 01       	movw	r22, r12
    3fb4:	0e 94 02 2c 	call	0x5804	; 0x5804 <__mulsf3>
    3fb8:	9b 01       	movw	r18, r22
    3fba:	ac 01       	movw	r20, r24
    3fbc:	ed 81       	ldd	r30, Y+5	; 0x05
    3fbe:	fe 81       	ldd	r31, Y+6	; 0x06
    3fc0:	60 81       	ld	r22, Z
    3fc2:	71 81       	ldd	r23, Z+1	; 0x01
    3fc4:	82 81       	ldd	r24, Z+2	; 0x02
    3fc6:	93 81       	ldd	r25, Z+3	; 0x03
    3fc8:	0e 94 81 29 	call	0x5302	; 0x5302 <__addsf3>
    3fcc:	ed 81       	ldd	r30, Y+5	; 0x05
    3fce:	fe 81       	ldd	r31, Y+6	; 0x06
    3fd0:	60 83       	st	Z, r22
    3fd2:	71 83       	std	Z+1, r23	; 0x01
    3fd4:	82 83       	std	Z+2, r24	; 0x02
    3fd6:	93 83       	std	Z+3, r25	; 0x03
    3fd8:	b8 ce       	rjmp	.-656    	; 0x3d4a <rightStepFollow+0x62>
			//

		}else if((frontIR < ICT) && (rightIR < ICT)){
    3fda:	20 e0       	ldi	r18, 0x00	; 0
    3fdc:	30 e0       	ldi	r19, 0x00	; 0
    3fde:	40 e4       	ldi	r20, 0x40	; 64
    3fe0:	51 e4       	ldi	r21, 0x41	; 65
    3fe2:	c7 01       	movw	r24, r14
    3fe4:	b6 01       	movw	r22, r12
    3fe6:	0e 94 47 2a 	call	0x548e	; 0x548e <__cmpsf2>
    3fea:	88 23       	and	r24, r24
    3fec:	0c f0       	brlt	.+2      	; 0x3ff0 <rightStepFollow+0x308>
    3fee:	94 c0       	rjmp	.+296    	; 0x4118 <rightStepFollow+0x430>
    3ff0:	20 e0       	ldi	r18, 0x00	; 0
    3ff2:	30 e0       	ldi	r19, 0x00	; 0
    3ff4:	40 e4       	ldi	r20, 0x40	; 64
    3ff6:	51 e4       	ldi	r21, 0x41	; 65
    3ff8:	c5 01       	movw	r24, r10
    3ffa:	b4 01       	movw	r22, r8
    3ffc:	0e 94 47 2a 	call	0x548e	; 0x548e <__cmpsf2>
    4000:	88 23       	and	r24, r24
    4002:	0c f0       	brlt	.+2      	; 0x4006 <rightStepFollow+0x31e>
    4004:	89 c0       	rjmp	.+274    	; 0x4118 <rightStepFollow+0x430>
			LCD_clear();
    4006:	0e 94 ec 03 	call	0x7d8	; 0x7d8 <LCD_clear>
			LCD_printf("Right Follow\n");
    400a:	8a e1       	ldi	r24, 0x1A	; 26
    400c:	92 e0       	ldi	r25, 0x02	; 2
    400e:	0e 94 d1 34 	call	0x69a2	; 0x69a2 <puts>
			LCD_printf("Wall in Front\n");
    4012:	84 e5       	ldi	r24, 0x54	; 84
    4014:	92 e0       	ldi	r25, 0x02	; 2
    4016:	0e 94 d1 34 	call	0x69a2	; 0x69a2 <puts>
			LCD_printf("Turning Left\n");
    401a:	82 e6       	ldi	r24, 0x62	; 98
    401c:	92 e0       	ldi	r25, 0x02	; 2
    401e:	0e 94 d1 34 	call	0x69a2	; 0x69a2 <puts>

			pseudo_Stepper_Step(150, 150, 0.5);	// (Right Wheel Speed, Left Wheel Speed, Duration)
    4022:	e1 2c       	mov	r14, r1
    4024:	f1 2c       	mov	r15, r1
    4026:	00 e0       	ldi	r16, 0x00	; 0
    4028:	1f e3       	ldi	r17, 0x3F	; 63
    402a:	20 e0       	ldi	r18, 0x00	; 0
    402c:	30 e0       	ldi	r19, 0x00	; 0
    402e:	46 e1       	ldi	r20, 0x16	; 22
    4030:	53 e4       	ldi	r21, 0x43	; 67
    4032:	ca 01       	movw	r24, r20
    4034:	b9 01       	movw	r22, r18
    4036:	0e 94 a2 15 	call	0x2b44	; 0x2b44 <pseudo_Stepper_Step>

			cur_Angle = Tar_vs_Cur_Angle(X_tar, Y_tar, *X, *Y);
    403a:	ed 81       	ldd	r30, Y+5	; 0x05
    403c:	fe 81       	ldd	r31, Y+6	; 0x06
    403e:	60 81       	ld	r22, Z
    4040:	71 81       	ldd	r23, Z+1	; 0x01
    4042:	82 81       	ldd	r24, Z+2	; 0x02
    4044:	93 81       	ldd	r25, Z+3	; 0x03
    4046:	0e 94 b6 2a 	call	0x556c	; 0x556c <__fixsfsi>
    404a:	6b 01       	movw	r12, r22
    404c:	7c 01       	movw	r14, r24
    404e:	eb 81       	ldd	r30, Y+3	; 0x03
    4050:	fc 81       	ldd	r31, Y+4	; 0x04
    4052:	60 81       	ld	r22, Z
    4054:	71 81       	ldd	r23, Z+1	; 0x01
    4056:	82 81       	ldd	r24, Z+2	; 0x02
    4058:	93 81       	ldd	r25, Z+3	; 0x03
    405a:	0e 94 b6 2a 	call	0x556c	; 0x556c <__fixsfsi>
    405e:	6f 83       	std	Y+7, r22	; 0x07
    4060:	78 87       	std	Y+8, r23	; 0x08
    4062:	89 87       	std	Y+9, r24	; 0x09
    4064:	9a 87       	std	Y+10, r25	; 0x0a
    4066:	6f 85       	ldd	r22, Y+15	; 0x0f
    4068:	78 89       	ldd	r23, Y+16	; 0x10
    406a:	89 89       	ldd	r24, Y+17	; 0x11
    406c:	9a 89       	ldd	r25, Y+18	; 0x12
    406e:	0e 94 b6 2a 	call	0x556c	; 0x556c <__fixsfsi>
    4072:	4b 01       	movw	r8, r22
    4074:	5c 01       	movw	r10, r24
    4076:	6b 85       	ldd	r22, Y+11	; 0x0b
    4078:	7c 85       	ldd	r23, Y+12	; 0x0c
    407a:	8d 85       	ldd	r24, Y+13	; 0x0d
    407c:	9e 85       	ldd	r25, Y+14	; 0x0e
    407e:	0e 94 b6 2a 	call	0x556c	; 0x556c <__fixsfsi>
    4082:	dc 01       	movw	r26, r24
    4084:	cb 01       	movw	r24, r22
    4086:	96 01       	movw	r18, r12
    4088:	4f 81       	ldd	r20, Y+7	; 0x07
    408a:	58 85       	ldd	r21, Y+8	; 0x08
    408c:	b4 01       	movw	r22, r8
    408e:	0e 94 13 16 	call	0x2c26	; 0x2c26 <Tar_vs_Cur_Angle>
    4092:	6b 01       	movw	r12, r22
    4094:	7c 01       	movw	r14, r24

			if ((cur_Angle >= (*orientation))&&(cur_Angle <= ((*orientation)+90))){
    4096:	f3 01       	movw	r30, r6
    4098:	80 80       	ld	r8, Z
    409a:	91 80       	ldd	r9, Z+1	; 0x01
    409c:	a2 80       	ldd	r10, Z+2	; 0x02
    409e:	b3 80       	ldd	r11, Z+3	; 0x03
    40a0:	a5 01       	movw	r20, r10
    40a2:	94 01       	movw	r18, r8
    40a4:	0e 94 f7 2b 	call	0x57ee	; 0x57ee <__gesf2>
    40a8:	88 23       	and	r24, r24
    40aa:	0c f1       	brlt	.+66     	; 0x40ee <rightStepFollow+0x406>
    40ac:	20 e0       	ldi	r18, 0x00	; 0
    40ae:	30 e0       	ldi	r19, 0x00	; 0
    40b0:	44 eb       	ldi	r20, 0xB4	; 180
    40b2:	52 e4       	ldi	r21, 0x42	; 66
    40b4:	c5 01       	movw	r24, r10
    40b6:	b4 01       	movw	r22, r8
    40b8:	0e 94 81 29 	call	0x5302	; 0x5302 <__addsf3>
    40bc:	9b 01       	movw	r18, r22
    40be:	ac 01       	movw	r20, r24
    40c0:	c7 01       	movw	r24, r14
    40c2:	b6 01       	movw	r22, r12
    40c4:	0e 94 47 2a 	call	0x548e	; 0x548e <__cmpsf2>
    40c8:	18 16       	cp	r1, r24
    40ca:	8c f0       	brlt	.+34     	; 0x40ee <rightStepFollow+0x406>
				go2Angle(cur_Angle-(*orientation)); // + is left, - is right
    40cc:	a5 01       	movw	r20, r10
    40ce:	94 01       	movw	r18, r8
    40d0:	c7 01       	movw	r24, r14
    40d2:	b6 01       	movw	r22, r12
    40d4:	0e 94 80 29 	call	0x5300	; 0x5300 <__subsf3>
    40d8:	0e 94 b6 2a 	call	0x556c	; 0x556c <__fixsfsi>
    40dc:	cb 01       	movw	r24, r22
    40de:	0e 94 c1 17 	call	0x2f82	; 0x2f82 <go2Angle>
				break_condition = 1;

				//Update Orientation
				*orientation = cur_Angle;
    40e2:	f3 01       	movw	r30, r6
    40e4:	c0 82       	st	Z, r12
    40e6:	d1 82       	std	Z+1, r13	; 0x01
    40e8:	e2 82       	std	Z+2, r14	; 0x02
    40ea:	f3 82       	std	Z+3, r15	; 0x03
    40ec:	5d c1       	rjmp	.+698    	; 0x43a8 <rightStepFollow+0x6c0>
				//

			}else{
				go2Angle(90); // + is left, - is right
    40ee:	8a e5       	ldi	r24, 0x5A	; 90
    40f0:	90 e0       	ldi	r25, 0x00	; 0
    40f2:	0e 94 c1 17 	call	0x2f82	; 0x2f82 <go2Angle>

				//Update Orientation
				*orientation = (*orientation) + 90;
    40f6:	20 e0       	ldi	r18, 0x00	; 0
    40f8:	30 e0       	ldi	r19, 0x00	; 0
    40fa:	44 eb       	ldi	r20, 0xB4	; 180
    40fc:	52 e4       	ldi	r21, 0x42	; 66
    40fe:	f3 01       	movw	r30, r6
    4100:	60 81       	ld	r22, Z
    4102:	71 81       	ldd	r23, Z+1	; 0x01
    4104:	82 81       	ldd	r24, Z+2	; 0x02
    4106:	93 81       	ldd	r25, Z+3	; 0x03
    4108:	0e 94 81 29 	call	0x5302	; 0x5302 <__addsf3>
    410c:	f3 01       	movw	r30, r6
    410e:	60 83       	st	Z, r22
    4110:	71 83       	std	Z+1, r23	; 0x01
    4112:	82 83       	std	Z+2, r24	; 0x02
    4114:	93 83       	std	Z+3, r25	; 0x03
    4116:	19 ce       	rjmp	.-974    	; 0x3d4a <rightStepFollow+0x62>
			}
			LP = 0;
			RP = 0;
			LI = 0;
			RI = 0;
		}else if((frontIR > ICT) && (rightIR > ICT)){
    4118:	20 e0       	ldi	r18, 0x00	; 0
    411a:	30 e0       	ldi	r19, 0x00	; 0
    411c:	40 e4       	ldi	r20, 0x40	; 64
    411e:	51 e4       	ldi	r21, 0x41	; 65
    4120:	c7 01       	movw	r24, r14
    4122:	b6 01       	movw	r22, r12
    4124:	0e 94 f7 2b 	call	0x57ee	; 0x57ee <__gesf2>
    4128:	18 16       	cp	r1, r24
    412a:	0c f0       	brlt	.+2      	; 0x412e <rightStepFollow+0x446>
    412c:	0e ce       	rjmp	.-996    	; 0x3d4a <rightStepFollow+0x62>
    412e:	20 e0       	ldi	r18, 0x00	; 0
    4130:	30 e0       	ldi	r19, 0x00	; 0
    4132:	40 e4       	ldi	r20, 0x40	; 64
    4134:	51 e4       	ldi	r21, 0x41	; 65
    4136:	c5 01       	movw	r24, r10
    4138:	b4 01       	movw	r22, r8
    413a:	0e 94 f7 2b 	call	0x57ee	; 0x57ee <__gesf2>
    413e:	18 16       	cp	r1, r24
    4140:	0c f0       	brlt	.+2      	; 0x4144 <rightStepFollow+0x45c>
    4142:	03 ce       	rjmp	.-1018   	; 0x3d4a <rightStepFollow+0x62>
			LCD_clear();
    4144:	0e 94 ec 03 	call	0x7d8	; 0x7d8 <LCD_clear>
			LCD_printf("Right Follow\n");
    4148:	8a e1       	ldi	r24, 0x1A	; 26
    414a:	92 e0       	ldi	r25, 0x02	; 2
    414c:	0e 94 d1 34 	call	0x69a2	; 0x69a2 <puts>
			LCD_printf("Lack of Wall\n");
    4150:	8f e6       	ldi	r24, 0x6F	; 111
    4152:	92 e0       	ldi	r25, 0x02	; 2
    4154:	0e 94 d1 34 	call	0x69a2	; 0x69a2 <puts>
			LCD_printf("Turning Right\n");
    4158:	8c e7       	ldi	r24, 0x7C	; 124
    415a:	92 e0       	ldi	r25, 0x02	; 2
    415c:	0e 94 d1 34 	call	0x69a2	; 0x69a2 <puts>

			pseudo_Stepper_Step(150, 150, 0.5);	// (Right Wheel Speed, Left Wheel Speed, Duration)
    4160:	e1 2c       	mov	r14, r1
    4162:	f1 2c       	mov	r15, r1
    4164:	00 e0       	ldi	r16, 0x00	; 0
    4166:	1f e3       	ldi	r17, 0x3F	; 63
    4168:	20 e0       	ldi	r18, 0x00	; 0
    416a:	30 e0       	ldi	r19, 0x00	; 0
    416c:	46 e1       	ldi	r20, 0x16	; 22
    416e:	53 e4       	ldi	r21, 0x43	; 67
    4170:	ca 01       	movw	r24, r20
    4172:	b9 01       	movw	r22, r18
    4174:	0e 94 a2 15 	call	0x2b44	; 0x2b44 <pseudo_Stepper_Step>

			// Computations for position
			*X = cos((*orientation))*(75*0.108) + (*X);
    4178:	f3 01       	movw	r30, r6
    417a:	60 81       	ld	r22, Z
    417c:	71 81       	ldd	r23, Z+1	; 0x01
    417e:	82 81       	ldd	r24, Z+2	; 0x02
    4180:	93 81       	ldd	r25, Z+3	; 0x03
    4182:	0e 94 4b 2a 	call	0x5496	; 0x5496 <cos>
    4186:	2a e9       	ldi	r18, 0x9A	; 154
    4188:	39 e9       	ldi	r19, 0x99	; 153
    418a:	41 e0       	ldi	r20, 0x01	; 1
    418c:	51 e4       	ldi	r21, 0x41	; 65
    418e:	0e 94 02 2c 	call	0x5804	; 0x5804 <__mulsf3>
    4192:	9b 01       	movw	r18, r22
    4194:	ac 01       	movw	r20, r24
    4196:	eb 81       	ldd	r30, Y+3	; 0x03
    4198:	fc 81       	ldd	r31, Y+4	; 0x04
    419a:	60 81       	ld	r22, Z
    419c:	71 81       	ldd	r23, Z+1	; 0x01
    419e:	82 81       	ldd	r24, Z+2	; 0x02
    41a0:	93 81       	ldd	r25, Z+3	; 0x03
    41a2:	0e 94 81 29 	call	0x5302	; 0x5302 <__addsf3>
    41a6:	eb 81       	ldd	r30, Y+3	; 0x03
    41a8:	fc 81       	ldd	r31, Y+4	; 0x04
    41aa:	60 83       	st	Z, r22
    41ac:	71 83       	std	Z+1, r23	; 0x01
    41ae:	82 83       	std	Z+2, r24	; 0x02
    41b0:	93 83       	std	Z+3, r25	; 0x03
			*Y = sin((*orientation))*(75*0.108) + (*Y);	
    41b2:	f3 01       	movw	r30, r6
    41b4:	60 81       	ld	r22, Z
    41b6:	71 81       	ldd	r23, Z+1	; 0x01
    41b8:	82 81       	ldd	r24, Z+2	; 0x02
    41ba:	93 81       	ldd	r25, Z+3	; 0x03
    41bc:	0e 94 65 2c 	call	0x58ca	; 0x58ca <sin>
    41c0:	2a e9       	ldi	r18, 0x9A	; 154
    41c2:	39 e9       	ldi	r19, 0x99	; 153
    41c4:	41 e0       	ldi	r20, 0x01	; 1
    41c6:	51 e4       	ldi	r21, 0x41	; 65
    41c8:	0e 94 02 2c 	call	0x5804	; 0x5804 <__mulsf3>
    41cc:	9b 01       	movw	r18, r22
    41ce:	ac 01       	movw	r20, r24
    41d0:	ed 81       	ldd	r30, Y+5	; 0x05
    41d2:	fe 81       	ldd	r31, Y+6	; 0x06
    41d4:	60 81       	ld	r22, Z
    41d6:	71 81       	ldd	r23, Z+1	; 0x01
    41d8:	82 81       	ldd	r24, Z+2	; 0x02
    41da:	93 81       	ldd	r25, Z+3	; 0x03
    41dc:	0e 94 81 29 	call	0x5302	; 0x5302 <__addsf3>
    41e0:	ed 81       	ldd	r30, Y+5	; 0x05
    41e2:	fe 81       	ldd	r31, Y+6	; 0x06
    41e4:	60 83       	st	Z, r22
    41e6:	71 83       	std	Z+1, r23	; 0x01
    41e8:	82 83       	std	Z+2, r24	; 0x02
    41ea:	93 83       	std	Z+3, r25	; 0x03
			//

			rightIR = getRightIR();
    41ec:	0e 94 c8 16 	call	0x2d90	; 0x2d90 <getRightIR>
			if ((frontIR > ICT) && (rightIR > ICT)){
    41f0:	20 e0       	ldi	r18, 0x00	; 0
    41f2:	30 e0       	ldi	r19, 0x00	; 0
    41f4:	40 e4       	ldi	r20, 0x40	; 64
    41f6:	51 e4       	ldi	r21, 0x41	; 65
    41f8:	0e 94 f7 2b 	call	0x57ee	; 0x57ee <__gesf2>
    41fc:	18 16       	cp	r1, r24
    41fe:	0c f0       	brlt	.+2      	; 0x4202 <rightStepFollow+0x51a>
    4200:	a4 cd       	rjmp	.-1208   	; 0x3d4a <rightStepFollow+0x62>
				cur_Angle = Tar_vs_Cur_Angle(X_tar, Y_tar, *X, *Y);
    4202:	ed 81       	ldd	r30, Y+5	; 0x05
    4204:	fe 81       	ldd	r31, Y+6	; 0x06
    4206:	60 81       	ld	r22, Z
    4208:	71 81       	ldd	r23, Z+1	; 0x01
    420a:	82 81       	ldd	r24, Z+2	; 0x02
    420c:	93 81       	ldd	r25, Z+3	; 0x03
    420e:	0e 94 b6 2a 	call	0x556c	; 0x556c <__fixsfsi>
    4212:	6b 01       	movw	r12, r22
    4214:	7c 01       	movw	r14, r24
    4216:	eb 81       	ldd	r30, Y+3	; 0x03
    4218:	fc 81       	ldd	r31, Y+4	; 0x04
    421a:	60 81       	ld	r22, Z
    421c:	71 81       	ldd	r23, Z+1	; 0x01
    421e:	82 81       	ldd	r24, Z+2	; 0x02
    4220:	93 81       	ldd	r25, Z+3	; 0x03
    4222:	0e 94 b6 2a 	call	0x556c	; 0x556c <__fixsfsi>
    4226:	6f 83       	std	Y+7, r22	; 0x07
    4228:	78 87       	std	Y+8, r23	; 0x08
    422a:	89 87       	std	Y+9, r24	; 0x09
    422c:	9a 87       	std	Y+10, r25	; 0x0a
    422e:	6f 85       	ldd	r22, Y+15	; 0x0f
    4230:	78 89       	ldd	r23, Y+16	; 0x10
    4232:	89 89       	ldd	r24, Y+17	; 0x11
    4234:	9a 89       	ldd	r25, Y+18	; 0x12
    4236:	0e 94 b6 2a 	call	0x556c	; 0x556c <__fixsfsi>
    423a:	4b 01       	movw	r8, r22
    423c:	5c 01       	movw	r10, r24
    423e:	6b 85       	ldd	r22, Y+11	; 0x0b
    4240:	7c 85       	ldd	r23, Y+12	; 0x0c
    4242:	8d 85       	ldd	r24, Y+13	; 0x0d
    4244:	9e 85       	ldd	r25, Y+14	; 0x0e
    4246:	0e 94 b6 2a 	call	0x556c	; 0x556c <__fixsfsi>
    424a:	dc 01       	movw	r26, r24
    424c:	cb 01       	movw	r24, r22
    424e:	96 01       	movw	r18, r12
    4250:	4f 81       	ldd	r20, Y+7	; 0x07
    4252:	58 85       	ldd	r21, Y+8	; 0x08
    4254:	b4 01       	movw	r22, r8
    4256:	0e 94 13 16 	call	0x2c26	; 0x2c26 <Tar_vs_Cur_Angle>
    425a:	6b 01       	movw	r12, r22
    425c:	7c 01       	movw	r14, r24

				if ((cur_Angle >= (*orientation)-90)&&(cur_Angle <= ((*orientation)))){
    425e:	f3 01       	movw	r30, r6
    4260:	80 80       	ld	r8, Z
    4262:	91 80       	ldd	r9, Z+1	; 0x01
    4264:	a2 80       	ldd	r10, Z+2	; 0x02
    4266:	b3 80       	ldd	r11, Z+3	; 0x03
    4268:	20 e0       	ldi	r18, 0x00	; 0
    426a:	30 e0       	ldi	r19, 0x00	; 0
    426c:	44 eb       	ldi	r20, 0xB4	; 180
    426e:	52 e4       	ldi	r21, 0x42	; 66
    4270:	c5 01       	movw	r24, r10
    4272:	b4 01       	movw	r22, r8
    4274:	0e 94 80 29 	call	0x5300	; 0x5300 <__subsf3>
    4278:	9b 01       	movw	r18, r22
    427a:	ac 01       	movw	r20, r24
    427c:	c7 01       	movw	r24, r14
    427e:	b6 01       	movw	r22, r12
    4280:	0e 94 f7 2b 	call	0x57ee	; 0x57ee <__gesf2>
    4284:	88 23       	and	r24, r24
    4286:	cc f0       	brlt	.+50     	; 0x42ba <rightStepFollow+0x5d2>
    4288:	a5 01       	movw	r20, r10
    428a:	94 01       	movw	r18, r8
    428c:	c7 01       	movw	r24, r14
    428e:	b6 01       	movw	r22, r12
    4290:	0e 94 47 2a 	call	0x548e	; 0x548e <__cmpsf2>
    4294:	18 16       	cp	r1, r24
    4296:	8c f0       	brlt	.+34     	; 0x42ba <rightStepFollow+0x5d2>
					go2Angle(cur_Angle-(*orientation)); // + is left, - is right
    4298:	a5 01       	movw	r20, r10
    429a:	94 01       	movw	r18, r8
    429c:	c7 01       	movw	r24, r14
    429e:	b6 01       	movw	r22, r12
    42a0:	0e 94 80 29 	call	0x5300	; 0x5300 <__subsf3>
    42a4:	0e 94 b6 2a 	call	0x556c	; 0x556c <__fixsfsi>
    42a8:	cb 01       	movw	r24, r22
    42aa:	0e 94 c1 17 	call	0x2f82	; 0x2f82 <go2Angle>
					break_condition = 1;

					//Update Orientation
					*orientation = cur_Angle;
    42ae:	f3 01       	movw	r30, r6
    42b0:	c0 82       	st	Z, r12
    42b2:	d1 82       	std	Z+1, r13	; 0x01
    42b4:	e2 82       	std	Z+2, r14	; 0x02
    42b6:	f3 82       	std	Z+3, r15	; 0x03
    42b8:	77 c0       	rjmp	.+238    	; 0x43a8 <rightStepFollow+0x6c0>
					//

				}else{
					go2Angle(-90); // + is left, - is right
    42ba:	86 ea       	ldi	r24, 0xA6	; 166
    42bc:	9f ef       	ldi	r25, 0xFF	; 255
    42be:	0e 94 c1 17 	call	0x2f82	; 0x2f82 <go2Angle>

					//Update Orientation
					*orientation = (*orientation) - 90;
    42c2:	20 e0       	ldi	r18, 0x00	; 0
    42c4:	30 e0       	ldi	r19, 0x00	; 0
    42c6:	44 eb       	ldi	r20, 0xB4	; 180
    42c8:	52 e4       	ldi	r21, 0x42	; 66
    42ca:	f3 01       	movw	r30, r6
    42cc:	60 81       	ld	r22, Z
    42ce:	71 81       	ldd	r23, Z+1	; 0x01
    42d0:	82 81       	ldd	r24, Z+2	; 0x02
    42d2:	93 81       	ldd	r25, Z+3	; 0x03
    42d4:	0e 94 80 29 	call	0x5300	; 0x5300 <__subsf3>
    42d8:	f3 01       	movw	r30, r6
    42da:	60 83       	st	Z, r22
    42dc:	71 83       	std	Z+1, r23	; 0x01
    42de:	82 83       	std	Z+2, r24	; 0x02
    42e0:	93 83       	std	Z+3, r25	; 0x03
					//

					rightIR = getRightIR();
    42e2:	0e 94 c8 16 	call	0x2d90	; 0x2d90 <getRightIR>
					while(rightIR > ICT){
    42e6:	20 e0       	ldi	r18, 0x00	; 0
    42e8:	30 e0       	ldi	r19, 0x00	; 0
    42ea:	40 e4       	ldi	r20, 0x40	; 64
    42ec:	51 e4       	ldi	r21, 0x41	; 65
    42ee:	0e 94 f7 2b 	call	0x57ee	; 0x57ee <__gesf2>
    42f2:	18 16       	cp	r1, r24
    42f4:	0c f0       	brlt	.+2      	; 0x42f8 <rightStepFollow+0x610>
    42f6:	29 cd       	rjmp	.-1454   	; 0x3d4a <rightStepFollow+0x62>
    42f8:	cd 80       	ldd	r12, Y+5	; 0x05
    42fa:	de 80       	ldd	r13, Y+6	; 0x06
    42fc:	bc 88       	ldd	r11, Y+20	; 0x14
    42fe:	ab 88       	ldd	r10, Y+19	; 0x13
    4300:	8b 80       	ldd	r8, Y+3	; 0x03
    4302:	9c 80       	ldd	r9, Y+4	; 0x04
						
						pseudo_Stepper_Step(150, 150, 0.1);	// (Right Wheel Speed, Left Wheel Speed, Duration)
    4304:	1d ec       	ldi	r17, 0xCD	; 205
    4306:	e1 2e       	mov	r14, r17
    4308:	1c ec       	ldi	r17, 0xCC	; 204
    430a:	f1 2e       	mov	r15, r17
    430c:	0c ec       	ldi	r16, 0xCC	; 204
    430e:	1d e3       	ldi	r17, 0x3D	; 61
    4310:	20 e0       	ldi	r18, 0x00	; 0
    4312:	30 e0       	ldi	r19, 0x00	; 0
    4314:	46 e1       	ldi	r20, 0x16	; 22
    4316:	53 e4       	ldi	r21, 0x43	; 67
    4318:	ca 01       	movw	r24, r20
    431a:	b9 01       	movw	r22, r18
    431c:	0e 94 a2 15 	call	0x2b44	; 0x2b44 <pseudo_Stepper_Step>
						// Computations for position
						*X = cos((*orientation))*(15*0.108) + (*X);
    4320:	f3 01       	movw	r30, r6
    4322:	60 81       	ld	r22, Z
    4324:	71 81       	ldd	r23, Z+1	; 0x01
    4326:	82 81       	ldd	r24, Z+2	; 0x02
    4328:	93 81       	ldd	r25, Z+3	; 0x03
    432a:	0e 94 4b 2a 	call	0x5496	; 0x5496 <cos>
    432e:	29 e2       	ldi	r18, 0x29	; 41
    4330:	3c e5       	ldi	r19, 0x5C	; 92
    4332:	4f ec       	ldi	r20, 0xCF	; 207
    4334:	5f e3       	ldi	r21, 0x3F	; 63
    4336:	0e 94 02 2c 	call	0x5804	; 0x5804 <__mulsf3>
    433a:	9b 01       	movw	r18, r22
    433c:	ac 01       	movw	r20, r24
    433e:	f4 01       	movw	r30, r8
    4340:	60 81       	ld	r22, Z
    4342:	71 81       	ldd	r23, Z+1	; 0x01
    4344:	82 81       	ldd	r24, Z+2	; 0x02
    4346:	93 81       	ldd	r25, Z+3	; 0x03
    4348:	0e 94 81 29 	call	0x5302	; 0x5302 <__addsf3>
    434c:	f4 01       	movw	r30, r8
    434e:	60 83       	st	Z, r22
    4350:	71 83       	std	Z+1, r23	; 0x01
    4352:	82 83       	std	Z+2, r24	; 0x02
    4354:	93 83       	std	Z+3, r25	; 0x03
						*Y = sin((*orientation))*(15*0.108) + (*Y);	
    4356:	f3 01       	movw	r30, r6
    4358:	60 81       	ld	r22, Z
    435a:	71 81       	ldd	r23, Z+1	; 0x01
    435c:	82 81       	ldd	r24, Z+2	; 0x02
    435e:	93 81       	ldd	r25, Z+3	; 0x03
    4360:	0e 94 65 2c 	call	0x58ca	; 0x58ca <sin>
    4364:	29 e2       	ldi	r18, 0x29	; 41
    4366:	3c e5       	ldi	r19, 0x5C	; 92
    4368:	4f ec       	ldi	r20, 0xCF	; 207
    436a:	5f e3       	ldi	r21, 0x3F	; 63
    436c:	0e 94 02 2c 	call	0x5804	; 0x5804 <__mulsf3>
    4370:	9b 01       	movw	r18, r22
    4372:	ac 01       	movw	r20, r24
    4374:	f6 01       	movw	r30, r12
    4376:	60 81       	ld	r22, Z
    4378:	71 81       	ldd	r23, Z+1	; 0x01
    437a:	82 81       	ldd	r24, Z+2	; 0x02
    437c:	93 81       	ldd	r25, Z+3	; 0x03
    437e:	0e 94 81 29 	call	0x5302	; 0x5302 <__addsf3>
    4382:	f6 01       	movw	r30, r12
    4384:	60 83       	st	Z, r22
    4386:	71 83       	std	Z+1, r23	; 0x01
    4388:	82 83       	std	Z+2, r24	; 0x02
    438a:	93 83       	std	Z+3, r25	; 0x03
						//
						rightIR = getRightIR();
    438c:	0e 94 c8 16 	call	0x2d90	; 0x2d90 <getRightIR>
					//Update Orientation
					*orientation = (*orientation) - 90;
					//

					rightIR = getRightIR();
					while(rightIR > ICT){
    4390:	20 e0       	ldi	r18, 0x00	; 0
    4392:	30 e0       	ldi	r19, 0x00	; 0
    4394:	40 e4       	ldi	r20, 0x40	; 64
    4396:	51 e4       	ldi	r21, 0x41	; 65
    4398:	0e 94 f7 2b 	call	0x57ee	; 0x57ee <__gesf2>
    439c:	18 16       	cp	r1, r24
    439e:	0c f4       	brge	.+2      	; 0x43a2 <rightStepFollow+0x6ba>
    43a0:	b1 cf       	rjmp	.-158    	; 0x4304 <rightStepFollow+0x61c>
    43a2:	bc 8a       	std	Y+20, r11	; 0x14
    43a4:	ab 8a       	std	Y+19, r10	; 0x13
    43a6:	d1 cc       	rjmp	.-1630   	; 0x3d4a <rightStepFollow+0x62>
					RI = 0;	
				}
			}
		}
	}
}
    43a8:	64 96       	adiw	r28, 0x14	; 20
    43aa:	0f b6       	in	r0, 0x3f	; 63
    43ac:	f8 94       	cli
    43ae:	de bf       	out	0x3e, r29	; 62
    43b0:	0f be       	out	0x3f, r0	; 63
    43b2:	cd bf       	out	0x3d, r28	; 61
    43b4:	df 91       	pop	r29
    43b6:	cf 91       	pop	r28
    43b8:	1f 91       	pop	r17
    43ba:	0f 91       	pop	r16
    43bc:	ff 90       	pop	r15
    43be:	ef 90       	pop	r14
    43c0:	df 90       	pop	r13
    43c2:	cf 90       	pop	r12
    43c4:	bf 90       	pop	r11
    43c6:	af 90       	pop	r10
    43c8:	9f 90       	pop	r9
    43ca:	8f 90       	pop	r8
    43cc:	7f 90       	pop	r7
    43ce:	6f 90       	pop	r6
    43d0:	5f 90       	pop	r5
    43d2:	4f 90       	pop	r4
    43d4:	3f 90       	pop	r3
    43d6:	2f 90       	pop	r2
    43d8:	08 95       	ret

000043da <leftStepFollow>:

void leftStepFollow(float *X, float *Y, float* orientation, float X_tar, float Y_tar){
    43da:	2f 92       	push	r2
    43dc:	3f 92       	push	r3
    43de:	4f 92       	push	r4
    43e0:	5f 92       	push	r5
    43e2:	6f 92       	push	r6
    43e4:	7f 92       	push	r7
    43e6:	8f 92       	push	r8
    43e8:	9f 92       	push	r9
    43ea:	af 92       	push	r10
    43ec:	bf 92       	push	r11
    43ee:	cf 92       	push	r12
    43f0:	df 92       	push	r13
    43f2:	ef 92       	push	r14
    43f4:	ff 92       	push	r15
    43f6:	0f 93       	push	r16
    43f8:	1f 93       	push	r17
    43fa:	cf 93       	push	r28
    43fc:	df 93       	push	r29
    43fe:	cd b7       	in	r28, 0x3d	; 61
    4400:	de b7       	in	r29, 0x3e	; 62
    4402:	64 97       	sbiw	r28, 0x14	; 20
    4404:	0f b6       	in	r0, 0x3f	; 63
    4406:	f8 94       	cli
    4408:	de bf       	out	0x3e, r29	; 62
    440a:	0f be       	out	0x3f, r0	; 63
    440c:	cd bf       	out	0x3d, r28	; 61
    440e:	7e 83       	std	Y+6, r23	; 0x06
    4410:	6d 83       	std	Y+5, r22	; 0x05
    4412:	3a 01       	movw	r6, r20
    4414:	0b 87       	std	Y+11, r16	; 0x0b
    4416:	1c 87       	std	Y+12, r17	; 0x0c
    4418:	2d 87       	std	Y+13, r18	; 0x0d
    441a:	3e 87       	std	Y+14, r19	; 0x0e
    441c:	cf 86       	std	Y+15, r12	; 0x0f
    441e:	d8 8a       	std	Y+16, r13	; 0x10
    4420:	e9 8a       	std	Y+17, r14	; 0x11
    4422:	fa 8a       	std	Y+18, r15	; 0x12
	char lowerLimit = 4.75;
	char higherLimit = 5.25;
	char ICT = 12;
	float LP, RP, LWS, RWS, frontIR, rightIR, leftIR, cur_Angle;
	float oLWS = 0;
	float oRWS = 0;
    4424:	1b 82       	std	Y+3, r1	; 0x03
    4426:	1c 82       	std	Y+4, r1	; 0x04
    4428:	41 2c       	mov	r4, r1
    442a:	51 2c       	mov	r5, r1
void leftStepFollow(float *X, float *Y, float* orientation, float X_tar, float Y_tar){
	char lowerLimit = 4.75;
	char higherLimit = 5.25;
	char ICT = 12;
	float LP, RP, LWS, RWS, frontIR, rightIR, leftIR, cur_Angle;
	float oLWS = 0;
    442c:	19 82       	std	Y+1, r1	; 0x01
    442e:	1a 82       	std	Y+2, r1	; 0x02
    4430:	31 2c       	mov	r3, r1
    4432:	21 2c       	mov	r2, r1
    4434:	9c 8b       	std	Y+20, r25	; 0x14
    4436:	8b 8b       	std	Y+19, r24	; 0x13
	TMRSRVC_delay(2000);
	LCD_printf("%f", *Y);
	TMRSRVC_delay(2000);*/

	while(break_condition == 0){
		frontIR = getFrontIR();
    4438:	0e 94 f0 16 	call	0x2de0	; 0x2de0 <getFrontIR>
    443c:	6b 01       	movw	r12, r22
    443e:	7c 01       	movw	r14, r24
		rightIR = getRightIR();
    4440:	0e 94 c8 16 	call	0x2d90	; 0x2d90 <getRightIR>
		leftIR = getLeftIR();
    4444:	0e 94 a0 16 	call	0x2d40	; 0x2d40 <getLeftIR>
    4448:	4b 01       	movw	r8, r22
    444a:	5c 01       	movw	r10, r24
		if((frontIR > ICT) && (leftIR < ICT)){
    444c:	20 e0       	ldi	r18, 0x00	; 0
    444e:	30 e0       	ldi	r19, 0x00	; 0
    4450:	40 e4       	ldi	r20, 0x40	; 64
    4452:	51 e4       	ldi	r21, 0x41	; 65
    4454:	c7 01       	movw	r24, r14
    4456:	b6 01       	movw	r22, r12
    4458:	0e 94 f7 2b 	call	0x57ee	; 0x57ee <__gesf2>
    445c:	18 16       	cp	r1, r24
    445e:	0c f0       	brlt	.+2      	; 0x4462 <leftStepFollow+0x88>
    4460:	33 c1       	rjmp	.+614    	; 0x46c8 <leftStepFollow+0x2ee>
    4462:	20 e0       	ldi	r18, 0x00	; 0
    4464:	30 e0       	ldi	r19, 0x00	; 0
    4466:	40 e4       	ldi	r20, 0x40	; 64
    4468:	51 e4       	ldi	r21, 0x41	; 65
    446a:	c5 01       	movw	r24, r10
    446c:	b4 01       	movw	r22, r8
    446e:	0e 94 47 2a 	call	0x548e	; 0x548e <__cmpsf2>
    4472:	88 23       	and	r24, r24
    4474:	0c f0       	brlt	.+2      	; 0x4478 <leftStepFollow+0x9e>
    4476:	28 c1       	rjmp	.+592    	; 0x46c8 <leftStepFollow+0x2ee>
			if (leftIR < lowerLimit){
    4478:	20 e0       	ldi	r18, 0x00	; 0
    447a:	30 e0       	ldi	r19, 0x00	; 0
    447c:	40 e8       	ldi	r20, 0x80	; 128
    447e:	50 e4       	ldi	r21, 0x40	; 64
    4480:	c5 01       	movw	r24, r10
    4482:	b4 01       	movw	r22, r8
    4484:	0e 94 47 2a 	call	0x548e	; 0x548e <__cmpsf2>
    4488:	88 23       	and	r24, r24
    448a:	d4 f4       	brge	.+52     	; 0x44c0 <leftStepFollow+0xe6>
				LCD_clear();
    448c:	0e 94 ec 03 	call	0x7d8	; 0x7d8 <LCD_clear>
				LCD_printf("Left Follow\n");
    4490:	8a e8       	ldi	r24, 0x8A	; 138
    4492:	92 e0       	ldi	r25, 0x02	; 2
    4494:	0e 94 d1 34 	call	0x69a2	; 0x69a2 <puts>
				LCD_printf("Inside Target\n");
    4498:	87 e2       	ldi	r24, 0x27	; 39
    449a:	92 e0       	ldi	r25, 0x02	; 2
    449c:	0e 94 d1 34 	call	0x69a2	; 0x69a2 <puts>
				LCD_printf("Range\n");
    44a0:	85 e3       	ldi	r24, 0x35	; 53
    44a2:	92 e0       	ldi	r25, 0x02	; 2
    44a4:	0e 94 d1 34 	call	0x69a2	; 0x69a2 <puts>

				LP = lowerLimit - leftIR;
    44a8:	a5 01       	movw	r20, r10
    44aa:	94 01       	movw	r18, r8
    44ac:	60 e0       	ldi	r22, 0x00	; 0
    44ae:	70 e0       	ldi	r23, 0x00	; 0
    44b0:	80 e8       	ldi	r24, 0x80	; 128
    44b2:	90 e4       	ldi	r25, 0x40	; 64
    44b4:	0e 94 80 29 	call	0x5300	; 0x5300 <__subsf3>
				RP = 0;
    44b8:	c1 2c       	mov	r12, r1
    44ba:	d1 2c       	mov	r13, r1
    44bc:	76 01       	movw	r14, r12
    44be:	39 c0       	rjmp	.+114    	; 0x4532 <leftStepFollow+0x158>
				LI = LI++;
				RI = 0;
			}else if(leftIR > higherLimit){
    44c0:	20 e0       	ldi	r18, 0x00	; 0
    44c2:	30 e0       	ldi	r19, 0x00	; 0
    44c4:	40 ea       	ldi	r20, 0xA0	; 160
    44c6:	50 e4       	ldi	r21, 0x40	; 64
    44c8:	c5 01       	movw	r24, r10
    44ca:	b4 01       	movw	r22, r8
    44cc:	0e 94 f7 2b 	call	0x57ee	; 0x57ee <__gesf2>
    44d0:	18 16       	cp	r1, r24
    44d2:	e4 f4       	brge	.+56     	; 0x450c <leftStepFollow+0x132>
				LCD_clear();
    44d4:	0e 94 ec 03 	call	0x7d8	; 0x7d8 <LCD_clear>
				LCD_printf("Left Follow\n");
    44d8:	8a e8       	ldi	r24, 0x8A	; 138
    44da:	92 e0       	ldi	r25, 0x02	; 2
    44dc:	0e 94 d1 34 	call	0x69a2	; 0x69a2 <puts>
				LCD_printf("Outside Target\n");
    44e0:	8b e3       	ldi	r24, 0x3B	; 59
    44e2:	92 e0       	ldi	r25, 0x02	; 2
    44e4:	0e 94 d1 34 	call	0x69a2	; 0x69a2 <puts>
				LCD_printf("Range\n");
    44e8:	85 e3       	ldi	r24, 0x35	; 53
    44ea:	92 e0       	ldi	r25, 0x02	; 2
    44ec:	0e 94 d1 34 	call	0x69a2	; 0x69a2 <puts>

				LP = 0;
				RP = leftIR - higherLimit;
    44f0:	20 e0       	ldi	r18, 0x00	; 0
    44f2:	30 e0       	ldi	r19, 0x00	; 0
    44f4:	40 ea       	ldi	r20, 0xA0	; 160
    44f6:	50 e4       	ldi	r21, 0x40	; 64
    44f8:	c5 01       	movw	r24, r10
    44fa:	b4 01       	movw	r22, r8
    44fc:	0e 94 80 29 	call	0x5300	; 0x5300 <__subsf3>
    4500:	6b 01       	movw	r12, r22
    4502:	7c 01       	movw	r14, r24
				LCD_clear();
				LCD_printf("Left Follow\n");
				LCD_printf("Outside Target\n");
				LCD_printf("Range\n");

				LP = 0;
    4504:	60 e0       	ldi	r22, 0x00	; 0
    4506:	70 e0       	ldi	r23, 0x00	; 0
    4508:	cb 01       	movw	r24, r22
    450a:	13 c0       	rjmp	.+38     	; 0x4532 <leftStepFollow+0x158>
				RP = leftIR - higherLimit;
				LI = 0;
				RI = RI++;
			}else{
				LCD_clear();
    450c:	0e 94 ec 03 	call	0x7d8	; 0x7d8 <LCD_clear>
				LCD_printf("Left Follow\n");
    4510:	8a e8       	ldi	r24, 0x8A	; 138
    4512:	92 e0       	ldi	r25, 0x02	; 2
    4514:	0e 94 d1 34 	call	0x69a2	; 0x69a2 <puts>
				LCD_printf("At Target\n");
    4518:	8a e4       	ldi	r24, 0x4A	; 74
    451a:	92 e0       	ldi	r25, 0x02	; 2
    451c:	0e 94 d1 34 	call	0x69a2	; 0x69a2 <puts>
				LCD_printf("Range\n");
    4520:	85 e3       	ldi	r24, 0x35	; 53
    4522:	92 e0       	ldi	r25, 0x02	; 2
    4524:	0e 94 d1 34 	call	0x69a2	; 0x69a2 <puts>

				LP = 0;
				RP = 0;
    4528:	c1 2c       	mov	r12, r1
    452a:	d1 2c       	mov	r13, r1
    452c:	76 01       	movw	r14, r12
				LCD_clear();
				LCD_printf("Left Follow\n");
				LCD_printf("At Target\n");
				LCD_printf("Range\n");

				LP = 0;
    452e:	c7 01       	movw	r24, r14
    4530:	b6 01       	movw	r22, r12
				RP = 0;
				LI = 0;
				RI = 0;
			}

			LWS = KP*LP + KI*LI + base;
    4532:	20 e0       	ldi	r18, 0x00	; 0
    4534:	30 e0       	ldi	r19, 0x00	; 0
    4536:	a9 01       	movw	r20, r18
    4538:	0e 94 81 29 	call	0x5302	; 0x5302 <__addsf3>
    453c:	20 e0       	ldi	r18, 0x00	; 0
    453e:	30 e0       	ldi	r19, 0x00	; 0
    4540:	40 ef       	ldi	r20, 0xF0	; 240
    4542:	52 e4       	ldi	r21, 0x42	; 66
    4544:	0e 94 81 29 	call	0x5302	; 0x5302 <__addsf3>
    4548:	86 2e       	mov	r8, r22
    454a:	97 2e       	mov	r9, r23
    454c:	a8 2e       	mov	r10, r24
    454e:	b9 2e       	mov	r11, r25
			RWS = KP*RP + KI*RI + base;
    4550:	20 e0       	ldi	r18, 0x00	; 0
    4552:	30 e0       	ldi	r19, 0x00	; 0
    4554:	a9 01       	movw	r20, r18
    4556:	c7 01       	movw	r24, r14
    4558:	b6 01       	movw	r22, r12
    455a:	0e 94 81 29 	call	0x5302	; 0x5302 <__addsf3>
    455e:	20 e0       	ldi	r18, 0x00	; 0
    4560:	30 e0       	ldi	r19, 0x00	; 0
    4562:	40 ef       	ldi	r20, 0xF0	; 240
    4564:	52 e4       	ldi	r21, 0x42	; 66
    4566:	0e 94 81 29 	call	0x5302	; 0x5302 <__addsf3>
    456a:	c6 2e       	mov	r12, r22
    456c:	d7 2e       	mov	r13, r23
    456e:	e8 2e       	mov	r14, r24
    4570:	f9 2e       	mov	r15, r25
			if (oLWS == 0){
    4572:	20 e0       	ldi	r18, 0x00	; 0
    4574:	30 e0       	ldi	r19, 0x00	; 0
    4576:	a9 01       	movw	r20, r18
    4578:	69 81       	ldd	r22, Y+1	; 0x01
    457a:	7a 81       	ldd	r23, Y+2	; 0x02
    457c:	83 2d       	mov	r24, r3
    457e:	92 2d       	mov	r25, r2
    4580:	0e 94 47 2a 	call	0x548e	; 0x548e <__cmpsf2>
    4584:	81 11       	cpse	r24, r1
    4586:	08 c0       	rjmp	.+16     	; 0x4598 <leftStepFollow+0x1be>
				oLWS = LWS;
				oRWS = RWS;
    4588:	cb 82       	std	Y+3, r12	; 0x03
    458a:	dc 82       	std	Y+4, r13	; 0x04
    458c:	4e 2c       	mov	r4, r14
    458e:	5f 2c       	mov	r5, r15
			}

			LWS = KP*LP + KI*LI + base;
			RWS = KP*RP + KI*RI + base;
			if (oLWS == 0){
				oLWS = LWS;
    4590:	89 82       	std	Y+1, r8	; 0x01
    4592:	9a 82       	std	Y+2, r9	; 0x02
    4594:	3a 2c       	mov	r3, r10
    4596:	2b 2c       	mov	r2, r11
				oRWS = RWS;
			}
			LWS = LWS + KD*(oLWS-LWS);
    4598:	28 2d       	mov	r18, r8
    459a:	39 2d       	mov	r19, r9
    459c:	4a 2d       	mov	r20, r10
    459e:	5b 2d       	mov	r21, r11
    45a0:	69 81       	ldd	r22, Y+1	; 0x01
    45a2:	7a 81       	ldd	r23, Y+2	; 0x02
    45a4:	83 2d       	mov	r24, r3
    45a6:	92 2d       	mov	r25, r2
    45a8:	0e 94 80 29 	call	0x5300	; 0x5300 <__subsf3>
    45ac:	20 e0       	ldi	r18, 0x00	; 0
    45ae:	30 e0       	ldi	r19, 0x00	; 0
    45b0:	a9 01       	movw	r20, r18
    45b2:	0e 94 02 2c 	call	0x5804	; 0x5804 <__mulsf3>
    45b6:	28 2d       	mov	r18, r8
    45b8:	39 2d       	mov	r19, r9
    45ba:	4a 2d       	mov	r20, r10
    45bc:	5b 2d       	mov	r21, r11
    45be:	0e 94 81 29 	call	0x5302	; 0x5302 <__addsf3>
    45c2:	69 83       	std	Y+1, r22	; 0x01
    45c4:	7a 83       	std	Y+2, r23	; 0x02
    45c6:	38 2e       	mov	r3, r24
    45c8:	29 2e       	mov	r2, r25
			RWS = RWS + KD*(oRWS-RWS);
    45ca:	2c 2d       	mov	r18, r12
    45cc:	3d 2d       	mov	r19, r13
    45ce:	4e 2d       	mov	r20, r14
    45d0:	5f 2d       	mov	r21, r15
    45d2:	6b 81       	ldd	r22, Y+3	; 0x03
    45d4:	7c 81       	ldd	r23, Y+4	; 0x04
    45d6:	84 2d       	mov	r24, r4
    45d8:	95 2d       	mov	r25, r5
    45da:	0e 94 80 29 	call	0x5300	; 0x5300 <__subsf3>
    45de:	20 e0       	ldi	r18, 0x00	; 0
    45e0:	30 e0       	ldi	r19, 0x00	; 0
    45e2:	a9 01       	movw	r20, r18
    45e4:	0e 94 02 2c 	call	0x5804	; 0x5804 <__mulsf3>
    45e8:	2c 2d       	mov	r18, r12
    45ea:	3d 2d       	mov	r19, r13
    45ec:	4e 2d       	mov	r20, r14
    45ee:	5f 2d       	mov	r21, r15
    45f0:	0e 94 81 29 	call	0x5302	; 0x5302 <__addsf3>
    45f4:	6b 83       	std	Y+3, r22	; 0x03
    45f6:	7c 83       	std	Y+4, r23	; 0x04
    45f8:	48 2e       	mov	r4, r24
    45fa:	59 2e       	mov	r5, r25

			pseudo_Stepper_Step(RWS, LWS, 0.1);	// (Right Wheel Speed, Left Wheel Speed, Duration)
    45fc:	1d ec       	ldi	r17, 0xCD	; 205
    45fe:	e1 2e       	mov	r14, r17
    4600:	1c ec       	ldi	r17, 0xCC	; 204
    4602:	f1 2e       	mov	r15, r17
    4604:	0c ec       	ldi	r16, 0xCC	; 204
    4606:	1d e3       	ldi	r17, 0x3D	; 61
    4608:	29 81       	ldd	r18, Y+1	; 0x01
    460a:	3a 81       	ldd	r19, Y+2	; 0x02
    460c:	43 2d       	mov	r20, r3
    460e:	52 2d       	mov	r21, r2
    4610:	95 2d       	mov	r25, r5
    4612:	0e 94 a2 15 	call	0x2b44	; 0x2b44 <pseudo_Stepper_Step>

			oLWS = LWS;
			oRWS = RWS;

			// Computations for position
			*X = cos((*orientation))*((RWS+LWS)*0.1*0.108/2) + (*X);
    4616:	f3 01       	movw	r30, r6
    4618:	60 81       	ld	r22, Z
    461a:	71 81       	ldd	r23, Z+1	; 0x01
    461c:	82 81       	ldd	r24, Z+2	; 0x02
    461e:	93 81       	ldd	r25, Z+3	; 0x03
    4620:	0e 94 4b 2a 	call	0x5496	; 0x5496 <cos>
    4624:	4b 01       	movw	r8, r22
    4626:	5c 01       	movw	r10, r24
    4628:	29 81       	ldd	r18, Y+1	; 0x01
    462a:	3a 81       	ldd	r19, Y+2	; 0x02
    462c:	43 2d       	mov	r20, r3
    462e:	52 2d       	mov	r21, r2
    4630:	6b 81       	ldd	r22, Y+3	; 0x03
    4632:	7c 81       	ldd	r23, Y+4	; 0x04
    4634:	84 2d       	mov	r24, r4
    4636:	95 2d       	mov	r25, r5
    4638:	0e 94 81 29 	call	0x5302	; 0x5302 <__addsf3>
    463c:	a8 01       	movw	r20, r16
    463e:	97 01       	movw	r18, r14
    4640:	0e 94 02 2c 	call	0x5804	; 0x5804 <__mulsf3>
    4644:	2b e1       	ldi	r18, 0x1B	; 27
    4646:	3f e2       	ldi	r19, 0x2F	; 47
    4648:	4d ed       	ldi	r20, 0xDD	; 221
    464a:	5d e3       	ldi	r21, 0x3D	; 61
    464c:	0e 94 02 2c 	call	0x5804	; 0x5804 <__mulsf3>
    4650:	20 e0       	ldi	r18, 0x00	; 0
    4652:	30 e0       	ldi	r19, 0x00	; 0
    4654:	40 e0       	ldi	r20, 0x00	; 0
    4656:	5f e3       	ldi	r21, 0x3F	; 63
    4658:	0e 94 02 2c 	call	0x5804	; 0x5804 <__mulsf3>
    465c:	6b 01       	movw	r12, r22
    465e:	7c 01       	movw	r14, r24
    4660:	9b 01       	movw	r18, r22
    4662:	ac 01       	movw	r20, r24
    4664:	c5 01       	movw	r24, r10
    4666:	b4 01       	movw	r22, r8
    4668:	0e 94 02 2c 	call	0x5804	; 0x5804 <__mulsf3>
    466c:	9b 01       	movw	r18, r22
    466e:	ac 01       	movw	r20, r24
    4670:	eb 89       	ldd	r30, Y+19	; 0x13
    4672:	fc 89       	ldd	r31, Y+20	; 0x14
    4674:	60 81       	ld	r22, Z
    4676:	71 81       	ldd	r23, Z+1	; 0x01
    4678:	82 81       	ldd	r24, Z+2	; 0x02
    467a:	93 81       	ldd	r25, Z+3	; 0x03
    467c:	0e 94 81 29 	call	0x5302	; 0x5302 <__addsf3>
    4680:	eb 89       	ldd	r30, Y+19	; 0x13
    4682:	fc 89       	ldd	r31, Y+20	; 0x14
    4684:	60 83       	st	Z, r22
    4686:	71 83       	std	Z+1, r23	; 0x01
    4688:	82 83       	std	Z+2, r24	; 0x02
    468a:	93 83       	std	Z+3, r25	; 0x03
			*Y = sin((*orientation))*((RWS+LWS)*0.1*0.108/2) + (*Y);	
    468c:	f3 01       	movw	r30, r6
    468e:	60 81       	ld	r22, Z
    4690:	71 81       	ldd	r23, Z+1	; 0x01
    4692:	82 81       	ldd	r24, Z+2	; 0x02
    4694:	93 81       	ldd	r25, Z+3	; 0x03
    4696:	0e 94 65 2c 	call	0x58ca	; 0x58ca <sin>
    469a:	9b 01       	movw	r18, r22
    469c:	ac 01       	movw	r20, r24
    469e:	c7 01       	movw	r24, r14
    46a0:	b6 01       	movw	r22, r12
    46a2:	0e 94 02 2c 	call	0x5804	; 0x5804 <__mulsf3>
    46a6:	9b 01       	movw	r18, r22
    46a8:	ac 01       	movw	r20, r24
    46aa:	ed 81       	ldd	r30, Y+5	; 0x05
    46ac:	fe 81       	ldd	r31, Y+6	; 0x06
    46ae:	60 81       	ld	r22, Z
    46b0:	71 81       	ldd	r23, Z+1	; 0x01
    46b2:	82 81       	ldd	r24, Z+2	; 0x02
    46b4:	93 81       	ldd	r25, Z+3	; 0x03
    46b6:	0e 94 81 29 	call	0x5302	; 0x5302 <__addsf3>
    46ba:	ed 81       	ldd	r30, Y+5	; 0x05
    46bc:	fe 81       	ldd	r31, Y+6	; 0x06
    46be:	60 83       	st	Z, r22
    46c0:	71 83       	std	Z+1, r23	; 0x01
    46c2:	82 83       	std	Z+2, r24	; 0x02
    46c4:	93 83       	std	Z+3, r25	; 0x03
    46c6:	b8 ce       	rjmp	.-656    	; 0x4438 <leftStepFollow+0x5e>
			//

		}else if((frontIR < ICT) && (leftIR < ICT)){
    46c8:	20 e0       	ldi	r18, 0x00	; 0
    46ca:	30 e0       	ldi	r19, 0x00	; 0
    46cc:	40 e4       	ldi	r20, 0x40	; 64
    46ce:	51 e4       	ldi	r21, 0x41	; 65
    46d0:	c7 01       	movw	r24, r14
    46d2:	b6 01       	movw	r22, r12
    46d4:	0e 94 47 2a 	call	0x548e	; 0x548e <__cmpsf2>
    46d8:	88 23       	and	r24, r24
    46da:	0c f0       	brlt	.+2      	; 0x46de <leftStepFollow+0x304>
    46dc:	c8 c0       	rjmp	.+400    	; 0x486e <leftStepFollow+0x494>
    46de:	20 e0       	ldi	r18, 0x00	; 0
    46e0:	30 e0       	ldi	r19, 0x00	; 0
    46e2:	40 e4       	ldi	r20, 0x40	; 64
    46e4:	51 e4       	ldi	r21, 0x41	; 65
    46e6:	c5 01       	movw	r24, r10
    46e8:	b4 01       	movw	r22, r8
    46ea:	0e 94 47 2a 	call	0x548e	; 0x548e <__cmpsf2>
    46ee:	88 23       	and	r24, r24
    46f0:	0c f0       	brlt	.+2      	; 0x46f4 <leftStepFollow+0x31a>
    46f2:	bd c0       	rjmp	.+378    	; 0x486e <leftStepFollow+0x494>
			LCD_clear();
    46f4:	0e 94 ec 03 	call	0x7d8	; 0x7d8 <LCD_clear>
			LCD_printf("Left Follow\n");
    46f8:	8a e8       	ldi	r24, 0x8A	; 138
    46fa:	92 e0       	ldi	r25, 0x02	; 2
    46fc:	0e 94 d1 34 	call	0x69a2	; 0x69a2 <puts>
			LCD_printf("Wall in Front\n");
    4700:	84 e5       	ldi	r24, 0x54	; 84
    4702:	92 e0       	ldi	r25, 0x02	; 2
    4704:	0e 94 d1 34 	call	0x69a2	; 0x69a2 <puts>
			LCD_printf("Turning Right\n");
    4708:	8c e7       	ldi	r24, 0x7C	; 124
    470a:	92 e0       	ldi	r25, 0x02	; 2
    470c:	0e 94 d1 34 	call	0x69a2	; 0x69a2 <puts>

			pseudo_Stepper_Step(150, 150, 0.5);	// (Right Wheel Speed, Left Wheel Speed, Duration)
    4710:	e1 2c       	mov	r14, r1
    4712:	f1 2c       	mov	r15, r1
    4714:	00 e0       	ldi	r16, 0x00	; 0
    4716:	1f e3       	ldi	r17, 0x3F	; 63
    4718:	20 e0       	ldi	r18, 0x00	; 0
    471a:	30 e0       	ldi	r19, 0x00	; 0
    471c:	46 e1       	ldi	r20, 0x16	; 22
    471e:	53 e4       	ldi	r21, 0x43	; 67
    4720:	ca 01       	movw	r24, r20
    4722:	b9 01       	movw	r22, r18
    4724:	0e 94 a2 15 	call	0x2b44	; 0x2b44 <pseudo_Stepper_Step>

			// Computations for position
			*X = cos((*orientation))*(75*0.108) + (*X);
    4728:	f3 01       	movw	r30, r6
    472a:	60 81       	ld	r22, Z
    472c:	71 81       	ldd	r23, Z+1	; 0x01
    472e:	82 81       	ldd	r24, Z+2	; 0x02
    4730:	93 81       	ldd	r25, Z+3	; 0x03
    4732:	0e 94 4b 2a 	call	0x5496	; 0x5496 <cos>
    4736:	2a e9       	ldi	r18, 0x9A	; 154
    4738:	39 e9       	ldi	r19, 0x99	; 153
    473a:	41 e0       	ldi	r20, 0x01	; 1
    473c:	51 e4       	ldi	r21, 0x41	; 65
    473e:	0e 94 02 2c 	call	0x5804	; 0x5804 <__mulsf3>
    4742:	9b 01       	movw	r18, r22
    4744:	ac 01       	movw	r20, r24
    4746:	eb 89       	ldd	r30, Y+19	; 0x13
    4748:	fc 89       	ldd	r31, Y+20	; 0x14
    474a:	60 81       	ld	r22, Z
    474c:	71 81       	ldd	r23, Z+1	; 0x01
    474e:	82 81       	ldd	r24, Z+2	; 0x02
    4750:	93 81       	ldd	r25, Z+3	; 0x03
    4752:	0e 94 81 29 	call	0x5302	; 0x5302 <__addsf3>
    4756:	eb 89       	ldd	r30, Y+19	; 0x13
    4758:	fc 89       	ldd	r31, Y+20	; 0x14
    475a:	60 83       	st	Z, r22
    475c:	71 83       	std	Z+1, r23	; 0x01
    475e:	82 83       	std	Z+2, r24	; 0x02
    4760:	93 83       	std	Z+3, r25	; 0x03
			*Y = sin((*orientation))*(75*0.108) + (*Y);	
    4762:	f3 01       	movw	r30, r6
    4764:	60 81       	ld	r22, Z
    4766:	71 81       	ldd	r23, Z+1	; 0x01
    4768:	82 81       	ldd	r24, Z+2	; 0x02
    476a:	93 81       	ldd	r25, Z+3	; 0x03
    476c:	0e 94 65 2c 	call	0x58ca	; 0x58ca <sin>
    4770:	2a e9       	ldi	r18, 0x9A	; 154
    4772:	39 e9       	ldi	r19, 0x99	; 153
    4774:	41 e0       	ldi	r20, 0x01	; 1
    4776:	51 e4       	ldi	r21, 0x41	; 65
    4778:	0e 94 02 2c 	call	0x5804	; 0x5804 <__mulsf3>
    477c:	ed 81       	ldd	r30, Y+5	; 0x05
    477e:	fe 81       	ldd	r31, Y+6	; 0x06
    4780:	20 81       	ld	r18, Z
    4782:	31 81       	ldd	r19, Z+1	; 0x01
    4784:	42 81       	ldd	r20, Z+2	; 0x02
    4786:	53 81       	ldd	r21, Z+3	; 0x03
    4788:	0e 94 81 29 	call	0x5302	; 0x5302 <__addsf3>
    478c:	ed 81       	ldd	r30, Y+5	; 0x05
    478e:	fe 81       	ldd	r31, Y+6	; 0x06
    4790:	60 83       	st	Z, r22
    4792:	71 83       	std	Z+1, r23	; 0x01
    4794:	82 83       	std	Z+2, r24	; 0x02
    4796:	93 83       	std	Z+3, r25	; 0x03
			//
			cur_Angle = Tar_vs_Cur_Angle(X_tar, Y_tar, *X, *Y);
    4798:	0e 94 b6 2a 	call	0x556c	; 0x556c <__fixsfsi>
    479c:	6b 01       	movw	r12, r22
    479e:	7c 01       	movw	r14, r24
    47a0:	eb 89       	ldd	r30, Y+19	; 0x13
    47a2:	fc 89       	ldd	r31, Y+20	; 0x14
    47a4:	60 81       	ld	r22, Z
    47a6:	71 81       	ldd	r23, Z+1	; 0x01
    47a8:	82 81       	ldd	r24, Z+2	; 0x02
    47aa:	93 81       	ldd	r25, Z+3	; 0x03
    47ac:	0e 94 b6 2a 	call	0x556c	; 0x556c <__fixsfsi>
    47b0:	6f 83       	std	Y+7, r22	; 0x07
    47b2:	78 87       	std	Y+8, r23	; 0x08
    47b4:	89 87       	std	Y+9, r24	; 0x09
    47b6:	9a 87       	std	Y+10, r25	; 0x0a
    47b8:	6f 85       	ldd	r22, Y+15	; 0x0f
    47ba:	78 89       	ldd	r23, Y+16	; 0x10
    47bc:	89 89       	ldd	r24, Y+17	; 0x11
    47be:	9a 89       	ldd	r25, Y+18	; 0x12
    47c0:	0e 94 b6 2a 	call	0x556c	; 0x556c <__fixsfsi>
    47c4:	4b 01       	movw	r8, r22
    47c6:	5c 01       	movw	r10, r24
    47c8:	6b 85       	ldd	r22, Y+11	; 0x0b
    47ca:	7c 85       	ldd	r23, Y+12	; 0x0c
    47cc:	8d 85       	ldd	r24, Y+13	; 0x0d
    47ce:	9e 85       	ldd	r25, Y+14	; 0x0e
    47d0:	0e 94 b6 2a 	call	0x556c	; 0x556c <__fixsfsi>
    47d4:	dc 01       	movw	r26, r24
    47d6:	cb 01       	movw	r24, r22
    47d8:	96 01       	movw	r18, r12
    47da:	4f 81       	ldd	r20, Y+7	; 0x07
    47dc:	58 85       	ldd	r21, Y+8	; 0x08
    47de:	b4 01       	movw	r22, r8
    47e0:	0e 94 13 16 	call	0x2c26	; 0x2c26 <Tar_vs_Cur_Angle>
    47e4:	6b 01       	movw	r12, r22
    47e6:	7c 01       	movw	r14, r24

			if ((cur_Angle >= (*orientation)-90)&&(cur_Angle <= ((*orientation)))){
    47e8:	f3 01       	movw	r30, r6
    47ea:	80 80       	ld	r8, Z
    47ec:	91 80       	ldd	r9, Z+1	; 0x01
    47ee:	a2 80       	ldd	r10, Z+2	; 0x02
    47f0:	b3 80       	ldd	r11, Z+3	; 0x03
    47f2:	20 e0       	ldi	r18, 0x00	; 0
    47f4:	30 e0       	ldi	r19, 0x00	; 0
    47f6:	44 eb       	ldi	r20, 0xB4	; 180
    47f8:	52 e4       	ldi	r21, 0x42	; 66
    47fa:	c5 01       	movw	r24, r10
    47fc:	b4 01       	movw	r22, r8
    47fe:	0e 94 80 29 	call	0x5300	; 0x5300 <__subsf3>
    4802:	9b 01       	movw	r18, r22
    4804:	ac 01       	movw	r20, r24
    4806:	c7 01       	movw	r24, r14
    4808:	b6 01       	movw	r22, r12
    480a:	0e 94 f7 2b 	call	0x57ee	; 0x57ee <__gesf2>
    480e:	88 23       	and	r24, r24
    4810:	cc f0       	brlt	.+50     	; 0x4844 <leftStepFollow+0x46a>
    4812:	a5 01       	movw	r20, r10
    4814:	94 01       	movw	r18, r8
    4816:	c7 01       	movw	r24, r14
    4818:	b6 01       	movw	r22, r12
    481a:	0e 94 47 2a 	call	0x548e	; 0x548e <__cmpsf2>
    481e:	18 16       	cp	r1, r24
    4820:	8c f0       	brlt	.+34     	; 0x4844 <leftStepFollow+0x46a>
				go2Angle(cur_Angle-(*orientation)); // + is left, - is right
    4822:	a5 01       	movw	r20, r10
    4824:	94 01       	movw	r18, r8
    4826:	c7 01       	movw	r24, r14
    4828:	b6 01       	movw	r22, r12
    482a:	0e 94 80 29 	call	0x5300	; 0x5300 <__subsf3>
    482e:	0e 94 b6 2a 	call	0x556c	; 0x556c <__fixsfsi>
    4832:	cb 01       	movw	r24, r22
    4834:	0e 94 c1 17 	call	0x2f82	; 0x2f82 <go2Angle>
				break_condition = 1;

				//Update Orientation
				*orientation = cur_Angle;
    4838:	f3 01       	movw	r30, r6
    483a:	c0 82       	st	Z, r12
    483c:	d1 82       	std	Z+1, r13	; 0x01
    483e:	e2 82       	std	Z+2, r14	; 0x02
    4840:	f3 82       	std	Z+3, r15	; 0x03
    4842:	59 c1       	rjmp	.+690    	; 0x4af6 <leftStepFollow+0x71c>
				//

			}else{
				go2Angle(-90); // + is left, - is right
    4844:	86 ea       	ldi	r24, 0xA6	; 166
    4846:	9f ef       	ldi	r25, 0xFF	; 255
    4848:	0e 94 c1 17 	call	0x2f82	; 0x2f82 <go2Angle>

				//Update Orientation
				*orientation = (*orientation) - 90;
    484c:	20 e0       	ldi	r18, 0x00	; 0
    484e:	30 e0       	ldi	r19, 0x00	; 0
    4850:	44 eb       	ldi	r20, 0xB4	; 180
    4852:	52 e4       	ldi	r21, 0x42	; 66
    4854:	f3 01       	movw	r30, r6
    4856:	60 81       	ld	r22, Z
    4858:	71 81       	ldd	r23, Z+1	; 0x01
    485a:	82 81       	ldd	r24, Z+2	; 0x02
    485c:	93 81       	ldd	r25, Z+3	; 0x03
    485e:	0e 94 80 29 	call	0x5300	; 0x5300 <__subsf3>
    4862:	f3 01       	movw	r30, r6
    4864:	60 83       	st	Z, r22
    4866:	71 83       	std	Z+1, r23	; 0x01
    4868:	82 83       	std	Z+2, r24	; 0x02
    486a:	93 83       	std	Z+3, r25	; 0x03
    486c:	e5 cd       	rjmp	.-1078   	; 0x4438 <leftStepFollow+0x5e>
			}
			LP = 0;
			RP = 0;
			LI = 0;
			RI = 0;	
		}else if((frontIR > ICT) && (leftIR > ICT)){
    486e:	20 e0       	ldi	r18, 0x00	; 0
    4870:	30 e0       	ldi	r19, 0x00	; 0
    4872:	40 e4       	ldi	r20, 0x40	; 64
    4874:	51 e4       	ldi	r21, 0x41	; 65
    4876:	c7 01       	movw	r24, r14
    4878:	b6 01       	movw	r22, r12
    487a:	0e 94 f7 2b 	call	0x57ee	; 0x57ee <__gesf2>
    487e:	18 16       	cp	r1, r24
    4880:	0c f0       	brlt	.+2      	; 0x4884 <leftStepFollow+0x4aa>
    4882:	da cd       	rjmp	.-1100   	; 0x4438 <leftStepFollow+0x5e>
    4884:	20 e0       	ldi	r18, 0x00	; 0
    4886:	30 e0       	ldi	r19, 0x00	; 0
    4888:	40 e4       	ldi	r20, 0x40	; 64
    488a:	51 e4       	ldi	r21, 0x41	; 65
    488c:	c5 01       	movw	r24, r10
    488e:	b4 01       	movw	r22, r8
    4890:	0e 94 f7 2b 	call	0x57ee	; 0x57ee <__gesf2>
    4894:	18 16       	cp	r1, r24
    4896:	0c f0       	brlt	.+2      	; 0x489a <leftStepFollow+0x4c0>
    4898:	cf cd       	rjmp	.-1122   	; 0x4438 <leftStepFollow+0x5e>
			LCD_clear();
    489a:	0e 94 ec 03 	call	0x7d8	; 0x7d8 <LCD_clear>
			LCD_printf("Left Follow\n");
    489e:	8a e8       	ldi	r24, 0x8A	; 138
    48a0:	92 e0       	ldi	r25, 0x02	; 2
    48a2:	0e 94 d1 34 	call	0x69a2	; 0x69a2 <puts>
			LCD_printf("Lack of Wall\n");
    48a6:	8f e6       	ldi	r24, 0x6F	; 111
    48a8:	92 e0       	ldi	r25, 0x02	; 2
    48aa:	0e 94 d1 34 	call	0x69a2	; 0x69a2 <puts>
			LCD_printf("Turning Left\n");
    48ae:	82 e6       	ldi	r24, 0x62	; 98
    48b0:	92 e0       	ldi	r25, 0x02	; 2
    48b2:	0e 94 d1 34 	call	0x69a2	; 0x69a2 <puts>

			pseudo_Stepper_Step(150, 150, 0.5);	// (Right Wheel Speed, Left Wheel Speed, Duration)
    48b6:	e1 2c       	mov	r14, r1
    48b8:	f1 2c       	mov	r15, r1
    48ba:	00 e0       	ldi	r16, 0x00	; 0
    48bc:	1f e3       	ldi	r17, 0x3F	; 63
    48be:	20 e0       	ldi	r18, 0x00	; 0
    48c0:	30 e0       	ldi	r19, 0x00	; 0
    48c2:	46 e1       	ldi	r20, 0x16	; 22
    48c4:	53 e4       	ldi	r21, 0x43	; 67
    48c6:	ca 01       	movw	r24, r20
    48c8:	b9 01       	movw	r22, r18
    48ca:	0e 94 a2 15 	call	0x2b44	; 0x2b44 <pseudo_Stepper_Step>

			// Computations for position
			*X = cos((*orientation))*(75*0.108) + (*X);
    48ce:	f3 01       	movw	r30, r6
    48d0:	60 81       	ld	r22, Z
    48d2:	71 81       	ldd	r23, Z+1	; 0x01
    48d4:	82 81       	ldd	r24, Z+2	; 0x02
    48d6:	93 81       	ldd	r25, Z+3	; 0x03
    48d8:	0e 94 4b 2a 	call	0x5496	; 0x5496 <cos>
    48dc:	2a e9       	ldi	r18, 0x9A	; 154
    48de:	39 e9       	ldi	r19, 0x99	; 153
    48e0:	41 e0       	ldi	r20, 0x01	; 1
    48e2:	51 e4       	ldi	r21, 0x41	; 65
    48e4:	0e 94 02 2c 	call	0x5804	; 0x5804 <__mulsf3>
    48e8:	9b 01       	movw	r18, r22
    48ea:	ac 01       	movw	r20, r24
    48ec:	eb 89       	ldd	r30, Y+19	; 0x13
    48ee:	fc 89       	ldd	r31, Y+20	; 0x14
    48f0:	60 81       	ld	r22, Z
    48f2:	71 81       	ldd	r23, Z+1	; 0x01
    48f4:	82 81       	ldd	r24, Z+2	; 0x02
    48f6:	93 81       	ldd	r25, Z+3	; 0x03
    48f8:	0e 94 81 29 	call	0x5302	; 0x5302 <__addsf3>
    48fc:	eb 89       	ldd	r30, Y+19	; 0x13
    48fe:	fc 89       	ldd	r31, Y+20	; 0x14
    4900:	60 83       	st	Z, r22
    4902:	71 83       	std	Z+1, r23	; 0x01
    4904:	82 83       	std	Z+2, r24	; 0x02
    4906:	93 83       	std	Z+3, r25	; 0x03
			*Y = sin((*orientation))*(75*0.108) + (*Y);	
    4908:	f3 01       	movw	r30, r6
    490a:	60 81       	ld	r22, Z
    490c:	71 81       	ldd	r23, Z+1	; 0x01
    490e:	82 81       	ldd	r24, Z+2	; 0x02
    4910:	93 81       	ldd	r25, Z+3	; 0x03
    4912:	0e 94 65 2c 	call	0x58ca	; 0x58ca <sin>
    4916:	2a e9       	ldi	r18, 0x9A	; 154
    4918:	39 e9       	ldi	r19, 0x99	; 153
    491a:	41 e0       	ldi	r20, 0x01	; 1
    491c:	51 e4       	ldi	r21, 0x41	; 65
    491e:	0e 94 02 2c 	call	0x5804	; 0x5804 <__mulsf3>
    4922:	9b 01       	movw	r18, r22
    4924:	ac 01       	movw	r20, r24
    4926:	ed 81       	ldd	r30, Y+5	; 0x05
    4928:	fe 81       	ldd	r31, Y+6	; 0x06
    492a:	60 81       	ld	r22, Z
    492c:	71 81       	ldd	r23, Z+1	; 0x01
    492e:	82 81       	ldd	r24, Z+2	; 0x02
    4930:	93 81       	ldd	r25, Z+3	; 0x03
    4932:	0e 94 81 29 	call	0x5302	; 0x5302 <__addsf3>
    4936:	ed 81       	ldd	r30, Y+5	; 0x05
    4938:	fe 81       	ldd	r31, Y+6	; 0x06
    493a:	60 83       	st	Z, r22
    493c:	71 83       	std	Z+1, r23	; 0x01
    493e:	82 83       	std	Z+2, r24	; 0x02
    4940:	93 83       	std	Z+3, r25	; 0x03
			//

			leftIR = getLeftIR();
    4942:	0e 94 a0 16 	call	0x2d40	; 0x2d40 <getLeftIR>
			if ((frontIR > ICT) && (leftIR > ICT)){
    4946:	20 e0       	ldi	r18, 0x00	; 0
    4948:	30 e0       	ldi	r19, 0x00	; 0
    494a:	40 e4       	ldi	r20, 0x40	; 64
    494c:	51 e4       	ldi	r21, 0x41	; 65
    494e:	0e 94 f7 2b 	call	0x57ee	; 0x57ee <__gesf2>
    4952:	18 16       	cp	r1, r24
    4954:	0c f0       	brlt	.+2      	; 0x4958 <leftStepFollow+0x57e>
    4956:	70 cd       	rjmp	.-1312   	; 0x4438 <leftStepFollow+0x5e>
				cur_Angle = Tar_vs_Cur_Angle(X_tar, Y_tar, *X, *Y);
    4958:	ed 81       	ldd	r30, Y+5	; 0x05
    495a:	fe 81       	ldd	r31, Y+6	; 0x06
    495c:	60 81       	ld	r22, Z
    495e:	71 81       	ldd	r23, Z+1	; 0x01
    4960:	82 81       	ldd	r24, Z+2	; 0x02
    4962:	93 81       	ldd	r25, Z+3	; 0x03
    4964:	0e 94 b6 2a 	call	0x556c	; 0x556c <__fixsfsi>
    4968:	6b 01       	movw	r12, r22
    496a:	7c 01       	movw	r14, r24
    496c:	eb 89       	ldd	r30, Y+19	; 0x13
    496e:	fc 89       	ldd	r31, Y+20	; 0x14
    4970:	60 81       	ld	r22, Z
    4972:	71 81       	ldd	r23, Z+1	; 0x01
    4974:	82 81       	ldd	r24, Z+2	; 0x02
    4976:	93 81       	ldd	r25, Z+3	; 0x03
    4978:	0e 94 b6 2a 	call	0x556c	; 0x556c <__fixsfsi>
    497c:	6f 83       	std	Y+7, r22	; 0x07
    497e:	78 87       	std	Y+8, r23	; 0x08
    4980:	89 87       	std	Y+9, r24	; 0x09
    4982:	9a 87       	std	Y+10, r25	; 0x0a
    4984:	6f 85       	ldd	r22, Y+15	; 0x0f
    4986:	78 89       	ldd	r23, Y+16	; 0x10
    4988:	89 89       	ldd	r24, Y+17	; 0x11
    498a:	9a 89       	ldd	r25, Y+18	; 0x12
    498c:	0e 94 b6 2a 	call	0x556c	; 0x556c <__fixsfsi>
    4990:	4b 01       	movw	r8, r22
    4992:	5c 01       	movw	r10, r24
    4994:	6b 85       	ldd	r22, Y+11	; 0x0b
    4996:	7c 85       	ldd	r23, Y+12	; 0x0c
    4998:	8d 85       	ldd	r24, Y+13	; 0x0d
    499a:	9e 85       	ldd	r25, Y+14	; 0x0e
    499c:	0e 94 b6 2a 	call	0x556c	; 0x556c <__fixsfsi>
    49a0:	dc 01       	movw	r26, r24
    49a2:	cb 01       	movw	r24, r22
    49a4:	96 01       	movw	r18, r12
    49a6:	4f 81       	ldd	r20, Y+7	; 0x07
    49a8:	58 85       	ldd	r21, Y+8	; 0x08
    49aa:	b4 01       	movw	r22, r8
    49ac:	0e 94 13 16 	call	0x2c26	; 0x2c26 <Tar_vs_Cur_Angle>
    49b0:	6b 01       	movw	r12, r22
    49b2:	7c 01       	movw	r14, r24

				if ((cur_Angle >= (*orientation))&&(cur_Angle <= ((*orientation)+90))){
    49b4:	f3 01       	movw	r30, r6
    49b6:	80 80       	ld	r8, Z
    49b8:	91 80       	ldd	r9, Z+1	; 0x01
    49ba:	a2 80       	ldd	r10, Z+2	; 0x02
    49bc:	b3 80       	ldd	r11, Z+3	; 0x03
    49be:	a5 01       	movw	r20, r10
    49c0:	94 01       	movw	r18, r8
    49c2:	0e 94 f7 2b 	call	0x57ee	; 0x57ee <__gesf2>
    49c6:	88 23       	and	r24, r24
    49c8:	0c f1       	brlt	.+66     	; 0x4a0c <leftStepFollow+0x632>
    49ca:	20 e0       	ldi	r18, 0x00	; 0
    49cc:	30 e0       	ldi	r19, 0x00	; 0
    49ce:	44 eb       	ldi	r20, 0xB4	; 180
    49d0:	52 e4       	ldi	r21, 0x42	; 66
    49d2:	c5 01       	movw	r24, r10
    49d4:	b4 01       	movw	r22, r8
    49d6:	0e 94 81 29 	call	0x5302	; 0x5302 <__addsf3>
    49da:	9b 01       	movw	r18, r22
    49dc:	ac 01       	movw	r20, r24
    49de:	c7 01       	movw	r24, r14
    49e0:	b6 01       	movw	r22, r12
    49e2:	0e 94 47 2a 	call	0x548e	; 0x548e <__cmpsf2>
    49e6:	18 16       	cp	r1, r24
    49e8:	8c f0       	brlt	.+34     	; 0x4a0c <leftStepFollow+0x632>
					go2Angle(cur_Angle-(*orientation)); // + is left, - is right
    49ea:	a5 01       	movw	r20, r10
    49ec:	94 01       	movw	r18, r8
    49ee:	c7 01       	movw	r24, r14
    49f0:	b6 01       	movw	r22, r12
    49f2:	0e 94 80 29 	call	0x5300	; 0x5300 <__subsf3>
    49f6:	0e 94 b6 2a 	call	0x556c	; 0x556c <__fixsfsi>
    49fa:	cb 01       	movw	r24, r22
    49fc:	0e 94 c1 17 	call	0x2f82	; 0x2f82 <go2Angle>
					break_condition = 1;

					//Update Orientation
					*orientation = cur_Angle;
    4a00:	f3 01       	movw	r30, r6
    4a02:	c0 82       	st	Z, r12
    4a04:	d1 82       	std	Z+1, r13	; 0x01
    4a06:	e2 82       	std	Z+2, r14	; 0x02
    4a08:	f3 82       	std	Z+3, r15	; 0x03
    4a0a:	75 c0       	rjmp	.+234    	; 0x4af6 <leftStepFollow+0x71c>
					//

				}else{
					go2Angle(90); // + is left, - is right
    4a0c:	8a e5       	ldi	r24, 0x5A	; 90
    4a0e:	90 e0       	ldi	r25, 0x00	; 0
    4a10:	0e 94 c1 17 	call	0x2f82	; 0x2f82 <go2Angle>

					//Update Orientation
					*orientation = (*orientation) + 90;
    4a14:	20 e0       	ldi	r18, 0x00	; 0
    4a16:	30 e0       	ldi	r19, 0x00	; 0
    4a18:	44 eb       	ldi	r20, 0xB4	; 180
    4a1a:	52 e4       	ldi	r21, 0x42	; 66
    4a1c:	f3 01       	movw	r30, r6
    4a1e:	60 81       	ld	r22, Z
    4a20:	71 81       	ldd	r23, Z+1	; 0x01
    4a22:	82 81       	ldd	r24, Z+2	; 0x02
    4a24:	93 81       	ldd	r25, Z+3	; 0x03
    4a26:	0e 94 81 29 	call	0x5302	; 0x5302 <__addsf3>
    4a2a:	f3 01       	movw	r30, r6
    4a2c:	60 83       	st	Z, r22
    4a2e:	71 83       	std	Z+1, r23	; 0x01
    4a30:	82 83       	std	Z+2, r24	; 0x02
    4a32:	93 83       	std	Z+3, r25	; 0x03
					//

					leftIR = getLeftIR();
    4a34:	0e 94 a0 16 	call	0x2d40	; 0x2d40 <getLeftIR>
					while(leftIR > ICT){
    4a38:	20 e0       	ldi	r18, 0x00	; 0
    4a3a:	30 e0       	ldi	r19, 0x00	; 0
    4a3c:	40 e4       	ldi	r20, 0x40	; 64
    4a3e:	51 e4       	ldi	r21, 0x41	; 65
    4a40:	0e 94 f7 2b 	call	0x57ee	; 0x57ee <__gesf2>
    4a44:	18 16       	cp	r1, r24
    4a46:	0c f0       	brlt	.+2      	; 0x4a4a <leftStepFollow+0x670>
    4a48:	f7 cc       	rjmp	.-1554   	; 0x4438 <leftStepFollow+0x5e>
    4a4a:	ab 88       	ldd	r10, Y+19	; 0x13
    4a4c:	bc 88       	ldd	r11, Y+20	; 0x14
    4a4e:	cd 80       	ldd	r12, Y+5	; 0x05
    4a50:	de 80       	ldd	r13, Y+6	; 0x06
						
						pseudo_Stepper_Step(150, 150, 0.1);	// (Right Wheel Speed, Left Wheel Speed, Duration)
    4a52:	1d ec       	ldi	r17, 0xCD	; 205
    4a54:	e1 2e       	mov	r14, r17
    4a56:	1c ec       	ldi	r17, 0xCC	; 204
    4a58:	f1 2e       	mov	r15, r17
    4a5a:	0c ec       	ldi	r16, 0xCC	; 204
    4a5c:	1d e3       	ldi	r17, 0x3D	; 61
    4a5e:	20 e0       	ldi	r18, 0x00	; 0
    4a60:	30 e0       	ldi	r19, 0x00	; 0
    4a62:	46 e1       	ldi	r20, 0x16	; 22
    4a64:	53 e4       	ldi	r21, 0x43	; 67
    4a66:	ca 01       	movw	r24, r20
    4a68:	b9 01       	movw	r22, r18
    4a6a:	0e 94 a2 15 	call	0x2b44	; 0x2b44 <pseudo_Stepper_Step>
						// Computations for position
						*X = cos((*orientation))*(15*0.108) + (*X);
    4a6e:	f3 01       	movw	r30, r6
    4a70:	60 81       	ld	r22, Z
    4a72:	71 81       	ldd	r23, Z+1	; 0x01
    4a74:	82 81       	ldd	r24, Z+2	; 0x02
    4a76:	93 81       	ldd	r25, Z+3	; 0x03
    4a78:	0e 94 4b 2a 	call	0x5496	; 0x5496 <cos>
    4a7c:	29 e2       	ldi	r18, 0x29	; 41
    4a7e:	3c e5       	ldi	r19, 0x5C	; 92
    4a80:	4f ec       	ldi	r20, 0xCF	; 207
    4a82:	5f e3       	ldi	r21, 0x3F	; 63
    4a84:	0e 94 02 2c 	call	0x5804	; 0x5804 <__mulsf3>
    4a88:	9b 01       	movw	r18, r22
    4a8a:	ac 01       	movw	r20, r24
    4a8c:	f5 01       	movw	r30, r10
    4a8e:	60 81       	ld	r22, Z
    4a90:	71 81       	ldd	r23, Z+1	; 0x01
    4a92:	82 81       	ldd	r24, Z+2	; 0x02
    4a94:	93 81       	ldd	r25, Z+3	; 0x03
    4a96:	0e 94 81 29 	call	0x5302	; 0x5302 <__addsf3>
    4a9a:	f5 01       	movw	r30, r10
    4a9c:	60 83       	st	Z, r22
    4a9e:	71 83       	std	Z+1, r23	; 0x01
    4aa0:	82 83       	std	Z+2, r24	; 0x02
    4aa2:	93 83       	std	Z+3, r25	; 0x03
						*Y = sin((*orientation))*(15*0.108) + (*Y);	
    4aa4:	f3 01       	movw	r30, r6
    4aa6:	60 81       	ld	r22, Z
    4aa8:	71 81       	ldd	r23, Z+1	; 0x01
    4aaa:	82 81       	ldd	r24, Z+2	; 0x02
    4aac:	93 81       	ldd	r25, Z+3	; 0x03
    4aae:	0e 94 65 2c 	call	0x58ca	; 0x58ca <sin>
    4ab2:	29 e2       	ldi	r18, 0x29	; 41
    4ab4:	3c e5       	ldi	r19, 0x5C	; 92
    4ab6:	4f ec       	ldi	r20, 0xCF	; 207
    4ab8:	5f e3       	ldi	r21, 0x3F	; 63
    4aba:	0e 94 02 2c 	call	0x5804	; 0x5804 <__mulsf3>
    4abe:	9b 01       	movw	r18, r22
    4ac0:	ac 01       	movw	r20, r24
    4ac2:	f6 01       	movw	r30, r12
    4ac4:	60 81       	ld	r22, Z
    4ac6:	71 81       	ldd	r23, Z+1	; 0x01
    4ac8:	82 81       	ldd	r24, Z+2	; 0x02
    4aca:	93 81       	ldd	r25, Z+3	; 0x03
    4acc:	0e 94 81 29 	call	0x5302	; 0x5302 <__addsf3>
    4ad0:	f6 01       	movw	r30, r12
    4ad2:	60 83       	st	Z, r22
    4ad4:	71 83       	std	Z+1, r23	; 0x01
    4ad6:	82 83       	std	Z+2, r24	; 0x02
    4ad8:	93 83       	std	Z+3, r25	; 0x03
						//
						leftIR = getLeftIR();
    4ada:	0e 94 a0 16 	call	0x2d40	; 0x2d40 <getLeftIR>
					//Update Orientation
					*orientation = (*orientation) + 90;
					//

					leftIR = getLeftIR();
					while(leftIR > ICT){
    4ade:	20 e0       	ldi	r18, 0x00	; 0
    4ae0:	30 e0       	ldi	r19, 0x00	; 0
    4ae2:	40 e4       	ldi	r20, 0x40	; 64
    4ae4:	51 e4       	ldi	r21, 0x41	; 65
    4ae6:	0e 94 f7 2b 	call	0x57ee	; 0x57ee <__gesf2>
    4aea:	18 16       	cp	r1, r24
    4aec:	0c f4       	brge	.+2      	; 0x4af0 <leftStepFollow+0x716>
    4aee:	b1 cf       	rjmp	.-158    	; 0x4a52 <leftStepFollow+0x678>
    4af0:	bc 8a       	std	Y+20, r11	; 0x14
    4af2:	ab 8a       	std	Y+19, r10	; 0x13
    4af4:	a1 cc       	rjmp	.-1726   	; 0x4438 <leftStepFollow+0x5e>
					RI = 0;	
				}
			}
		}
	}
    4af6:	64 96       	adiw	r28, 0x14	; 20
    4af8:	0f b6       	in	r0, 0x3f	; 63
    4afa:	f8 94       	cli
    4afc:	de bf       	out	0x3e, r29	; 62
    4afe:	0f be       	out	0x3f, r0	; 63
    4b00:	cd bf       	out	0x3d, r28	; 61
    4b02:	df 91       	pop	r29
    4b04:	cf 91       	pop	r28
    4b06:	1f 91       	pop	r17
    4b08:	0f 91       	pop	r16
    4b0a:	ff 90       	pop	r15
    4b0c:	ef 90       	pop	r14
    4b0e:	df 90       	pop	r13
    4b10:	cf 90       	pop	r12
    4b12:	bf 90       	pop	r11
    4b14:	af 90       	pop	r10
    4b16:	9f 90       	pop	r9
    4b18:	8f 90       	pop	r8
    4b1a:	7f 90       	pop	r7
    4b1c:	6f 90       	pop	r6
    4b1e:	5f 90       	pop	r5
    4b20:	4f 90       	pop	r4
    4b22:	3f 90       	pop	r3
    4b24:	2f 90       	pop	r2
    4b26:	08 95       	ret

00004b28 <goes2goal>:
void goes2goal(float Tar_X, float Tar_Y){
    4b28:	4f 92       	push	r4
    4b2a:	5f 92       	push	r5
    4b2c:	6f 92       	push	r6
    4b2e:	7f 92       	push	r7
    4b30:	8f 92       	push	r8
    4b32:	9f 92       	push	r9
    4b34:	af 92       	push	r10
    4b36:	bf 92       	push	r11
    4b38:	cf 92       	push	r12
    4b3a:	df 92       	push	r13
    4b3c:	ef 92       	push	r14
    4b3e:	ff 92       	push	r15
    4b40:	0f 93       	push	r16
    4b42:	1f 93       	push	r17
    4b44:	cf 93       	push	r28
    4b46:	df 93       	push	r29
    4b48:	cd b7       	in	r28, 0x3d	; 61
    4b4a:	de b7       	in	r29, 0x3e	; 62
    4b4c:	60 97       	sbiw	r28, 0x10	; 16
    4b4e:	0f b6       	in	r0, 0x3f	; 63
    4b50:	f8 94       	cli
    4b52:	de bf       	out	0x3e, r29	; 62
    4b54:	0f be       	out	0x3f, r0	; 63
    4b56:	cd bf       	out	0x3d, r28	; 61
    4b58:	69 01       	movw	r12, r18
    4b5a:	7a 01       	movw	r14, r20
	float cur_X = 0;
    4b5c:	19 82       	std	Y+1, r1	; 0x01
    4b5e:	1a 82       	std	Y+2, r1	; 0x02
    4b60:	1b 82       	std	Y+3, r1	; 0x03
    4b62:	1c 82       	std	Y+4, r1	; 0x04
	float cur_Y = 0;
    4b64:	1d 82       	std	Y+5, r1	; 0x05
    4b66:	1e 82       	std	Y+6, r1	; 0x06
    4b68:	1f 82       	std	Y+7, r1	; 0x07
    4b6a:	18 86       	std	Y+8, r1	; 0x08
	float delta_X, delta_Y;
	char x_or_y = 1;
	float tollarance = 3;
	float orientation = 0;
    4b6c:	19 86       	std	Y+9, r1	; 0x09
    4b6e:	1a 86       	std	Y+10, r1	; 0x0a
    4b70:	1b 86       	std	Y+11, r1	; 0x0b
    4b72:	1c 86       	std	Y+12, r1	; 0x0c
	float s_tol = 7;
	float frontIR, leftIR, rightIR;

	Tar_X = Tar_X*12;
    4b74:	20 e0       	ldi	r18, 0x00	; 0
    4b76:	30 e0       	ldi	r19, 0x00	; 0
    4b78:	40 e4       	ldi	r20, 0x40	; 64
    4b7a:	51 e4       	ldi	r21, 0x41	; 65
    4b7c:	0e 94 02 2c 	call	0x5804	; 0x5804 <__mulsf3>
    4b80:	4b 01       	movw	r8, r22
    4b82:	5c 01       	movw	r10, r24
	Tar_Y = Tar_Y*12;
    4b84:	20 e0       	ldi	r18, 0x00	; 0
    4b86:	30 e0       	ldi	r19, 0x00	; 0
    4b88:	40 e4       	ldi	r20, 0x40	; 64
    4b8a:	51 e4       	ldi	r21, 0x41	; 65
    4b8c:	c7 01       	movw	r24, r14
    4b8e:	b6 01       	movw	r22, r12
    4b90:	0e 94 02 2c 	call	0x5804	; 0x5804 <__mulsf3>
    4b94:	6d 87       	std	Y+13, r22	; 0x0d
    4b96:	7e 87       	std	Y+14, r23	; 0x0e
    4b98:	8f 87       	std	Y+15, r24	; 0x0f
    4b9a:	98 8b       	std	Y+16, r25	; 0x10

	delta_X = Tar_X - cur_X;
	delta_Y = Tar_Y - cur_Y;

	while((delta_X <= tollarance) && (delta_X >= (-tollarance)) && (delta_Y <= tollarance) && (delta_Y >= (-tollarance))){
    4b9c:	20 e0       	ldi	r18, 0x00	; 0
    4b9e:	30 e0       	ldi	r19, 0x00	; 0
    4ba0:	40 e4       	ldi	r20, 0x40	; 64
    4ba2:	50 e4       	ldi	r21, 0x40	; 64
    4ba4:	c5 01       	movw	r24, r10
    4ba6:	b4 01       	movw	r22, r8
    4ba8:	0e 94 47 2a 	call	0x548e	; 0x548e <__cmpsf2>
    4bac:	18 16       	cp	r1, r24
    4bae:	0c f4       	brge	.+2      	; 0x4bb2 <goes2goal+0x8a>
    4bb0:	ff c0       	rjmp	.+510    	; 0x4db0 <goes2goal+0x288>
    4bb2:	20 e0       	ldi	r18, 0x00	; 0
    4bb4:	30 e0       	ldi	r19, 0x00	; 0
    4bb6:	40 e4       	ldi	r20, 0x40	; 64
    4bb8:	50 ec       	ldi	r21, 0xC0	; 192
    4bba:	c5 01       	movw	r24, r10
    4bbc:	b4 01       	movw	r22, r8
    4bbe:	0e 94 f7 2b 	call	0x57ee	; 0x57ee <__gesf2>
    4bc2:	88 23       	and	r24, r24
    4bc4:	0c f4       	brge	.+2      	; 0x4bc8 <goes2goal+0xa0>
    4bc6:	f4 c0       	rjmp	.+488    	; 0x4db0 <goes2goal+0x288>
    4bc8:	20 e0       	ldi	r18, 0x00	; 0
    4bca:	30 e0       	ldi	r19, 0x00	; 0
    4bcc:	40 e4       	ldi	r20, 0x40	; 64
    4bce:	50 e4       	ldi	r21, 0x40	; 64
    4bd0:	6d 85       	ldd	r22, Y+13	; 0x0d
    4bd2:	7e 85       	ldd	r23, Y+14	; 0x0e
    4bd4:	8f 85       	ldd	r24, Y+15	; 0x0f
    4bd6:	98 89       	ldd	r25, Y+16	; 0x10
    4bd8:	0e 94 47 2a 	call	0x548e	; 0x548e <__cmpsf2>
    4bdc:	18 16       	cp	r1, r24
    4bde:	0c f4       	brge	.+2      	; 0x4be2 <goes2goal+0xba>
    4be0:	e7 c0       	rjmp	.+462    	; 0x4db0 <goes2goal+0x288>
    4be2:	20 e0       	ldi	r18, 0x00	; 0
    4be4:	30 e0       	ldi	r19, 0x00	; 0
    4be6:	40 e4       	ldi	r20, 0x40	; 64
    4be8:	50 ec       	ldi	r21, 0xC0	; 192
    4bea:	6d 85       	ldd	r22, Y+13	; 0x0d
    4bec:	7e 85       	ldd	r23, Y+14	; 0x0e
    4bee:	8f 85       	ldd	r24, Y+15	; 0x0f
    4bf0:	98 89       	ldd	r25, Y+16	; 0x10
    4bf2:	0e 94 f7 2b 	call	0x57ee	; 0x57ee <__gesf2>
    4bf6:	88 23       	and	r24, r24
    4bf8:	0c f4       	brge	.+2      	; 0x4bfc <goes2goal+0xd4>
    4bfa:	da c0       	rjmp	.+436    	; 0x4db0 <goes2goal+0x288>
		frontIR = getFrontIR();
    4bfc:	0e 94 f0 16 	call	0x2de0	; 0x2de0 <getFrontIR>
		if(frontIR < s_tol){
    4c00:	20 e0       	ldi	r18, 0x00	; 0
    4c02:	30 e0       	ldi	r19, 0x00	; 0
    4c04:	40 ee       	ldi	r20, 0xE0	; 224
    4c06:	50 e4       	ldi	r21, 0x40	; 64
    4c08:	0e 94 47 2a 	call	0x548e	; 0x548e <__cmpsf2>
    4c0c:	88 23       	and	r24, r24
    4c0e:	0c f0       	brlt	.+2      	; 0x4c12 <goes2goal+0xea>
    4c10:	54 c0       	rjmp	.+168    	; 0x4cba <goes2goal+0x192>
			leftIR = getLeftIR();
    4c12:	0e 94 a0 16 	call	0x2d40	; 0x2d40 <getLeftIR>
    4c16:	6b 01       	movw	r12, r22
    4c18:	7c 01       	movw	r14, r24
			rightIR = getRightIR();
    4c1a:	0e 94 c8 16 	call	0x2d90	; 0x2d90 <getRightIR>
    4c1e:	9b 01       	movw	r18, r22
    4c20:	ac 01       	movw	r20, r24
			if(rightIR < leftIR){
    4c22:	c7 01       	movw	r24, r14
    4c24:	b6 01       	movw	r22, r12
    4c26:	0e 94 f7 2b 	call	0x57ee	; 0x57ee <__gesf2>
    4c2a:	18 16       	cp	r1, r24
    4c2c:	1c f5       	brge	.+70     	; 0x4c74 <goes2goal+0x14c>
				go2Angle(90); // + is left, - is right
    4c2e:	8a e5       	ldi	r24, 0x5A	; 90
    4c30:	90 e0       	ldi	r25, 0x00	; 0
    4c32:	0e 94 c1 17 	call	0x2f82	; 0x2f82 <go2Angle>
				//Update Orientation
				orientation = orientation + 90;
    4c36:	20 e0       	ldi	r18, 0x00	; 0
    4c38:	30 e0       	ldi	r19, 0x00	; 0
    4c3a:	44 eb       	ldi	r20, 0xB4	; 180
    4c3c:	52 e4       	ldi	r21, 0x42	; 66
    4c3e:	69 85       	ldd	r22, Y+9	; 0x09
    4c40:	7a 85       	ldd	r23, Y+10	; 0x0a
    4c42:	8b 85       	ldd	r24, Y+11	; 0x0b
    4c44:	9c 85       	ldd	r25, Y+12	; 0x0c
    4c46:	0e 94 81 29 	call	0x5302	; 0x5302 <__addsf3>
    4c4a:	69 87       	std	Y+9, r22	; 0x09
    4c4c:	7a 87       	std	Y+10, r23	; 0x0a
    4c4e:	8b 87       	std	Y+11, r24	; 0x0b
    4c50:	9c 87       	std	Y+12, r25	; 0x0c

				rightStepFollow(&cur_X, &cur_Y, &orientation, Tar_X, Tar_Y);
    4c52:	cd 84       	ldd	r12, Y+13	; 0x0d
    4c54:	de 84       	ldd	r13, Y+14	; 0x0e
    4c56:	ef 84       	ldd	r14, Y+15	; 0x0f
    4c58:	f8 88       	ldd	r15, Y+16	; 0x10
    4c5a:	95 01       	movw	r18, r10
    4c5c:	84 01       	movw	r16, r8
    4c5e:	ae 01       	movw	r20, r28
    4c60:	47 5f       	subi	r20, 0xF7	; 247
    4c62:	5f 4f       	sbci	r21, 0xFF	; 255
    4c64:	be 01       	movw	r22, r28
    4c66:	6b 5f       	subi	r22, 0xFB	; 251
    4c68:	7f 4f       	sbci	r23, 0xFF	; 255
    4c6a:	ce 01       	movw	r24, r28
    4c6c:	01 96       	adiw	r24, 0x01	; 1
    4c6e:	0e 94 74 1e 	call	0x3ce8	; 0x3ce8 <rightStepFollow>
    4c72:	5f c0       	rjmp	.+190    	; 0x4d32 <goes2goal+0x20a>
			} else {
				go2Angle(-90); // + is left, - is right
    4c74:	86 ea       	ldi	r24, 0xA6	; 166
    4c76:	9f ef       	ldi	r25, 0xFF	; 255
    4c78:	0e 94 c1 17 	call	0x2f82	; 0x2f82 <go2Angle>
				//Update Orientation
				orientation = orientation - 90;
    4c7c:	20 e0       	ldi	r18, 0x00	; 0
    4c7e:	30 e0       	ldi	r19, 0x00	; 0
    4c80:	44 eb       	ldi	r20, 0xB4	; 180
    4c82:	52 e4       	ldi	r21, 0x42	; 66
    4c84:	69 85       	ldd	r22, Y+9	; 0x09
    4c86:	7a 85       	ldd	r23, Y+10	; 0x0a
    4c88:	8b 85       	ldd	r24, Y+11	; 0x0b
    4c8a:	9c 85       	ldd	r25, Y+12	; 0x0c
    4c8c:	0e 94 80 29 	call	0x5300	; 0x5300 <__subsf3>
    4c90:	69 87       	std	Y+9, r22	; 0x09
    4c92:	7a 87       	std	Y+10, r23	; 0x0a
    4c94:	8b 87       	std	Y+11, r24	; 0x0b
    4c96:	9c 87       	std	Y+12, r25	; 0x0c
				
				leftStepFollow(&cur_X, &cur_Y, &orientation, Tar_X, Tar_Y);
    4c98:	cd 84       	ldd	r12, Y+13	; 0x0d
    4c9a:	de 84       	ldd	r13, Y+14	; 0x0e
    4c9c:	ef 84       	ldd	r14, Y+15	; 0x0f
    4c9e:	f8 88       	ldd	r15, Y+16	; 0x10
    4ca0:	95 01       	movw	r18, r10
    4ca2:	84 01       	movw	r16, r8
    4ca4:	ae 01       	movw	r20, r28
    4ca6:	47 5f       	subi	r20, 0xF7	; 247
    4ca8:	5f 4f       	sbci	r21, 0xFF	; 255
    4caa:	be 01       	movw	r22, r28
    4cac:	6b 5f       	subi	r22, 0xFB	; 251
    4cae:	7f 4f       	sbci	r23, 0xFF	; 255
    4cb0:	ce 01       	movw	r24, r28
    4cb2:	01 96       	adiw	r24, 0x01	; 1
    4cb4:	0e 94 ed 21 	call	0x43da	; 0x43da <leftStepFollow>
    4cb8:	3c c0       	rjmp	.+120    	; 0x4d32 <goes2goal+0x20a>
			}

		} else { 
			pseudo_Stepper_Step(150, 150, 0.5);	// (Right Wheel Speed, Left Wheel Speed, Duration)			
    4cba:	e1 2c       	mov	r14, r1
    4cbc:	f1 2c       	mov	r15, r1
    4cbe:	00 e0       	ldi	r16, 0x00	; 0
    4cc0:	1f e3       	ldi	r17, 0x3F	; 63
    4cc2:	20 e0       	ldi	r18, 0x00	; 0
    4cc4:	30 e0       	ldi	r19, 0x00	; 0
    4cc6:	46 e1       	ldi	r20, 0x16	; 22
    4cc8:	53 e4       	ldi	r21, 0x43	; 67
    4cca:	ca 01       	movw	r24, r20
    4ccc:	b9 01       	movw	r22, r18
    4cce:	0e 94 a2 15 	call	0x2b44	; 0x2b44 <pseudo_Stepper_Step>
			// Computations for position
			cur_X = cos(orientation)*(75*0.108) + cur_X;
    4cd2:	c9 84       	ldd	r12, Y+9	; 0x09
    4cd4:	da 84       	ldd	r13, Y+10	; 0x0a
    4cd6:	eb 84       	ldd	r14, Y+11	; 0x0b
    4cd8:	fc 84       	ldd	r15, Y+12	; 0x0c
    4cda:	c7 01       	movw	r24, r14
    4cdc:	b6 01       	movw	r22, r12
    4cde:	0e 94 4b 2a 	call	0x5496	; 0x5496 <cos>
    4ce2:	2a e9       	ldi	r18, 0x9A	; 154
    4ce4:	39 e9       	ldi	r19, 0x99	; 153
    4ce6:	41 e0       	ldi	r20, 0x01	; 1
    4ce8:	51 e4       	ldi	r21, 0x41	; 65
    4cea:	0e 94 02 2c 	call	0x5804	; 0x5804 <__mulsf3>
    4cee:	9b 01       	movw	r18, r22
    4cf0:	ac 01       	movw	r20, r24
    4cf2:	69 81       	ldd	r22, Y+1	; 0x01
    4cf4:	7a 81       	ldd	r23, Y+2	; 0x02
    4cf6:	8b 81       	ldd	r24, Y+3	; 0x03
    4cf8:	9c 81       	ldd	r25, Y+4	; 0x04
    4cfa:	0e 94 81 29 	call	0x5302	; 0x5302 <__addsf3>
    4cfe:	69 83       	std	Y+1, r22	; 0x01
    4d00:	7a 83       	std	Y+2, r23	; 0x02
    4d02:	8b 83       	std	Y+3, r24	; 0x03
    4d04:	9c 83       	std	Y+4, r25	; 0x04
			cur_Y = sin(orientation)*(75*0.108) + cur_Y;	
    4d06:	c7 01       	movw	r24, r14
    4d08:	b6 01       	movw	r22, r12
    4d0a:	0e 94 65 2c 	call	0x58ca	; 0x58ca <sin>
    4d0e:	2a e9       	ldi	r18, 0x9A	; 154
    4d10:	39 e9       	ldi	r19, 0x99	; 153
    4d12:	41 e0       	ldi	r20, 0x01	; 1
    4d14:	51 e4       	ldi	r21, 0x41	; 65
    4d16:	0e 94 02 2c 	call	0x5804	; 0x5804 <__mulsf3>
    4d1a:	9b 01       	movw	r18, r22
    4d1c:	ac 01       	movw	r20, r24
    4d1e:	6d 81       	ldd	r22, Y+5	; 0x05
    4d20:	7e 81       	ldd	r23, Y+6	; 0x06
    4d22:	8f 81       	ldd	r24, Y+7	; 0x07
    4d24:	98 85       	ldd	r25, Y+8	; 0x08
    4d26:	0e 94 81 29 	call	0x5302	; 0x5302 <__addsf3>
    4d2a:	6d 83       	std	Y+5, r22	; 0x05
    4d2c:	7e 83       	std	Y+6, r23	; 0x06
    4d2e:	8f 83       	std	Y+7, r24	; 0x07
    4d30:	98 87       	std	Y+8, r25	; 0x08
			//
		}
		delta_X = Tar_X - cur_X;
    4d32:	29 81       	ldd	r18, Y+1	; 0x01
    4d34:	3a 81       	ldd	r19, Y+2	; 0x02
    4d36:	4b 81       	ldd	r20, Y+3	; 0x03
    4d38:	5c 81       	ldd	r21, Y+4	; 0x04
    4d3a:	c5 01       	movw	r24, r10
    4d3c:	b4 01       	movw	r22, r8
    4d3e:	0e 94 80 29 	call	0x5300	; 0x5300 <__subsf3>
    4d42:	6b 01       	movw	r12, r22
    4d44:	7c 01       	movw	r14, r24
		delta_Y = Tar_Y - cur_Y;
    4d46:	2d 81       	ldd	r18, Y+5	; 0x05
    4d48:	3e 81       	ldd	r19, Y+6	; 0x06
    4d4a:	4f 81       	ldd	r20, Y+7	; 0x07
    4d4c:	58 85       	ldd	r21, Y+8	; 0x08
    4d4e:	6d 85       	ldd	r22, Y+13	; 0x0d
    4d50:	7e 85       	ldd	r23, Y+14	; 0x0e
    4d52:	8f 85       	ldd	r24, Y+15	; 0x0f
    4d54:	98 89       	ldd	r25, Y+16	; 0x10
    4d56:	0e 94 80 29 	call	0x5300	; 0x5300 <__subsf3>
    4d5a:	2b 01       	movw	r4, r22
    4d5c:	3c 01       	movw	r6, r24
	Tar_Y = Tar_Y*12;

	delta_X = Tar_X - cur_X;
	delta_Y = Tar_Y - cur_Y;

	while((delta_X <= tollarance) && (delta_X >= (-tollarance)) && (delta_Y <= tollarance) && (delta_Y >= (-tollarance))){
    4d5e:	20 e0       	ldi	r18, 0x00	; 0
    4d60:	30 e0       	ldi	r19, 0x00	; 0
    4d62:	40 e4       	ldi	r20, 0x40	; 64
    4d64:	50 e4       	ldi	r21, 0x40	; 64
    4d66:	c7 01       	movw	r24, r14
    4d68:	b6 01       	movw	r22, r12
    4d6a:	0e 94 47 2a 	call	0x548e	; 0x548e <__cmpsf2>
    4d6e:	18 16       	cp	r1, r24
    4d70:	fc f0       	brlt	.+62     	; 0x4db0 <goes2goal+0x288>
    4d72:	20 e0       	ldi	r18, 0x00	; 0
    4d74:	30 e0       	ldi	r19, 0x00	; 0
    4d76:	40 e4       	ldi	r20, 0x40	; 64
    4d78:	50 ec       	ldi	r21, 0xC0	; 192
    4d7a:	c7 01       	movw	r24, r14
    4d7c:	b6 01       	movw	r22, r12
    4d7e:	0e 94 f7 2b 	call	0x57ee	; 0x57ee <__gesf2>
    4d82:	88 23       	and	r24, r24
    4d84:	ac f0       	brlt	.+42     	; 0x4db0 <goes2goal+0x288>
    4d86:	20 e0       	ldi	r18, 0x00	; 0
    4d88:	30 e0       	ldi	r19, 0x00	; 0
    4d8a:	40 e4       	ldi	r20, 0x40	; 64
    4d8c:	50 e4       	ldi	r21, 0x40	; 64
    4d8e:	c3 01       	movw	r24, r6
    4d90:	b2 01       	movw	r22, r4
    4d92:	0e 94 47 2a 	call	0x548e	; 0x548e <__cmpsf2>
    4d96:	18 16       	cp	r1, r24
    4d98:	5c f0       	brlt	.+22     	; 0x4db0 <goes2goal+0x288>
    4d9a:	20 e0       	ldi	r18, 0x00	; 0
    4d9c:	30 e0       	ldi	r19, 0x00	; 0
    4d9e:	40 e4       	ldi	r20, 0x40	; 64
    4da0:	50 ec       	ldi	r21, 0xC0	; 192
    4da2:	c3 01       	movw	r24, r6
    4da4:	b2 01       	movw	r22, r4
    4da6:	0e 94 f7 2b 	call	0x57ee	; 0x57ee <__gesf2>
    4daa:	88 23       	and	r24, r24
    4dac:	0c f0       	brlt	.+2      	; 0x4db0 <goes2goal+0x288>
    4dae:	26 cf       	rjmp	.-436    	; 0x4bfc <goes2goal+0xd4>
			//
		}
		delta_X = Tar_X - cur_X;
		delta_Y = Tar_Y - cur_Y;
	}
    4db0:	60 96       	adiw	r28, 0x10	; 16
    4db2:	0f b6       	in	r0, 0x3f	; 63
    4db4:	f8 94       	cli
    4db6:	de bf       	out	0x3e, r29	; 62
    4db8:	0f be       	out	0x3f, r0	; 63
    4dba:	cd bf       	out	0x3d, r28	; 61
    4dbc:	df 91       	pop	r29
    4dbe:	cf 91       	pop	r28
    4dc0:	1f 91       	pop	r17
    4dc2:	0f 91       	pop	r16
    4dc4:	ff 90       	pop	r15
    4dc6:	ef 90       	pop	r14
    4dc8:	df 90       	pop	r13
    4dca:	cf 90       	pop	r12
    4dcc:	bf 90       	pop	r11
    4dce:	af 90       	pop	r10
    4dd0:	9f 90       	pop	r9
    4dd2:	8f 90       	pop	r8
    4dd4:	7f 90       	pop	r7
    4dd6:	6f 90       	pop	r6
    4dd8:	5f 90       	pop	r5
    4dda:	4f 90       	pop	r4
    4ddc:	08 95       	ret

00004dde <CBOT_main>:
	char ICT = 10;
	char IsWall = 0;
	float frontIR, rightIR, leftIR;

	// Opening LCD subsystem management.
	LCD_open();
    4dde:	0e 94 09 04 	call	0x812	; 0x812 <LCD_open>

	// This information is printed on the LCD display in case this initial setup takes longer.
	LCD_printf("Setting up...");
    4de2:	81 ed       	ldi	r24, 0xD1	; 209
    4de4:	92 e0       	ldi	r25, 0x02	; 2
    4de6:	9f 93       	push	r25
    4de8:	8f 93       	push	r24
    4dea:	0e 94 bd 34 	call	0x697a	; 0x697a <printf>

	// Subsystem open state variable information.
	SUBSYS_OPENSTAT openTiny;

	// Opening ATTINY subsystem management and storing returning value in openTiny that is associated to the struct SUBSYS_OPENSTAT_TYPE.
	openTiny = ATTINY_open();
    4dee:	0e 94 5b 0a 	call	0x14b6	; 0x14b6 <ATTINY_open>

	// If the state struct from openTiny is different from the expected value, an error occurs.
	if (openTiny.state != SUBSYS_OPEN){
    4df2:	0f 90       	pop	r0
    4df4:	0f 90       	pop	r0
    4df6:	91 30       	cpi	r25, 0x01	; 1
    4df8:	51 f0       	breq	.+20     	; 0x4e0e <CBOT_main+0x30>
		LCD_clear();
    4dfa:	0e 94 ec 03 	call	0x7d8	; 0x7d8 <LCD_clear>
		// The error is then displayed.
		LCD_printf("Error when opening ATTINY!");
    4dfe:	8f ed       	ldi	r24, 0xDF	; 223
    4e00:	92 e0       	ldi	r25, 0x02	; 2
    4e02:	9f 93       	push	r25
    4e04:	8f 93       	push	r24
    4e06:	0e 94 bd 34 	call	0x697a	; 0x697a <printf>
    4e0a:	0f 90       	pop	r0
    4e0c:	0f 90       	pop	r0
	}

	SPKR_open(SPKR_BEEP_MODE);		// Open the speaker in beep mode
    4e0e:	81 e0       	ldi	r24, 0x01	; 1
    4e10:	0e 94 d7 05 	call	0xbae	; 0xbae <SPKR_open>
	ADC_open();						// Open the ADC module
    4e14:	0e 94 76 03 	call	0x6ec	; 0x6ec <ADC_open>
	ADC_set_VREF( ADC_VREF_AVCC );	// Set the Voltage Reference first so VREF=5V.
    4e18:	81 e0       	ldi	r24, 0x01	; 1
    4e1a:	0e 94 d8 03 	call	0x7b0	; 0x7b0 <ADC_set_VREF>
	STEPPER_open();					// Open Stepper module.
    4e1e:	0e 94 a3 07 	call	0xf46	; 0xf46 <STEPPER_open>

	// After the initial setup, a "Ready!" message is displayed on the second line of the LCD display.
	LCD_printf("\nReady!");
    4e22:	8a ef       	ldi	r24, 0xFA	; 250
    4e24:	92 e0       	ldi	r25, 0x02	; 2
    4e26:	9f 93       	push	r25
    4e28:	8f 93       	push	r24
    4e2a:	0e 94 bd 34 	call	0x697a	; 0x697a <printf>
	LCD_clear();
    4e2e:	0e 94 ec 03 	call	0x7d8	; 0x7d8 <LCD_clear>

	STEPPER_set_mode(STEPPER_BOTH, STEPPER_NORMAL_MODE);
    4e32:	60 e0       	ldi	r22, 0x00	; 0
    4e34:	82 e0       	ldi	r24, 0x02	; 2
    4e36:	0e 94 48 08 	call	0x1090	; 0x1090 <STEPPER_set_mode>
    4e3a:	0f 90       	pop	r0
    4e3c:	0f 90       	pop	r0

			}else if(ATTINY_get_SW_state(ATTINY_SW5)){
				// While SW5 is not pressed...
				while(!ATTINY_get_SW_state(ATTINY_SW5)){
					LCD_clear();
					LCD_printf("( %d , %d )", cox, coy); // Displays the angle selection.
    4e3e:	cd e5       	ldi	r28, 0x5D	; 93
    4e40:	d3 e0       	ldi	r29, 0x03	; 3
					LCD_printf("\nSW3 + | SW4 - \nSW5 To y");
    4e42:	0f 2e       	mov	r0, r31
    4e44:	f9 e6       	ldi	r31, 0x69	; 105
    4e46:	af 2e       	mov	r10, r31
    4e48:	f3 e0       	ldi	r31, 0x03	; 3
    4e4a:	bf 2e       	mov	r11, r31
    4e4c:	f0 2d       	mov	r31, r0
						// If SW4 is pressed, the coordinate x is decremented.
						}else if(ATTINY_get_SW_state(ATTINY_SW4)){
						cox--;
						// If the x value is < -5, it goes back to 5.
						if(cox < -20){
							cox = 20;
    4e4e:	0f 2e       	mov	r0, r31
    4e50:	f4 e1       	ldi	r31, 0x14	; 20
    4e52:	8f 2e       	mov	r8, r31
    4e54:	f0 2d       	mov	r31, r0
					// If SW3 is pressed, the coordinate x is incremented.
					if(ATTINY_get_SW_state(ATTINY_SW3)){
						cox++;
						// If the x value is > 5, it goes back to -5.
						if (cox > 20){
							cox = -20;
    4e56:	0f 2e       	mov	r0, r31
    4e58:	fc ee       	ldi	r31, 0xEC	; 236
    4e5a:	9f 2e       	mov	r9, r31
    4e5c:	f0 2d       	mov	r31, r0
				// After choosing the value of the coordinate x, the user must choose the value of the coordinate y:
				// While SW5 is not pressed...
				while(!ATTINY_get_SW_state(ATTINY_SW5)){
					LCD_clear();
					LCD_printf("( %d , %d )", cox, coy);
					LCD_printf("\nSW3 + | SW4 - \nSW5 Enter");
    4e5e:	02 e8       	ldi	r16, 0x82	; 130
    4e60:	13 e0       	ldi	r17, 0x03	; 3

	// While loop that keeps the micro controller running begins here:
	while(1)
	{
		// Main menu:
		LCD_clear();
    4e62:	0e 94 ec 03 	call	0x7d8	; 0x7d8 <LCD_clear>
		LCD_printf("SW3: Wall Follow\n");
    4e66:	82 e0       	ldi	r24, 0x02	; 2
    4e68:	93 e0       	ldi	r25, 0x03	; 3
    4e6a:	0e 94 d1 34 	call	0x69a2	; 0x69a2 <puts>
		LCD_printf("SW4: AvoidFollow\n");
    4e6e:	83 e1       	ldi	r24, 0x13	; 19
    4e70:	93 e0       	ldi	r25, 0x03	; 3
    4e72:	0e 94 d1 34 	call	0x69a2	; 0x69a2 <puts>
		LCD_printf("SW5: Target Follow\n");
    4e76:	84 e2       	ldi	r24, 0x24	; 36
    4e78:	93 e0       	ldi	r25, 0x03	; 3
    4e7a:	0e 94 d1 34 	call	0x69a2	; 0x69a2 <puts>

		// Press SW3 to select one of the kids.
		if (ATTINY_get_SW_state(ATTINY_SW3)){
    4e7e:	80 e0       	ldi	r24, 0x00	; 0
    4e80:	0e 94 0d 0a 	call	0x141a	; 0x141a <ATTINY_get_SW_state>
    4e84:	88 23       	and	r24, r24
    4e86:	09 f4       	brne	.+2      	; 0x4e8a <CBOT_main+0xac>
    4e88:	ad c0       	rjmp	.+346    	; 0x4fe4 <CBOT_main+0x206>
			while(1){ // Logic that determins what conditions the robot starts at and what to demo
				frontIR = getFrontIR();
    4e8a:	0e 94 f0 16 	call	0x2de0	; 0x2de0 <getFrontIR>
    4e8e:	2b 01       	movw	r4, r22
    4e90:	3c 01       	movw	r6, r24
				rightIR = getRightIR();
    4e92:	0e 94 c8 16 	call	0x2d90	; 0x2d90 <getRightIR>
    4e96:	4b 01       	movw	r8, r22
    4e98:	5c 01       	movw	r10, r24
				leftIR = getLeftIR();
    4e9a:	0e 94 a0 16 	call	0x2d40	; 0x2d40 <getLeftIR>
    4e9e:	6b 01       	movw	r12, r22
    4ea0:	7c 01       	movw	r14, r24
				if ((leftIR < ICT) && (rightIR < ICT)) { // near both walls so use center follow
    4ea2:	20 e0       	ldi	r18, 0x00	; 0
    4ea4:	30 e0       	ldi	r19, 0x00	; 0
    4ea6:	40 e2       	ldi	r20, 0x20	; 32
    4ea8:	51 e4       	ldi	r21, 0x41	; 65
    4eaa:	0e 94 47 2a 	call	0x548e	; 0x548e <__cmpsf2>
    4eae:	88 23       	and	r24, r24
    4eb0:	74 f4       	brge	.+28     	; 0x4ece <CBOT_main+0xf0>
    4eb2:	20 e0       	ldi	r18, 0x00	; 0
    4eb4:	30 e0       	ldi	r19, 0x00	; 0
    4eb6:	40 e2       	ldi	r20, 0x20	; 32
    4eb8:	51 e4       	ldi	r21, 0x41	; 65
    4eba:	c5 01       	movw	r24, r10
    4ebc:	b4 01       	movw	r22, r8
    4ebe:	0e 94 47 2a 	call	0x548e	; 0x548e <__cmpsf2>
    4ec2:	88 23       	and	r24, r24
    4ec4:	0c f0       	brlt	.+2      	; 0x4ec8 <CBOT_main+0xea>
    4ec6:	04 c2       	rjmp	.+1032   	; 0x52d0 <CBOT_main+0x4f2>
					centerFollow();
    4ec8:	0e 94 d5 1c 	call	0x39aa	; 0x39aa <centerFollow>
    4ecc:	de cf       	rjmp	.-68     	; 0x4e8a <CBOT_main+0xac>
				} else if (rightIR < ICT){ // Walls to the right so follows on the right side
    4ece:	20 e0       	ldi	r18, 0x00	; 0
    4ed0:	30 e0       	ldi	r19, 0x00	; 0
    4ed2:	40 e2       	ldi	r20, 0x20	; 32
    4ed4:	51 e4       	ldi	r21, 0x41	; 65
    4ed6:	c5 01       	movw	r24, r10
    4ed8:	b4 01       	movw	r22, r8
    4eda:	0e 94 47 2a 	call	0x548e	; 0x548e <__cmpsf2>
    4ede:	88 23       	and	r24, r24
    4ee0:	14 f4       	brge	.+4      	; 0x4ee6 <CBOT_main+0x108>
					rightFollow();
    4ee2:	0e 94 c5 18 	call	0x318a	; 0x318a <rightFollow>
				} else if (leftIR < ICT) { // Walls to the left so follows on the left side
    4ee6:	20 e0       	ldi	r18, 0x00	; 0
    4ee8:	30 e0       	ldi	r19, 0x00	; 0
    4eea:	40 e2       	ldi	r20, 0x20	; 32
    4eec:	51 e4       	ldi	r21, 0x41	; 65
    4eee:	c7 01       	movw	r24, r14
    4ef0:	b6 01       	movw	r22, r12
    4ef2:	0e 94 47 2a 	call	0x548e	; 0x548e <__cmpsf2>
    4ef6:	88 23       	and	r24, r24
    4ef8:	14 f4       	brge	.+4      	; 0x4efe <CBOT_main+0x120>
					leftFollow();
    4efa:	0e 94 cd 1a 	call	0x359a	; 0x359a <leftFollow>
				} else if (frontIR < ICT) { // Sees something to the front of it
    4efe:	20 e0       	ldi	r18, 0x00	; 0
    4f00:	30 e0       	ldi	r19, 0x00	; 0
    4f02:	40 e2       	ldi	r20, 0x20	; 32
    4f04:	51 e4       	ldi	r21, 0x41	; 65
    4f06:	c3 01       	movw	r24, r6
    4f08:	b2 01       	movw	r22, r4
    4f0a:	0e 94 47 2a 	call	0x548e	; 0x548e <__cmpsf2>
    4f0e:	88 23       	and	r24, r24
    4f10:	0c f0       	brlt	.+2      	; 0x4f14 <CBOT_main+0x136>
    4f12:	5b c0       	rjmp	.+182    	; 0x4fca <CBOT_main+0x1ec>
					LCD_clear();
    4f14:	0e 94 ec 03 	call	0x7d8	; 0x7d8 <LCD_clear>
					LCD_printf("Forward,");
    4f18:	87 e3       	ldi	r24, 0x37	; 55
    4f1a:	93 e0       	ldi	r25, 0x03	; 3
    4f1c:	9f 93       	push	r25
    4f1e:	8f 93       	push	r24
    4f20:	0e 94 bd 34 	call	0x697a	; 0x697a <printf>
					LCD_printf("\nthen Follow");
    4f24:	80 e4       	ldi	r24, 0x40	; 64
    4f26:	93 e0       	ldi	r25, 0x03	; 3
    4f28:	9f 93       	push	r25
    4f2a:	8f 93       	push	r24
    4f2c:	0e 94 bd 34 	call	0x697a	; 0x697a <printf>

					STEPPER_move_rn(STEPPER_BOTH, // Move a tad forward to get closer to the wall
    4f30:	1f 92       	push	r1
    4f32:	1f 92       	push	r1
    4f34:	1f 92       	push	r1
    4f36:	81 e0       	ldi	r24, 0x01	; 1
    4f38:	8f 93       	push	r24
    4f3a:	80 e9       	ldi	r24, 0x90	; 144
    4f3c:	8f 93       	push	r24
    4f3e:	1f 92       	push	r1
    4f40:	86 e9       	ldi	r24, 0x96	; 150
    4f42:	8f 93       	push	r24
    4f44:	1f 92       	push	r1
    4f46:	1f 92       	push	r1
    4f48:	81 2c       	mov	r8, r1
    4f4a:	a1 2c       	mov	r10, r1
    4f4c:	b1 2c       	mov	r11, r1
    4f4e:	c1 2c       	mov	r12, r1
    4f50:	0f 2e       	mov	r0, r31
    4f52:	f0 e9       	ldi	r31, 0x90	; 144
    4f54:	ef 2e       	mov	r14, r31
    4f56:	ff 24       	eor	r15, r15
    4f58:	f3 94       	inc	r15
    4f5a:	f0 2d       	mov	r31, r0
    4f5c:	06 e9       	ldi	r16, 0x96	; 150
    4f5e:	10 e0       	ldi	r17, 0x00	; 0
    4f60:	20 e0       	ldi	r18, 0x00	; 0
    4f62:	30 e0       	ldi	r19, 0x00	; 0
    4f64:	40 e0       	ldi	r20, 0x00	; 0
    4f66:	62 e0       	ldi	r22, 0x02	; 2
    4f68:	82 e0       	ldi	r24, 0x02	; 2
    4f6a:	0e 94 fc 06 	call	0xdf8	; 0xdf8 <STEPPER_move>
							STEPPER_FWD, 150, 400,	//Left
							STEPPER_FWD, 150, 400);	//Right
					TMRSRVC_delay(500); // 0.5 sec delay
    4f6e:	84 ef       	ldi	r24, 0xF4	; 244
    4f70:	91 e0       	ldi	r25, 0x01	; 1
    4f72:	0e 94 aa 0a 	call	0x1554	; 0x1554 <TMRSRVC_delay>
					rightIR = getRightIR();
    4f76:	0e 94 c8 16 	call	0x2d90	; 0x2d90 <getRightIR>
    4f7a:	6b 01       	movw	r12, r22
    4f7c:	7c 01       	movw	r14, r24
					leftIR = getLeftIR();
    4f7e:	0e 94 a0 16 	call	0x2d40	; 0x2d40 <getLeftIR>
    4f82:	9b 01       	movw	r18, r22
    4f84:	ac 01       	movw	r20, r24
					if (leftIR > rightIR){ // determins what side the robot is closer to the wall. Essentialy random when perpendicular
    4f86:	8d b7       	in	r24, 0x3d	; 61
    4f88:	9e b7       	in	r25, 0x3e	; 62
    4f8a:	0d 96       	adiw	r24, 0x0d	; 13
    4f8c:	0f b6       	in	r0, 0x3f	; 63
    4f8e:	f8 94       	cli
    4f90:	9e bf       	out	0x3e, r25	; 62
    4f92:	0f be       	out	0x3f, r0	; 63
    4f94:	8d bf       	out	0x3d, r24	; 61
    4f96:	c7 01       	movw	r24, r14
    4f98:	b6 01       	movw	r22, r12
    4f9a:	0e 94 47 2a 	call	0x548e	; 0x548e <__cmpsf2>
    4f9e:	88 23       	and	r24, r24
    4fa0:	54 f4       	brge	.+20     	; 0x4fb6 <CBOT_main+0x1d8>
						//turn right
						go2ContAngle(-90, 100); // Left 90 turn
    4fa2:	44 e6       	ldi	r20, 0x64	; 100
    4fa4:	50 e0       	ldi	r21, 0x00	; 0
    4fa6:	60 e0       	ldi	r22, 0x00	; 0
    4fa8:	70 e0       	ldi	r23, 0x00	; 0
    4faa:	84 eb       	ldi	r24, 0xB4	; 180
    4fac:	92 ec       	ldi	r25, 0xC2	; 194
    4fae:	0e 94 03 18 	call	0x3006	; 0x3006 <go2ContAngle>
						leftFollow();
    4fb2:	0e 94 cd 1a 	call	0x359a	; 0x359a <leftFollow>
					}else {
						//turn left
						go2ContAngle(90, 100); // Right 90 turn
    4fb6:	44 e6       	ldi	r20, 0x64	; 100
    4fb8:	50 e0       	ldi	r21, 0x00	; 0
    4fba:	60 e0       	ldi	r22, 0x00	; 0
    4fbc:	70 e0       	ldi	r23, 0x00	; 0
    4fbe:	84 eb       	ldi	r24, 0xB4	; 180
    4fc0:	92 e4       	ldi	r25, 0x42	; 66
    4fc2:	0e 94 03 18 	call	0x3006	; 0x3006 <go2ContAngle>
						rightFollow();
    4fc6:	0e 94 c5 18 	call	0x318a	; 0x318a <rightFollow>
					}
				} else { // If sensors don't detect anything, random wanderer is engaged
					LCD_clear();
    4fca:	0e 94 ec 03 	call	0x7d8	; 0x7d8 <LCD_clear>
					LCD_printf("Random\n");
    4fce:	8d e4       	ldi	r24, 0x4D	; 77
    4fd0:	93 e0       	ldi	r25, 0x03	; 3
    4fd2:	0e 94 d1 34 	call	0x69a2	; 0x69a2 <puts>
					LCD_printf("Wanderer\n");
    4fd6:	84 e5       	ldi	r24, 0x54	; 84
    4fd8:	93 e0       	ldi	r25, 0x03	; 3
    4fda:	0e 94 d1 34 	call	0x69a2	; 0x69a2 <puts>

					Random_Wanderer();
    4fde:	0e 94 52 16 	call	0x2ca4	; 0x2ca4 <Random_Wanderer>
    4fe2:	53 cf       	rjmp	.-346    	; 0x4e8a <CBOT_main+0xac>
				}
			}
		}else if(ATTINY_get_SW_state(ATTINY_SW4)){
    4fe4:	81 e0       	ldi	r24, 0x01	; 1
    4fe6:	0e 94 0d 0a 	call	0x141a	; 0x141a <ATTINY_get_SW_state>
    4fea:	88 23       	and	r24, r24
    4fec:	09 f4       	brne	.+2      	; 0x4ff0 <CBOT_main+0x212>
    4fee:	db c0       	rjmp	.+438    	; 0x51a6 <CBOT_main+0x3c8>
			while(1){
				frontIR = getFrontIR();
    4ff0:	0e 94 f0 16 	call	0x2de0	; 0x2de0 <getFrontIR>
    4ff4:	2b 01       	movw	r4, r22
    4ff6:	3c 01       	movw	r6, r24
				rightIR = getRightIR();
    4ff8:	0e 94 c8 16 	call	0x2d90	; 0x2d90 <getRightIR>
    4ffc:	4b 01       	movw	r8, r22
    4ffe:	5c 01       	movw	r10, r24
				leftIR = getLeftIR();
    5000:	0e 94 a0 16 	call	0x2d40	; 0x2d40 <getLeftIR>
    5004:	6b 01       	movw	r12, r22
    5006:	7c 01       	movw	r14, r24
				if ((leftIR < ICT) && (rightIR < ICT)) { // near both walls so use center follow
    5008:	20 e0       	ldi	r18, 0x00	; 0
    500a:	30 e0       	ldi	r19, 0x00	; 0
    500c:	40 e2       	ldi	r20, 0x20	; 32
    500e:	51 e4       	ldi	r21, 0x41	; 65
    5010:	0e 94 47 2a 	call	0x548e	; 0x548e <__cmpsf2>
    5014:	88 23       	and	r24, r24
    5016:	74 f4       	brge	.+28     	; 0x5034 <CBOT_main+0x256>
    5018:	20 e0       	ldi	r18, 0x00	; 0
    501a:	30 e0       	ldi	r19, 0x00	; 0
    501c:	40 e2       	ldi	r20, 0x20	; 32
    501e:	51 e4       	ldi	r21, 0x41	; 65
    5020:	c5 01       	movw	r24, r10
    5022:	b4 01       	movw	r22, r8
    5024:	0e 94 47 2a 	call	0x548e	; 0x548e <__cmpsf2>
    5028:	88 23       	and	r24, r24
    502a:	0c f0       	brlt	.+2      	; 0x502e <CBOT_main+0x250>
    502c:	5d c1       	rjmp	.+698    	; 0x52e8 <CBOT_main+0x50a>
					centerFollow();
    502e:	0e 94 d5 1c 	call	0x39aa	; 0x39aa <centerFollow>
    5032:	de cf       	rjmp	.-68     	; 0x4ff0 <CBOT_main+0x212>
				} else if (rightIR < ICT){ // Walls to the right so follows on the right side
    5034:	20 e0       	ldi	r18, 0x00	; 0
    5036:	30 e0       	ldi	r19, 0x00	; 0
    5038:	40 e2       	ldi	r20, 0x20	; 32
    503a:	51 e4       	ldi	r21, 0x41	; 65
    503c:	c5 01       	movw	r24, r10
    503e:	b4 01       	movw	r22, r8
    5040:	0e 94 47 2a 	call	0x548e	; 0x548e <__cmpsf2>
    5044:	88 23       	and	r24, r24
    5046:	14 f4       	brge	.+4      	; 0x504c <CBOT_main+0x26e>
					rightFollow();
    5048:	0e 94 c5 18 	call	0x318a	; 0x318a <rightFollow>
				} else if (leftIR < ICT) { // Walls to the left so follows on the left side
    504c:	20 e0       	ldi	r18, 0x00	; 0
    504e:	30 e0       	ldi	r19, 0x00	; 0
    5050:	40 e2       	ldi	r20, 0x20	; 32
    5052:	51 e4       	ldi	r21, 0x41	; 65
    5054:	c7 01       	movw	r24, r14
    5056:	b6 01       	movw	r22, r12
    5058:	0e 94 47 2a 	call	0x548e	; 0x548e <__cmpsf2>
    505c:	88 23       	and	r24, r24
    505e:	14 f4       	brge	.+4      	; 0x5064 <CBOT_main+0x286>
					leftFollow();
    5060:	0e 94 cd 1a 	call	0x359a	; 0x359a <leftFollow>
				} else if (frontIR < ICT) { // Sees something to the front of it
    5064:	20 e0       	ldi	r18, 0x00	; 0
    5066:	30 e0       	ldi	r19, 0x00	; 0
    5068:	40 e2       	ldi	r20, 0x20	; 32
    506a:	51 e4       	ldi	r21, 0x41	; 65
    506c:	c3 01       	movw	r24, r6
    506e:	b2 01       	movw	r22, r4
    5070:	0e 94 47 2a 	call	0x548e	; 0x548e <__cmpsf2>
    5074:	88 23       	and	r24, r24
    5076:	0c f0       	brlt	.+2      	; 0x507a <CBOT_main+0x29c>
    5078:	89 c0       	rjmp	.+274    	; 0x518c <CBOT_main+0x3ae>
					STEPPER_move_rn(STEPPER_BOTH, // Move a tad forward to get closer to the wall
    507a:	1f 92       	push	r1
    507c:	1f 92       	push	r1
    507e:	1f 92       	push	r1
    5080:	d1 e0       	ldi	r29, 0x01	; 1
    5082:	df 93       	push	r29
    5084:	c0 e9       	ldi	r28, 0x90	; 144
    5086:	cf 93       	push	r28
    5088:	1f 92       	push	r1
    508a:	1f 92       	push	r1
    508c:	1f 92       	push	r1
    508e:	1f 92       	push	r1
    5090:	81 2c       	mov	r8, r1
    5092:	a1 2c       	mov	r10, r1
    5094:	b1 2c       	mov	r11, r1
    5096:	c1 2c       	mov	r12, r1
    5098:	0f 2e       	mov	r0, r31
    509a:	f0 e9       	ldi	r31, 0x90	; 144
    509c:	ef 2e       	mov	r14, r31
    509e:	ff 24       	eor	r15, r15
    50a0:	f3 94       	inc	r15
    50a2:	f0 2d       	mov	r31, r0
    50a4:	00 e0       	ldi	r16, 0x00	; 0
    50a6:	10 e0       	ldi	r17, 0x00	; 0
    50a8:	20 e0       	ldi	r18, 0x00	; 0
    50aa:	30 e0       	ldi	r19, 0x00	; 0
    50ac:	40 e0       	ldi	r20, 0x00	; 0
    50ae:	62 e0       	ldi	r22, 0x02	; 2
    50b0:	82 e0       	ldi	r24, 0x02	; 2
    50b2:	0e 94 fc 06 	call	0xdf8	; 0xdf8 <STEPPER_move>
							STEPPER_FWD, 0, 400,	//Left
							STEPPER_FWD, 0, 400);	//Right
					go2ContAngle(45, 100); // Right 45 degree turn
    50b6:	44 e6       	ldi	r20, 0x64	; 100
    50b8:	50 e0       	ldi	r21, 0x00	; 0
    50ba:	60 e0       	ldi	r22, 0x00	; 0
    50bc:	70 e0       	ldi	r23, 0x00	; 0
    50be:	84 e3       	ldi	r24, 0x34	; 52
    50c0:	92 e4       	ldi	r25, 0x42	; 66
    50c2:	0e 94 03 18 	call	0x3006	; 0x3006 <go2ContAngle>

					frontIR = getFrontIR();
    50c6:	0e 94 f0 16 	call	0x2de0	; 0x2de0 <getFrontIR>
					if (frontIR < ICT){ // test if object or wall
						IsWall = IsWall++;
					}
					go2ContAngle(-90, 100); // Left 90 degree turn
    50ca:	44 e6       	ldi	r20, 0x64	; 100
    50cc:	50 e0       	ldi	r21, 0x00	; 0
    50ce:	60 e0       	ldi	r22, 0x00	; 0
    50d0:	70 e0       	ldi	r23, 0x00	; 0
    50d2:	84 eb       	ldi	r24, 0xB4	; 180
    50d4:	92 ec       	ldi	r25, 0xC2	; 194
    50d6:	0e 94 03 18 	call	0x3006	; 0x3006 <go2ContAngle>
					frontIR = getFrontIR();
    50da:	0e 94 f0 16 	call	0x2de0	; 0x2de0 <getFrontIR>
					if (frontIR < ICT){  // test if object or wall
						IsWall = IsWall++;
					}
					go2ContAngle(45, 100); // Right 45 degree turn
    50de:	44 e6       	ldi	r20, 0x64	; 100
    50e0:	50 e0       	ldi	r21, 0x00	; 0
    50e2:	60 e0       	ldi	r22, 0x00	; 0
    50e4:	70 e0       	ldi	r23, 0x00	; 0
    50e6:	84 e3       	ldi	r24, 0x34	; 52
    50e8:	92 e4       	ldi	r25, 0x42	; 66
    50ea:	0e 94 03 18 	call	0x3006	; 0x3006 <go2ContAngle>
					if (IsWall > 0){ // avoid object
						go2point(5,0);
					} else { // follow the wall
						LCD_clear();
    50ee:	0e 94 ec 03 	call	0x7d8	; 0x7d8 <LCD_clear>
						LCD_printf("Forward,");
    50f2:	87 e3       	ldi	r24, 0x37	; 55
    50f4:	93 e0       	ldi	r25, 0x03	; 3
    50f6:	9f 93       	push	r25
    50f8:	8f 93       	push	r24
    50fa:	0e 94 bd 34 	call	0x697a	; 0x697a <printf>
						LCD_printf("\nthen Follow");
    50fe:	80 e4       	ldi	r24, 0x40	; 64
    5100:	93 e0       	ldi	r25, 0x03	; 3
    5102:	9f 93       	push	r25
    5104:	8f 93       	push	r24
    5106:	0e 94 bd 34 	call	0x697a	; 0x697a <printf>

						STEPPER_move_rn(STEPPER_BOTH,
    510a:	1f 92       	push	r1
    510c:	1f 92       	push	r1
    510e:	1f 92       	push	r1
    5110:	df 93       	push	r29
    5112:	cf 93       	push	r28
    5114:	1f 92       	push	r1
    5116:	86 e9       	ldi	r24, 0x96	; 150
    5118:	8f 93       	push	r24
    511a:	1f 92       	push	r1
    511c:	1f 92       	push	r1
    511e:	06 e9       	ldi	r16, 0x96	; 150
    5120:	10 e0       	ldi	r17, 0x00	; 0
    5122:	20 e0       	ldi	r18, 0x00	; 0
    5124:	30 e0       	ldi	r19, 0x00	; 0
    5126:	40 e0       	ldi	r20, 0x00	; 0
    5128:	62 e0       	ldi	r22, 0x02	; 2
    512a:	82 e0       	ldi	r24, 0x02	; 2
    512c:	0e 94 fc 06 	call	0xdf8	; 0xdf8 <STEPPER_move>
								STEPPER_FWD, 150, 400,	//Left
								STEPPER_FWD, 150, 400);	//Right
						TMRSRVC_delay(500); // 0.5 sec delay
    5130:	84 ef       	ldi	r24, 0xF4	; 244
    5132:	91 e0       	ldi	r25, 0x01	; 1
    5134:	0e 94 aa 0a 	call	0x1554	; 0x1554 <TMRSRVC_delay>
						rightIR = getRightIR();
    5138:	0e 94 c8 16 	call	0x2d90	; 0x2d90 <getRightIR>
    513c:	6b 01       	movw	r12, r22
    513e:	7c 01       	movw	r14, r24
						leftIR = getLeftIR();
    5140:	0e 94 a0 16 	call	0x2d40	; 0x2d40 <getLeftIR>
    5144:	9b 01       	movw	r18, r22
    5146:	ac 01       	movw	r20, r24
						if (leftIR > rightIR){
    5148:	8d b7       	in	r24, 0x3d	; 61
    514a:	9e b7       	in	r25, 0x3e	; 62
    514c:	46 96       	adiw	r24, 0x16	; 22
    514e:	0f b6       	in	r0, 0x3f	; 63
    5150:	f8 94       	cli
    5152:	9e bf       	out	0x3e, r25	; 62
    5154:	0f be       	out	0x3f, r0	; 63
    5156:	8d bf       	out	0x3d, r24	; 61
    5158:	c7 01       	movw	r24, r14
    515a:	b6 01       	movw	r22, r12
    515c:	0e 94 47 2a 	call	0x548e	; 0x548e <__cmpsf2>
    5160:	88 23       	and	r24, r24
    5162:	54 f4       	brge	.+20     	; 0x5178 <CBOT_main+0x39a>
							//turn 90 degree right
							go2ContAngle(-90, 100);
    5164:	44 e6       	ldi	r20, 0x64	; 100
    5166:	50 e0       	ldi	r21, 0x00	; 0
    5168:	60 e0       	ldi	r22, 0x00	; 0
    516a:	70 e0       	ldi	r23, 0x00	; 0
    516c:	84 eb       	ldi	r24, 0xB4	; 180
    516e:	92 ec       	ldi	r25, 0xC2	; 194
    5170:	0e 94 03 18 	call	0x3006	; 0x3006 <go2ContAngle>
							leftFollow();
    5174:	0e 94 cd 1a 	call	0x359a	; 0x359a <leftFollow>
						}else {
							//turn 90 degree left
							go2ContAngle(90, 100);
    5178:	44 e6       	ldi	r20, 0x64	; 100
    517a:	50 e0       	ldi	r21, 0x00	; 0
    517c:	60 e0       	ldi	r22, 0x00	; 0
    517e:	70 e0       	ldi	r23, 0x00	; 0
    5180:	84 eb       	ldi	r24, 0xB4	; 180
    5182:	92 e4       	ldi	r25, 0x42	; 66
    5184:	0e 94 03 18 	call	0x3006	; 0x3006 <go2ContAngle>
							rightFollow();
    5188:	0e 94 c5 18 	call	0x318a	; 0x318a <rightFollow>
						}					

					} }else { // If sensors don't detect anything, random wanderer is engaged
						LCD_clear();
    518c:	0e 94 ec 03 	call	0x7d8	; 0x7d8 <LCD_clear>
						LCD_printf("Random\n");
    5190:	8d e4       	ldi	r24, 0x4D	; 77
    5192:	93 e0       	ldi	r25, 0x03	; 3
    5194:	0e 94 d1 34 	call	0x69a2	; 0x69a2 <puts>
						LCD_printf("Wanderer\n");
    5198:	84 e5       	ldi	r24, 0x54	; 84
    519a:	93 e0       	ldi	r25, 0x03	; 3
    519c:	0e 94 d1 34 	call	0x69a2	; 0x69a2 <puts>

						Random_Wanderer();
    51a0:	0e 94 52 16 	call	0x2ca4	; 0x2ca4 <Random_Wanderer>
    51a4:	25 cf       	rjmp	.-438    	; 0x4ff0 <CBOT_main+0x212>
					}
				}


			}else if(ATTINY_get_SW_state(ATTINY_SW5)){
    51a6:	82 e0       	ldi	r24, 0x02	; 2
    51a8:	0e 94 0d 0a 	call	0x141a	; 0x141a <ATTINY_get_SW_state>
    51ac:	88 23       	and	r24, r24
    51ae:	09 f4       	brne	.+2      	; 0x51b2 <CBOT_main+0x3d4>
    51b0:	58 ce       	rjmp	.-848    	; 0x4e62 <CBOT_main+0x84>
    51b2:	71 2c       	mov	r7, r1
    51b4:	32 c0       	rjmp	.+100    	; 0x521a <CBOT_main+0x43c>
				// While SW5 is not pressed...
				while(!ATTINY_get_SW_state(ATTINY_SW5)){
					LCD_clear();
    51b6:	0e 94 ec 03 	call	0x7d8	; 0x7d8 <LCD_clear>
					LCD_printf("( %d , %d )", cox, coy); // Displays the angle selection.
    51ba:	1f 92       	push	r1
    51bc:	1f 92       	push	r1
    51be:	87 2d       	mov	r24, r7
    51c0:	99 27       	eor	r25, r25
    51c2:	87 fd       	sbrc	r24, 7
    51c4:	90 95       	com	r25
    51c6:	9f 93       	push	r25
    51c8:	7f 92       	push	r7
    51ca:	df 93       	push	r29
    51cc:	cf 93       	push	r28
    51ce:	0e 94 bd 34 	call	0x697a	; 0x697a <printf>
					LCD_printf("\nSW3 + | SW4 - \nSW5 To y");
    51d2:	bf 92       	push	r11
    51d4:	af 92       	push	r10
    51d6:	0e 94 bd 34 	call	0x697a	; 0x697a <printf>
					// If SW3 is pressed, the coordinate x is incremented.
					if(ATTINY_get_SW_state(ATTINY_SW3)){
    51da:	80 e0       	ldi	r24, 0x00	; 0
    51dc:	0e 94 0d 0a 	call	0x141a	; 0x141a <ATTINY_get_SW_state>
    51e0:	2d b7       	in	r18, 0x3d	; 61
    51e2:	3e b7       	in	r19, 0x3e	; 62
    51e4:	28 5f       	subi	r18, 0xF8	; 248
    51e6:	3f 4f       	sbci	r19, 0xFF	; 255
    51e8:	0f b6       	in	r0, 0x3f	; 63
    51ea:	f8 94       	cli
    51ec:	3e bf       	out	0x3e, r19	; 62
    51ee:	0f be       	out	0x3f, r0	; 63
    51f0:	2d bf       	out	0x3d, r18	; 61
    51f2:	88 23       	and	r24, r24
    51f4:	29 f0       	breq	.+10     	; 0x5200 <CBOT_main+0x422>
						cox++;
    51f6:	73 94       	inc	r7
						// If the x value is > 5, it goes back to -5.
						if (cox > 20){
    51f8:	34 e1       	ldi	r19, 0x14	; 20
    51fa:	37 15       	cp	r19, r7
    51fc:	5c f0       	brlt	.+22     	; 0x5214 <CBOT_main+0x436>
    51fe:	0d c0       	rjmp	.+26     	; 0x521a <CBOT_main+0x43c>
							cox = -20;
						}
						// If SW4 is pressed, the coordinate x is decremented.
						}else if(ATTINY_get_SW_state(ATTINY_SW4)){
    5200:	81 e0       	ldi	r24, 0x01	; 1
    5202:	0e 94 0d 0a 	call	0x141a	; 0x141a <ATTINY_get_SW_state>
    5206:	88 23       	and	r24, r24
    5208:	41 f0       	breq	.+16     	; 0x521a <CBOT_main+0x43c>
						cox--;
    520a:	7a 94       	dec	r7
						// If the x value is < -5, it goes back to 5.
						if(cox < -20){
    520c:	8c ee       	ldi	r24, 0xEC	; 236
    520e:	78 16       	cp	r7, r24
    5210:	1c f0       	brlt	.+6      	; 0x5218 <CBOT_main+0x43a>
    5212:	03 c0       	rjmp	.+6      	; 0x521a <CBOT_main+0x43c>
					// If SW3 is pressed, the coordinate x is incremented.
					if(ATTINY_get_SW_state(ATTINY_SW3)){
						cox++;
						// If the x value is > 5, it goes back to -5.
						if (cox > 20){
							cox = -20;
    5214:	79 2c       	mov	r7, r9
    5216:	01 c0       	rjmp	.+2      	; 0x521a <CBOT_main+0x43c>
						// If SW4 is pressed, the coordinate x is decremented.
						}else if(ATTINY_get_SW_state(ATTINY_SW4)){
						cox--;
						// If the x value is < -5, it goes back to 5.
						if(cox < -20){
							cox = 20;
    5218:	78 2c       	mov	r7, r8
				}


			}else if(ATTINY_get_SW_state(ATTINY_SW5)){
				// While SW5 is not pressed...
				while(!ATTINY_get_SW_state(ATTINY_SW5)){
    521a:	82 e0       	ldi	r24, 0x02	; 2
    521c:	0e 94 0d 0a 	call	0x141a	; 0x141a <ATTINY_get_SW_state>
    5220:	88 23       	and	r24, r24
    5222:	49 f2       	breq	.-110    	; 0x51b6 <CBOT_main+0x3d8>
    5224:	d1 2c       	mov	r13, r1
				}
				// After choosing the value of the coordinate x, the user must choose the value of the coordinate y:
				// While SW5 is not pressed...
				while(!ATTINY_get_SW_state(ATTINY_SW5)){
					LCD_clear();
					LCD_printf("( %d , %d )", cox, coy);
    5226:	e7 2c       	mov	r14, r7
    5228:	ff 24       	eor	r15, r15
    522a:	e7 fc       	sbrc	r14, 7
    522c:	f0 94       	com	r15
    522e:	32 c0       	rjmp	.+100    	; 0x5294 <CBOT_main+0x4b6>
					}
				}
				// After choosing the value of the coordinate x, the user must choose the value of the coordinate y:
				// While SW5 is not pressed...
				while(!ATTINY_get_SW_state(ATTINY_SW5)){
					LCD_clear();
    5230:	0e 94 ec 03 	call	0x7d8	; 0x7d8 <LCD_clear>
					LCD_printf("( %d , %d )", cox, coy);
    5234:	8d 2d       	mov	r24, r13
    5236:	99 27       	eor	r25, r25
    5238:	87 fd       	sbrc	r24, 7
    523a:	90 95       	com	r25
    523c:	9f 93       	push	r25
    523e:	df 92       	push	r13
    5240:	ff 92       	push	r15
    5242:	7f 92       	push	r7
    5244:	df 93       	push	r29
    5246:	cf 93       	push	r28
    5248:	0e 94 bd 34 	call	0x697a	; 0x697a <printf>
					LCD_printf("\nSW3 + | SW4 - \nSW5 Enter");
    524c:	1f 93       	push	r17
    524e:	0f 93       	push	r16
    5250:	0e 94 bd 34 	call	0x697a	; 0x697a <printf>
					// If SW3 is pressed, the coordinate y is incremented.
					if(ATTINY_get_SW_state(ATTINY_SW3)){
    5254:	80 e0       	ldi	r24, 0x00	; 0
    5256:	0e 94 0d 0a 	call	0x141a	; 0x141a <ATTINY_get_SW_state>
    525a:	2d b7       	in	r18, 0x3d	; 61
    525c:	3e b7       	in	r19, 0x3e	; 62
    525e:	28 5f       	subi	r18, 0xF8	; 248
    5260:	3f 4f       	sbci	r19, 0xFF	; 255
    5262:	0f b6       	in	r0, 0x3f	; 63
    5264:	f8 94       	cli
    5266:	3e bf       	out	0x3e, r19	; 62
    5268:	0f be       	out	0x3f, r0	; 63
    526a:	2d bf       	out	0x3d, r18	; 61
    526c:	88 23       	and	r24, r24
    526e:	29 f0       	breq	.+10     	; 0x527a <CBOT_main+0x49c>
						coy++;
    5270:	d3 94       	inc	r13
						// If the x value is > 5, it goes back to -5.
						if (coy > 20){
    5272:	34 e1       	ldi	r19, 0x14	; 20
    5274:	3d 15       	cp	r19, r13
    5276:	5c f0       	brlt	.+22     	; 0x528e <CBOT_main+0x4b0>
    5278:	0d c0       	rjmp	.+26     	; 0x5294 <CBOT_main+0x4b6>
							coy = -20;
						}
						// If SW4 is pressed, the coordinate y is decremented.
						}else if(ATTINY_get_SW_state(ATTINY_SW4)){
    527a:	81 e0       	ldi	r24, 0x01	; 1
    527c:	0e 94 0d 0a 	call	0x141a	; 0x141a <ATTINY_get_SW_state>
    5280:	88 23       	and	r24, r24
    5282:	41 f0       	breq	.+16     	; 0x5294 <CBOT_main+0x4b6>
						coy--;
    5284:	da 94       	dec	r13
						// If the x value is < -5, it goes back to 5
						if(coy < -20){
    5286:	8c ee       	ldi	r24, 0xEC	; 236
    5288:	d8 16       	cp	r13, r24
    528a:	1c f0       	brlt	.+6      	; 0x5292 <CBOT_main+0x4b4>
    528c:	03 c0       	rjmp	.+6      	; 0x5294 <CBOT_main+0x4b6>
					// If SW3 is pressed, the coordinate y is incremented.
					if(ATTINY_get_SW_state(ATTINY_SW3)){
						coy++;
						// If the x value is > 5, it goes back to -5.
						if (coy > 20){
							coy = -20;
    528e:	d9 2c       	mov	r13, r9
    5290:	01 c0       	rjmp	.+2      	; 0x5294 <CBOT_main+0x4b6>
						// If SW4 is pressed, the coordinate y is decremented.
						}else if(ATTINY_get_SW_state(ATTINY_SW4)){
						coy--;
						// If the x value is < -5, it goes back to 5
						if(coy < -20){
							coy = 20;
    5292:	d8 2c       	mov	r13, r8
						}
					}
				}
				// After choosing the value of the coordinate x, the user must choose the value of the coordinate y:
				// While SW5 is not pressed...
				while(!ATTINY_get_SW_state(ATTINY_SW5)){
    5294:	82 e0       	ldi	r24, 0x02	; 2
    5296:	0e 94 0d 0a 	call	0x141a	; 0x141a <ATTINY_get_SW_state>
    529a:	88 23       	and	r24, r24
    529c:	49 f2       	breq	.-110    	; 0x5230 <CBOT_main+0x452>
							coy = 20;
						}
					}
				}
				// Calls go to goal point function.
				goes2goal(cox,coy);
    529e:	6d 2d       	mov	r22, r13
    52a0:	77 27       	eor	r23, r23
    52a2:	67 fd       	sbrc	r22, 7
    52a4:	70 95       	com	r23
    52a6:	87 2f       	mov	r24, r23
    52a8:	97 2f       	mov	r25, r23
    52aa:	0e 94 e9 2a 	call	0x55d2	; 0x55d2 <__floatsisf>
    52ae:	6b 01       	movw	r12, r22
    52b0:	7c 01       	movw	r14, r24
    52b2:	67 2d       	mov	r22, r7
    52b4:	77 27       	eor	r23, r23
    52b6:	67 fd       	sbrc	r22, 7
    52b8:	70 95       	com	r23
    52ba:	87 2f       	mov	r24, r23
    52bc:	97 2f       	mov	r25, r23
    52be:	0e 94 e9 2a 	call	0x55d2	; 0x55d2 <__floatsisf>
    52c2:	a7 01       	movw	r20, r14
    52c4:	96 01       	movw	r18, r12
    52c6:	0e 94 94 25 	call	0x4b28	; 0x4b28 <goes2goal>
				//go2Goal(cox,coy);
				// Clears the variables up.
				cox = 0;
				coy = 0;
				LCD_clear();
    52ca:	0e 94 ec 03 	call	0x7d8	; 0x7d8 <LCD_clear>
    52ce:	c9 cd       	rjmp	.-1134   	; 0x4e62 <CBOT_main+0x84>
				frontIR = getFrontIR();
				rightIR = getRightIR();
				leftIR = getLeftIR();
				if ((leftIR < ICT) && (rightIR < ICT)) { // near both walls so use center follow
					centerFollow();
				} else if (rightIR < ICT){ // Walls to the right so follows on the right side
    52d0:	20 e0       	ldi	r18, 0x00	; 0
    52d2:	30 e0       	ldi	r19, 0x00	; 0
    52d4:	40 e2       	ldi	r20, 0x20	; 32
    52d6:	51 e4       	ldi	r21, 0x41	; 65
    52d8:	c5 01       	movw	r24, r10
    52da:	b4 01       	movw	r22, r8
    52dc:	0e 94 47 2a 	call	0x548e	; 0x548e <__cmpsf2>
    52e0:	88 23       	and	r24, r24
    52e2:	0c f0       	brlt	.+2      	; 0x52e6 <CBOT_main+0x508>
    52e4:	0a ce       	rjmp	.-1004   	; 0x4efa <CBOT_main+0x11c>
    52e6:	fd cd       	rjmp	.-1030   	; 0x4ee2 <CBOT_main+0x104>
				frontIR = getFrontIR();
				rightIR = getRightIR();
				leftIR = getLeftIR();
				if ((leftIR < ICT) && (rightIR < ICT)) { // near both walls so use center follow
					centerFollow();
				} else if (rightIR < ICT){ // Walls to the right so follows on the right side
    52e8:	20 e0       	ldi	r18, 0x00	; 0
    52ea:	30 e0       	ldi	r19, 0x00	; 0
    52ec:	40 e2       	ldi	r20, 0x20	; 32
    52ee:	51 e4       	ldi	r21, 0x41	; 65
    52f0:	c5 01       	movw	r24, r10
    52f2:	b4 01       	movw	r22, r8
    52f4:	0e 94 47 2a 	call	0x548e	; 0x548e <__cmpsf2>
    52f8:	88 23       	and	r24, r24
    52fa:	0c f0       	brlt	.+2      	; 0x52fe <CBOT_main+0x520>
    52fc:	b1 ce       	rjmp	.-670    	; 0x5060 <CBOT_main+0x282>
    52fe:	a4 ce       	rjmp	.-696    	; 0x5048 <CBOT_main+0x26a>

00005300 <__subsf3>:
    5300:	50 58       	subi	r21, 0x80	; 128

00005302 <__addsf3>:
    5302:	bb 27       	eor	r27, r27
    5304:	aa 27       	eor	r26, r26
    5306:	0e d0       	rcall	.+28     	; 0x5324 <__addsf3x>
    5308:	27 c2       	rjmp	.+1102   	; 0x5758 <__fp_round>
    530a:	f0 d1       	rcall	.+992    	; 0x56ec <__fp_pscA>
    530c:	30 f0       	brcs	.+12     	; 0x531a <__addsf3+0x18>
    530e:	f5 d1       	rcall	.+1002   	; 0x56fa <__fp_pscB>
    5310:	20 f0       	brcs	.+8      	; 0x531a <__addsf3+0x18>
    5312:	31 f4       	brne	.+12     	; 0x5320 <__addsf3+0x1e>
    5314:	9f 3f       	cpi	r25, 0xFF	; 255
    5316:	11 f4       	brne	.+4      	; 0x531c <__addsf3+0x1a>
    5318:	1e f4       	brtc	.+6      	; 0x5320 <__addsf3+0x1e>
    531a:	c0 c1       	rjmp	.+896    	; 0x569c <__fp_nan>
    531c:	0e f4       	brtc	.+2      	; 0x5320 <__addsf3+0x1e>
    531e:	e0 95       	com	r30
    5320:	e7 fb       	bst	r30, 7
    5322:	b6 c1       	rjmp	.+876    	; 0x5690 <__fp_inf>

00005324 <__addsf3x>:
    5324:	e9 2f       	mov	r30, r25
    5326:	3a d2       	rcall	.+1140   	; 0x579c <__fp_split3>
    5328:	80 f3       	brcs	.-32     	; 0x530a <__addsf3+0x8>
    532a:	ba 17       	cp	r27, r26
    532c:	62 07       	cpc	r22, r18
    532e:	73 07       	cpc	r23, r19
    5330:	84 07       	cpc	r24, r20
    5332:	95 07       	cpc	r25, r21
    5334:	18 f0       	brcs	.+6      	; 0x533c <__addsf3x+0x18>
    5336:	71 f4       	brne	.+28     	; 0x5354 <__addsf3x+0x30>
    5338:	9e f5       	brtc	.+102    	; 0x53a0 <__addsf3x+0x7c>
    533a:	52 c2       	rjmp	.+1188   	; 0x57e0 <__fp_zero>
    533c:	0e f4       	brtc	.+2      	; 0x5340 <__addsf3x+0x1c>
    533e:	e0 95       	com	r30
    5340:	0b 2e       	mov	r0, r27
    5342:	ba 2f       	mov	r27, r26
    5344:	a0 2d       	mov	r26, r0
    5346:	0b 01       	movw	r0, r22
    5348:	b9 01       	movw	r22, r18
    534a:	90 01       	movw	r18, r0
    534c:	0c 01       	movw	r0, r24
    534e:	ca 01       	movw	r24, r20
    5350:	a0 01       	movw	r20, r0
    5352:	11 24       	eor	r1, r1
    5354:	ff 27       	eor	r31, r31
    5356:	59 1b       	sub	r21, r25
    5358:	99 f0       	breq	.+38     	; 0x5380 <__addsf3x+0x5c>
    535a:	59 3f       	cpi	r21, 0xF9	; 249
    535c:	50 f4       	brcc	.+20     	; 0x5372 <__addsf3x+0x4e>
    535e:	50 3e       	cpi	r21, 0xE0	; 224
    5360:	68 f1       	brcs	.+90     	; 0x53bc <__addsf3x+0x98>
    5362:	1a 16       	cp	r1, r26
    5364:	f0 40       	sbci	r31, 0x00	; 0
    5366:	a2 2f       	mov	r26, r18
    5368:	23 2f       	mov	r18, r19
    536a:	34 2f       	mov	r19, r20
    536c:	44 27       	eor	r20, r20
    536e:	58 5f       	subi	r21, 0xF8	; 248
    5370:	f3 cf       	rjmp	.-26     	; 0x5358 <__addsf3x+0x34>
    5372:	46 95       	lsr	r20
    5374:	37 95       	ror	r19
    5376:	27 95       	ror	r18
    5378:	a7 95       	ror	r26
    537a:	f0 40       	sbci	r31, 0x00	; 0
    537c:	53 95       	inc	r21
    537e:	c9 f7       	brne	.-14     	; 0x5372 <__addsf3x+0x4e>
    5380:	7e f4       	brtc	.+30     	; 0x53a0 <__addsf3x+0x7c>
    5382:	1f 16       	cp	r1, r31
    5384:	ba 0b       	sbc	r27, r26
    5386:	62 0b       	sbc	r22, r18
    5388:	73 0b       	sbc	r23, r19
    538a:	84 0b       	sbc	r24, r20
    538c:	ba f0       	brmi	.+46     	; 0x53bc <__addsf3x+0x98>
    538e:	91 50       	subi	r25, 0x01	; 1
    5390:	a1 f0       	breq	.+40     	; 0x53ba <__addsf3x+0x96>
    5392:	ff 0f       	add	r31, r31
    5394:	bb 1f       	adc	r27, r27
    5396:	66 1f       	adc	r22, r22
    5398:	77 1f       	adc	r23, r23
    539a:	88 1f       	adc	r24, r24
    539c:	c2 f7       	brpl	.-16     	; 0x538e <__addsf3x+0x6a>
    539e:	0e c0       	rjmp	.+28     	; 0x53bc <__addsf3x+0x98>
    53a0:	ba 0f       	add	r27, r26
    53a2:	62 1f       	adc	r22, r18
    53a4:	73 1f       	adc	r23, r19
    53a6:	84 1f       	adc	r24, r20
    53a8:	48 f4       	brcc	.+18     	; 0x53bc <__addsf3x+0x98>
    53aa:	87 95       	ror	r24
    53ac:	77 95       	ror	r23
    53ae:	67 95       	ror	r22
    53b0:	b7 95       	ror	r27
    53b2:	f7 95       	ror	r31
    53b4:	9e 3f       	cpi	r25, 0xFE	; 254
    53b6:	08 f0       	brcs	.+2      	; 0x53ba <__addsf3x+0x96>
    53b8:	b3 cf       	rjmp	.-154    	; 0x5320 <__addsf3+0x1e>
    53ba:	93 95       	inc	r25
    53bc:	88 0f       	add	r24, r24
    53be:	08 f0       	brcs	.+2      	; 0x53c2 <__addsf3x+0x9e>
    53c0:	99 27       	eor	r25, r25
    53c2:	ee 0f       	add	r30, r30
    53c4:	97 95       	ror	r25
    53c6:	87 95       	ror	r24
    53c8:	08 95       	ret
    53ca:	90 d1       	rcall	.+800    	; 0x56ec <__fp_pscA>
    53cc:	58 f0       	brcs	.+22     	; 0x53e4 <__addsf3x+0xc0>
    53ce:	80 e8       	ldi	r24, 0x80	; 128
    53d0:	91 e0       	ldi	r25, 0x01	; 1
    53d2:	09 f4       	brne	.+2      	; 0x53d6 <__addsf3x+0xb2>
    53d4:	9e ef       	ldi	r25, 0xFE	; 254
    53d6:	91 d1       	rcall	.+802    	; 0x56fa <__fp_pscB>
    53d8:	28 f0       	brcs	.+10     	; 0x53e4 <__addsf3x+0xc0>
    53da:	40 e8       	ldi	r20, 0x80	; 128
    53dc:	51 e0       	ldi	r21, 0x01	; 1
    53de:	59 f4       	brne	.+22     	; 0x53f6 <atan2+0xe>
    53e0:	5e ef       	ldi	r21, 0xFE	; 254
    53e2:	09 c0       	rjmp	.+18     	; 0x53f6 <atan2+0xe>
    53e4:	5b c1       	rjmp	.+694    	; 0x569c <__fp_nan>
    53e6:	fc c1       	rjmp	.+1016   	; 0x57e0 <__fp_zero>

000053e8 <atan2>:
    53e8:	e9 2f       	mov	r30, r25
    53ea:	e0 78       	andi	r30, 0x80	; 128
    53ec:	d7 d1       	rcall	.+942    	; 0x579c <__fp_split3>
    53ee:	68 f3       	brcs	.-38     	; 0x53ca <__addsf3x+0xa6>
    53f0:	09 2e       	mov	r0, r25
    53f2:	05 2a       	or	r0, r21
    53f4:	c1 f3       	breq	.-16     	; 0x53e6 <__addsf3x+0xc2>
    53f6:	26 17       	cp	r18, r22
    53f8:	37 07       	cpc	r19, r23
    53fa:	48 07       	cpc	r20, r24
    53fc:	59 07       	cpc	r21, r25
    53fe:	38 f0       	brcs	.+14     	; 0x540e <atan2+0x26>
    5400:	0e 2e       	mov	r0, r30
    5402:	07 f8       	bld	r0, 7
    5404:	e0 25       	eor	r30, r0
    5406:	69 f0       	breq	.+26     	; 0x5422 <atan2+0x3a>
    5408:	e0 25       	eor	r30, r0
    540a:	e0 64       	ori	r30, 0x40	; 64
    540c:	0a c0       	rjmp	.+20     	; 0x5422 <atan2+0x3a>
    540e:	ef 63       	ori	r30, 0x3F	; 63
    5410:	07 f8       	bld	r0, 7
    5412:	00 94       	com	r0
    5414:	07 fa       	bst	r0, 7
    5416:	db 01       	movw	r26, r22
    5418:	b9 01       	movw	r22, r18
    541a:	9d 01       	movw	r18, r26
    541c:	dc 01       	movw	r26, r24
    541e:	ca 01       	movw	r24, r20
    5420:	ad 01       	movw	r20, r26
    5422:	ef 93       	push	r30
    5424:	4a d0       	rcall	.+148    	; 0x54ba <__divsf3_pse>
    5426:	98 d1       	rcall	.+816    	; 0x5758 <__fp_round>
    5428:	0a d0       	rcall	.+20     	; 0x543e <atan>
    542a:	5f 91       	pop	r21
    542c:	55 23       	and	r21, r21
    542e:	31 f0       	breq	.+12     	; 0x543c <atan2+0x54>
    5430:	2b ed       	ldi	r18, 0xDB	; 219
    5432:	3f e0       	ldi	r19, 0x0F	; 15
    5434:	49 e4       	ldi	r20, 0x49	; 73
    5436:	50 fd       	sbrc	r21, 0
    5438:	49 ec       	ldi	r20, 0xC9	; 201
    543a:	63 cf       	rjmp	.-314    	; 0x5302 <__addsf3>
    543c:	08 95       	ret

0000543e <atan>:
    543e:	df 93       	push	r29
    5440:	dd 27       	eor	r29, r29
    5442:	b9 2f       	mov	r27, r25
    5444:	bf 77       	andi	r27, 0x7F	; 127
    5446:	40 e8       	ldi	r20, 0x80	; 128
    5448:	5f e3       	ldi	r21, 0x3F	; 63
    544a:	16 16       	cp	r1, r22
    544c:	17 06       	cpc	r1, r23
    544e:	48 07       	cpc	r20, r24
    5450:	5b 07       	cpc	r21, r27
    5452:	10 f4       	brcc	.+4      	; 0x5458 <atan+0x1a>
    5454:	d9 2f       	mov	r29, r25
    5456:	cf d1       	rcall	.+926    	; 0x57f6 <inverse>
    5458:	9f 93       	push	r25
    545a:	8f 93       	push	r24
    545c:	7f 93       	push	r23
    545e:	6f 93       	push	r22
    5460:	3a d2       	rcall	.+1140   	; 0x58d6 <square>
    5462:	ec e7       	ldi	r30, 0x7C	; 124
    5464:	f0 e0       	ldi	r31, 0x00	; 0
    5466:	1d d1       	rcall	.+570    	; 0x56a2 <__fp_powser>
    5468:	77 d1       	rcall	.+750    	; 0x5758 <__fp_round>
    546a:	2f 91       	pop	r18
    546c:	3f 91       	pop	r19
    546e:	4f 91       	pop	r20
    5470:	5f 91       	pop	r21
    5472:	d4 d1       	rcall	.+936    	; 0x581c <__mulsf3x>
    5474:	dd 23       	and	r29, r29
    5476:	49 f0       	breq	.+18     	; 0x548a <atan+0x4c>
    5478:	90 58       	subi	r25, 0x80	; 128
    547a:	a2 ea       	ldi	r26, 0xA2	; 162
    547c:	2a ed       	ldi	r18, 0xDA	; 218
    547e:	3f e0       	ldi	r19, 0x0F	; 15
    5480:	49 ec       	ldi	r20, 0xC9	; 201
    5482:	5f e3       	ldi	r21, 0x3F	; 63
    5484:	d0 78       	andi	r29, 0x80	; 128
    5486:	5d 27       	eor	r21, r29
    5488:	4d df       	rcall	.-358    	; 0x5324 <__addsf3x>
    548a:	df 91       	pop	r29
    548c:	65 c1       	rjmp	.+714    	; 0x5758 <__fp_round>

0000548e <__cmpsf2>:
    548e:	dc d0       	rcall	.+440    	; 0x5648 <__fp_cmp>
    5490:	08 f4       	brcc	.+2      	; 0x5494 <__cmpsf2+0x6>
    5492:	81 e0       	ldi	r24, 0x01	; 1
    5494:	08 95       	ret

00005496 <cos>:
    5496:	39 d1       	rcall	.+626    	; 0x570a <__fp_rempio2>
    5498:	e3 95       	inc	r30
    549a:	6f c1       	rjmp	.+734    	; 0x577a <__fp_sinus>

0000549c <__divsf3>:
    549c:	0c d0       	rcall	.+24     	; 0x54b6 <__divsf3x>
    549e:	5c c1       	rjmp	.+696    	; 0x5758 <__fp_round>
    54a0:	2c d1       	rcall	.+600    	; 0x56fa <__fp_pscB>
    54a2:	40 f0       	brcs	.+16     	; 0x54b4 <__divsf3+0x18>
    54a4:	23 d1       	rcall	.+582    	; 0x56ec <__fp_pscA>
    54a6:	30 f0       	brcs	.+12     	; 0x54b4 <__divsf3+0x18>
    54a8:	21 f4       	brne	.+8      	; 0x54b2 <__divsf3+0x16>
    54aa:	5f 3f       	cpi	r21, 0xFF	; 255
    54ac:	19 f0       	breq	.+6      	; 0x54b4 <__divsf3+0x18>
    54ae:	f0 c0       	rjmp	.+480    	; 0x5690 <__fp_inf>
    54b0:	51 11       	cpse	r21, r1
    54b2:	97 c1       	rjmp	.+814    	; 0x57e2 <__fp_szero>
    54b4:	f3 c0       	rjmp	.+486    	; 0x569c <__fp_nan>

000054b6 <__divsf3x>:
    54b6:	72 d1       	rcall	.+740    	; 0x579c <__fp_split3>
    54b8:	98 f3       	brcs	.-26     	; 0x54a0 <__divsf3+0x4>

000054ba <__divsf3_pse>:
    54ba:	99 23       	and	r25, r25
    54bc:	c9 f3       	breq	.-14     	; 0x54b0 <__divsf3+0x14>
    54be:	55 23       	and	r21, r21
    54c0:	b1 f3       	breq	.-20     	; 0x54ae <__divsf3+0x12>
    54c2:	95 1b       	sub	r25, r21
    54c4:	55 0b       	sbc	r21, r21
    54c6:	bb 27       	eor	r27, r27
    54c8:	aa 27       	eor	r26, r26
    54ca:	62 17       	cp	r22, r18
    54cc:	73 07       	cpc	r23, r19
    54ce:	84 07       	cpc	r24, r20
    54d0:	38 f0       	brcs	.+14     	; 0x54e0 <__divsf3_pse+0x26>
    54d2:	9f 5f       	subi	r25, 0xFF	; 255
    54d4:	5f 4f       	sbci	r21, 0xFF	; 255
    54d6:	22 0f       	add	r18, r18
    54d8:	33 1f       	adc	r19, r19
    54da:	44 1f       	adc	r20, r20
    54dc:	aa 1f       	adc	r26, r26
    54de:	a9 f3       	breq	.-22     	; 0x54ca <__divsf3_pse+0x10>
    54e0:	33 d0       	rcall	.+102    	; 0x5548 <__divsf3_pse+0x8e>
    54e2:	0e 2e       	mov	r0, r30
    54e4:	3a f0       	brmi	.+14     	; 0x54f4 <__divsf3_pse+0x3a>
    54e6:	e0 e8       	ldi	r30, 0x80	; 128
    54e8:	30 d0       	rcall	.+96     	; 0x554a <__divsf3_pse+0x90>
    54ea:	91 50       	subi	r25, 0x01	; 1
    54ec:	50 40       	sbci	r21, 0x00	; 0
    54ee:	e6 95       	lsr	r30
    54f0:	00 1c       	adc	r0, r0
    54f2:	ca f7       	brpl	.-14     	; 0x54e6 <__divsf3_pse+0x2c>
    54f4:	29 d0       	rcall	.+82     	; 0x5548 <__divsf3_pse+0x8e>
    54f6:	fe 2f       	mov	r31, r30
    54f8:	27 d0       	rcall	.+78     	; 0x5548 <__divsf3_pse+0x8e>
    54fa:	66 0f       	add	r22, r22
    54fc:	77 1f       	adc	r23, r23
    54fe:	88 1f       	adc	r24, r24
    5500:	bb 1f       	adc	r27, r27
    5502:	26 17       	cp	r18, r22
    5504:	37 07       	cpc	r19, r23
    5506:	48 07       	cpc	r20, r24
    5508:	ab 07       	cpc	r26, r27
    550a:	b0 e8       	ldi	r27, 0x80	; 128
    550c:	09 f0       	breq	.+2      	; 0x5510 <__divsf3_pse+0x56>
    550e:	bb 0b       	sbc	r27, r27
    5510:	80 2d       	mov	r24, r0
    5512:	bf 01       	movw	r22, r30
    5514:	ff 27       	eor	r31, r31
    5516:	93 58       	subi	r25, 0x83	; 131
    5518:	5f 4f       	sbci	r21, 0xFF	; 255
    551a:	2a f0       	brmi	.+10     	; 0x5526 <__divsf3_pse+0x6c>
    551c:	9e 3f       	cpi	r25, 0xFE	; 254
    551e:	51 05       	cpc	r21, r1
    5520:	68 f0       	brcs	.+26     	; 0x553c <__divsf3_pse+0x82>
    5522:	b6 c0       	rjmp	.+364    	; 0x5690 <__fp_inf>
    5524:	5e c1       	rjmp	.+700    	; 0x57e2 <__fp_szero>
    5526:	5f 3f       	cpi	r21, 0xFF	; 255
    5528:	ec f3       	brlt	.-6      	; 0x5524 <__divsf3_pse+0x6a>
    552a:	98 3e       	cpi	r25, 0xE8	; 232
    552c:	dc f3       	brlt	.-10     	; 0x5524 <__divsf3_pse+0x6a>
    552e:	86 95       	lsr	r24
    5530:	77 95       	ror	r23
    5532:	67 95       	ror	r22
    5534:	b7 95       	ror	r27
    5536:	f7 95       	ror	r31
    5538:	9f 5f       	subi	r25, 0xFF	; 255
    553a:	c9 f7       	brne	.-14     	; 0x552e <__divsf3_pse+0x74>
    553c:	88 0f       	add	r24, r24
    553e:	91 1d       	adc	r25, r1
    5540:	96 95       	lsr	r25
    5542:	87 95       	ror	r24
    5544:	97 f9       	bld	r25, 7
    5546:	08 95       	ret
    5548:	e1 e0       	ldi	r30, 0x01	; 1
    554a:	66 0f       	add	r22, r22
    554c:	77 1f       	adc	r23, r23
    554e:	88 1f       	adc	r24, r24
    5550:	bb 1f       	adc	r27, r27
    5552:	62 17       	cp	r22, r18
    5554:	73 07       	cpc	r23, r19
    5556:	84 07       	cpc	r24, r20
    5558:	ba 07       	cpc	r27, r26
    555a:	20 f0       	brcs	.+8      	; 0x5564 <__divsf3_pse+0xaa>
    555c:	62 1b       	sub	r22, r18
    555e:	73 0b       	sbc	r23, r19
    5560:	84 0b       	sbc	r24, r20
    5562:	ba 0b       	sbc	r27, r26
    5564:	ee 1f       	adc	r30, r30
    5566:	88 f7       	brcc	.-30     	; 0x554a <__divsf3_pse+0x90>
    5568:	e0 95       	com	r30
    556a:	08 95       	ret

0000556c <__fixsfsi>:
    556c:	04 d0       	rcall	.+8      	; 0x5576 <__fixunssfsi>
    556e:	68 94       	set
    5570:	b1 11       	cpse	r27, r1
    5572:	37 c1       	rjmp	.+622    	; 0x57e2 <__fp_szero>
    5574:	08 95       	ret

00005576 <__fixunssfsi>:
    5576:	1a d1       	rcall	.+564    	; 0x57ac <__fp_splitA>
    5578:	88 f0       	brcs	.+34     	; 0x559c <__fixunssfsi+0x26>
    557a:	9f 57       	subi	r25, 0x7F	; 127
    557c:	90 f0       	brcs	.+36     	; 0x55a2 <__fixunssfsi+0x2c>
    557e:	b9 2f       	mov	r27, r25
    5580:	99 27       	eor	r25, r25
    5582:	b7 51       	subi	r27, 0x17	; 23
    5584:	a0 f0       	brcs	.+40     	; 0x55ae <__fixunssfsi+0x38>
    5586:	d1 f0       	breq	.+52     	; 0x55bc <__fixunssfsi+0x46>
    5588:	66 0f       	add	r22, r22
    558a:	77 1f       	adc	r23, r23
    558c:	88 1f       	adc	r24, r24
    558e:	99 1f       	adc	r25, r25
    5590:	1a f0       	brmi	.+6      	; 0x5598 <__fixunssfsi+0x22>
    5592:	ba 95       	dec	r27
    5594:	c9 f7       	brne	.-14     	; 0x5588 <__fixunssfsi+0x12>
    5596:	12 c0       	rjmp	.+36     	; 0x55bc <__fixunssfsi+0x46>
    5598:	b1 30       	cpi	r27, 0x01	; 1
    559a:	81 f0       	breq	.+32     	; 0x55bc <__fixunssfsi+0x46>
    559c:	21 d1       	rcall	.+578    	; 0x57e0 <__fp_zero>
    559e:	b1 e0       	ldi	r27, 0x01	; 1
    55a0:	08 95       	ret
    55a2:	1e c1       	rjmp	.+572    	; 0x57e0 <__fp_zero>
    55a4:	67 2f       	mov	r22, r23
    55a6:	78 2f       	mov	r23, r24
    55a8:	88 27       	eor	r24, r24
    55aa:	b8 5f       	subi	r27, 0xF8	; 248
    55ac:	39 f0       	breq	.+14     	; 0x55bc <__fixunssfsi+0x46>
    55ae:	b9 3f       	cpi	r27, 0xF9	; 249
    55b0:	cc f3       	brlt	.-14     	; 0x55a4 <__fixunssfsi+0x2e>
    55b2:	86 95       	lsr	r24
    55b4:	77 95       	ror	r23
    55b6:	67 95       	ror	r22
    55b8:	b3 95       	inc	r27
    55ba:	d9 f7       	brne	.-10     	; 0x55b2 <__fixunssfsi+0x3c>
    55bc:	3e f4       	brtc	.+14     	; 0x55cc <__fixunssfsi+0x56>
    55be:	90 95       	com	r25
    55c0:	80 95       	com	r24
    55c2:	70 95       	com	r23
    55c4:	61 95       	neg	r22
    55c6:	7f 4f       	sbci	r23, 0xFF	; 255
    55c8:	8f 4f       	sbci	r24, 0xFF	; 255
    55ca:	9f 4f       	sbci	r25, 0xFF	; 255
    55cc:	08 95       	ret

000055ce <__floatunsisf>:
    55ce:	e8 94       	clt
    55d0:	09 c0       	rjmp	.+18     	; 0x55e4 <__floatsisf+0x12>

000055d2 <__floatsisf>:
    55d2:	97 fb       	bst	r25, 7
    55d4:	3e f4       	brtc	.+14     	; 0x55e4 <__floatsisf+0x12>
    55d6:	90 95       	com	r25
    55d8:	80 95       	com	r24
    55da:	70 95       	com	r23
    55dc:	61 95       	neg	r22
    55de:	7f 4f       	sbci	r23, 0xFF	; 255
    55e0:	8f 4f       	sbci	r24, 0xFF	; 255
    55e2:	9f 4f       	sbci	r25, 0xFF	; 255
    55e4:	99 23       	and	r25, r25
    55e6:	a9 f0       	breq	.+42     	; 0x5612 <__floatsisf+0x40>
    55e8:	f9 2f       	mov	r31, r25
    55ea:	96 e9       	ldi	r25, 0x96	; 150
    55ec:	bb 27       	eor	r27, r27
    55ee:	93 95       	inc	r25
    55f0:	f6 95       	lsr	r31
    55f2:	87 95       	ror	r24
    55f4:	77 95       	ror	r23
    55f6:	67 95       	ror	r22
    55f8:	b7 95       	ror	r27
    55fa:	f1 11       	cpse	r31, r1
    55fc:	f8 cf       	rjmp	.-16     	; 0x55ee <__floatsisf+0x1c>
    55fe:	fa f4       	brpl	.+62     	; 0x563e <__floatsisf+0x6c>
    5600:	bb 0f       	add	r27, r27
    5602:	11 f4       	brne	.+4      	; 0x5608 <__floatsisf+0x36>
    5604:	60 ff       	sbrs	r22, 0
    5606:	1b c0       	rjmp	.+54     	; 0x563e <__floatsisf+0x6c>
    5608:	6f 5f       	subi	r22, 0xFF	; 255
    560a:	7f 4f       	sbci	r23, 0xFF	; 255
    560c:	8f 4f       	sbci	r24, 0xFF	; 255
    560e:	9f 4f       	sbci	r25, 0xFF	; 255
    5610:	16 c0       	rjmp	.+44     	; 0x563e <__floatsisf+0x6c>
    5612:	88 23       	and	r24, r24
    5614:	11 f0       	breq	.+4      	; 0x561a <__floatsisf+0x48>
    5616:	96 e9       	ldi	r25, 0x96	; 150
    5618:	11 c0       	rjmp	.+34     	; 0x563c <__floatsisf+0x6a>
    561a:	77 23       	and	r23, r23
    561c:	21 f0       	breq	.+8      	; 0x5626 <__floatsisf+0x54>
    561e:	9e e8       	ldi	r25, 0x8E	; 142
    5620:	87 2f       	mov	r24, r23
    5622:	76 2f       	mov	r23, r22
    5624:	05 c0       	rjmp	.+10     	; 0x5630 <__floatsisf+0x5e>
    5626:	66 23       	and	r22, r22
    5628:	71 f0       	breq	.+28     	; 0x5646 <__floatsisf+0x74>
    562a:	96 e8       	ldi	r25, 0x86	; 134
    562c:	86 2f       	mov	r24, r22
    562e:	70 e0       	ldi	r23, 0x00	; 0
    5630:	60 e0       	ldi	r22, 0x00	; 0
    5632:	2a f0       	brmi	.+10     	; 0x563e <__floatsisf+0x6c>
    5634:	9a 95       	dec	r25
    5636:	66 0f       	add	r22, r22
    5638:	77 1f       	adc	r23, r23
    563a:	88 1f       	adc	r24, r24
    563c:	da f7       	brpl	.-10     	; 0x5634 <__floatsisf+0x62>
    563e:	88 0f       	add	r24, r24
    5640:	96 95       	lsr	r25
    5642:	87 95       	ror	r24
    5644:	97 f9       	bld	r25, 7
    5646:	08 95       	ret

00005648 <__fp_cmp>:
    5648:	99 0f       	add	r25, r25
    564a:	00 08       	sbc	r0, r0
    564c:	55 0f       	add	r21, r21
    564e:	aa 0b       	sbc	r26, r26
    5650:	e0 e8       	ldi	r30, 0x80	; 128
    5652:	fe ef       	ldi	r31, 0xFE	; 254
    5654:	16 16       	cp	r1, r22
    5656:	17 06       	cpc	r1, r23
    5658:	e8 07       	cpc	r30, r24
    565a:	f9 07       	cpc	r31, r25
    565c:	c0 f0       	brcs	.+48     	; 0x568e <__fp_cmp+0x46>
    565e:	12 16       	cp	r1, r18
    5660:	13 06       	cpc	r1, r19
    5662:	e4 07       	cpc	r30, r20
    5664:	f5 07       	cpc	r31, r21
    5666:	98 f0       	brcs	.+38     	; 0x568e <__fp_cmp+0x46>
    5668:	62 1b       	sub	r22, r18
    566a:	73 0b       	sbc	r23, r19
    566c:	84 0b       	sbc	r24, r20
    566e:	95 0b       	sbc	r25, r21
    5670:	39 f4       	brne	.+14     	; 0x5680 <__fp_cmp+0x38>
    5672:	0a 26       	eor	r0, r26
    5674:	61 f0       	breq	.+24     	; 0x568e <__fp_cmp+0x46>
    5676:	23 2b       	or	r18, r19
    5678:	24 2b       	or	r18, r20
    567a:	25 2b       	or	r18, r21
    567c:	21 f4       	brne	.+8      	; 0x5686 <__fp_cmp+0x3e>
    567e:	08 95       	ret
    5680:	0a 26       	eor	r0, r26
    5682:	09 f4       	brne	.+2      	; 0x5686 <__fp_cmp+0x3e>
    5684:	a1 40       	sbci	r26, 0x01	; 1
    5686:	a6 95       	lsr	r26
    5688:	8f ef       	ldi	r24, 0xFF	; 255
    568a:	81 1d       	adc	r24, r1
    568c:	81 1d       	adc	r24, r1
    568e:	08 95       	ret

00005690 <__fp_inf>:
    5690:	97 f9       	bld	r25, 7
    5692:	9f 67       	ori	r25, 0x7F	; 127
    5694:	80 e8       	ldi	r24, 0x80	; 128
    5696:	70 e0       	ldi	r23, 0x00	; 0
    5698:	60 e0       	ldi	r22, 0x00	; 0
    569a:	08 95       	ret

0000569c <__fp_nan>:
    569c:	9f ef       	ldi	r25, 0xFF	; 255
    569e:	80 ec       	ldi	r24, 0xC0	; 192
    56a0:	08 95       	ret

000056a2 <__fp_powser>:
    56a2:	df 93       	push	r29
    56a4:	cf 93       	push	r28
    56a6:	1f 93       	push	r17
    56a8:	0f 93       	push	r16
    56aa:	ff 92       	push	r15
    56ac:	ef 92       	push	r14
    56ae:	df 92       	push	r13
    56b0:	7b 01       	movw	r14, r22
    56b2:	8c 01       	movw	r16, r24
    56b4:	68 94       	set
    56b6:	05 c0       	rjmp	.+10     	; 0x56c2 <__fp_powser+0x20>
    56b8:	da 2e       	mov	r13, r26
    56ba:	ef 01       	movw	r28, r30
    56bc:	af d0       	rcall	.+350    	; 0x581c <__mulsf3x>
    56be:	fe 01       	movw	r30, r28
    56c0:	e8 94       	clt
    56c2:	a5 91       	lpm	r26, Z+
    56c4:	25 91       	lpm	r18, Z+
    56c6:	35 91       	lpm	r19, Z+
    56c8:	45 91       	lpm	r20, Z+
    56ca:	55 91       	lpm	r21, Z+
    56cc:	ae f3       	brts	.-22     	; 0x56b8 <__fp_powser+0x16>
    56ce:	ef 01       	movw	r28, r30
    56d0:	29 de       	rcall	.-942    	; 0x5324 <__addsf3x>
    56d2:	fe 01       	movw	r30, r28
    56d4:	97 01       	movw	r18, r14
    56d6:	a8 01       	movw	r20, r16
    56d8:	da 94       	dec	r13
    56da:	79 f7       	brne	.-34     	; 0x56ba <__fp_powser+0x18>
    56dc:	df 90       	pop	r13
    56de:	ef 90       	pop	r14
    56e0:	ff 90       	pop	r15
    56e2:	0f 91       	pop	r16
    56e4:	1f 91       	pop	r17
    56e6:	cf 91       	pop	r28
    56e8:	df 91       	pop	r29
    56ea:	08 95       	ret

000056ec <__fp_pscA>:
    56ec:	00 24       	eor	r0, r0
    56ee:	0a 94       	dec	r0
    56f0:	16 16       	cp	r1, r22
    56f2:	17 06       	cpc	r1, r23
    56f4:	18 06       	cpc	r1, r24
    56f6:	09 06       	cpc	r0, r25
    56f8:	08 95       	ret

000056fa <__fp_pscB>:
    56fa:	00 24       	eor	r0, r0
    56fc:	0a 94       	dec	r0
    56fe:	12 16       	cp	r1, r18
    5700:	13 06       	cpc	r1, r19
    5702:	14 06       	cpc	r1, r20
    5704:	05 06       	cpc	r0, r21
    5706:	08 95       	ret
    5708:	c9 cf       	rjmp	.-110    	; 0x569c <__fp_nan>

0000570a <__fp_rempio2>:
    570a:	50 d0       	rcall	.+160    	; 0x57ac <__fp_splitA>
    570c:	e8 f3       	brcs	.-6      	; 0x5708 <__fp_pscB+0xe>
    570e:	e8 94       	clt
    5710:	e0 e0       	ldi	r30, 0x00	; 0
    5712:	bb 27       	eor	r27, r27
    5714:	9f 57       	subi	r25, 0x7F	; 127
    5716:	f0 f0       	brcs	.+60     	; 0x5754 <__fp_rempio2+0x4a>
    5718:	2a ed       	ldi	r18, 0xDA	; 218
    571a:	3f e0       	ldi	r19, 0x0F	; 15
    571c:	49 ec       	ldi	r20, 0xC9	; 201
    571e:	06 c0       	rjmp	.+12     	; 0x572c <__fp_rempio2+0x22>
    5720:	ee 0f       	add	r30, r30
    5722:	bb 0f       	add	r27, r27
    5724:	66 1f       	adc	r22, r22
    5726:	77 1f       	adc	r23, r23
    5728:	88 1f       	adc	r24, r24
    572a:	28 f0       	brcs	.+10     	; 0x5736 <__fp_rempio2+0x2c>
    572c:	b2 3a       	cpi	r27, 0xA2	; 162
    572e:	62 07       	cpc	r22, r18
    5730:	73 07       	cpc	r23, r19
    5732:	84 07       	cpc	r24, r20
    5734:	28 f0       	brcs	.+10     	; 0x5740 <__fp_rempio2+0x36>
    5736:	b2 5a       	subi	r27, 0xA2	; 162
    5738:	62 0b       	sbc	r22, r18
    573a:	73 0b       	sbc	r23, r19
    573c:	84 0b       	sbc	r24, r20
    573e:	e3 95       	inc	r30
    5740:	9a 95       	dec	r25
    5742:	72 f7       	brpl	.-36     	; 0x5720 <__fp_rempio2+0x16>
    5744:	80 38       	cpi	r24, 0x80	; 128
    5746:	30 f4       	brcc	.+12     	; 0x5754 <__fp_rempio2+0x4a>
    5748:	9a 95       	dec	r25
    574a:	bb 0f       	add	r27, r27
    574c:	66 1f       	adc	r22, r22
    574e:	77 1f       	adc	r23, r23
    5750:	88 1f       	adc	r24, r24
    5752:	d2 f7       	brpl	.-12     	; 0x5748 <__fp_rempio2+0x3e>
    5754:	90 48       	sbci	r25, 0x80	; 128
    5756:	c4 c0       	rjmp	.+392    	; 0x58e0 <__fp_mpack_finite>

00005758 <__fp_round>:
    5758:	09 2e       	mov	r0, r25
    575a:	03 94       	inc	r0
    575c:	00 0c       	add	r0, r0
    575e:	11 f4       	brne	.+4      	; 0x5764 <__fp_round+0xc>
    5760:	88 23       	and	r24, r24
    5762:	52 f0       	brmi	.+20     	; 0x5778 <__fp_round+0x20>
    5764:	bb 0f       	add	r27, r27
    5766:	40 f4       	brcc	.+16     	; 0x5778 <__fp_round+0x20>
    5768:	bf 2b       	or	r27, r31
    576a:	11 f4       	brne	.+4      	; 0x5770 <__fp_round+0x18>
    576c:	60 ff       	sbrs	r22, 0
    576e:	04 c0       	rjmp	.+8      	; 0x5778 <__fp_round+0x20>
    5770:	6f 5f       	subi	r22, 0xFF	; 255
    5772:	7f 4f       	sbci	r23, 0xFF	; 255
    5774:	8f 4f       	sbci	r24, 0xFF	; 255
    5776:	9f 4f       	sbci	r25, 0xFF	; 255
    5778:	08 95       	ret

0000577a <__fp_sinus>:
    577a:	ef 93       	push	r30
    577c:	e0 ff       	sbrs	r30, 0
    577e:	06 c0       	rjmp	.+12     	; 0x578c <__fp_sinus+0x12>
    5780:	a2 ea       	ldi	r26, 0xA2	; 162
    5782:	2a ed       	ldi	r18, 0xDA	; 218
    5784:	3f e0       	ldi	r19, 0x0F	; 15
    5786:	49 ec       	ldi	r20, 0xC9	; 201
    5788:	5f eb       	ldi	r21, 0xBF	; 191
    578a:	cc dd       	rcall	.-1128   	; 0x5324 <__addsf3x>
    578c:	e5 df       	rcall	.-54     	; 0x5758 <__fp_round>
    578e:	0f 90       	pop	r0
    5790:	03 94       	inc	r0
    5792:	01 fc       	sbrc	r0, 1
    5794:	90 58       	subi	r25, 0x80	; 128
    5796:	e9 ea       	ldi	r30, 0xA9	; 169
    5798:	f0 e0       	ldi	r31, 0x00	; 0
    579a:	ae c0       	rjmp	.+348    	; 0x58f8 <__fp_powsodd>

0000579c <__fp_split3>:
    579c:	57 fd       	sbrc	r21, 7
    579e:	90 58       	subi	r25, 0x80	; 128
    57a0:	44 0f       	add	r20, r20
    57a2:	55 1f       	adc	r21, r21
    57a4:	59 f0       	breq	.+22     	; 0x57bc <__fp_splitA+0x10>
    57a6:	5f 3f       	cpi	r21, 0xFF	; 255
    57a8:	71 f0       	breq	.+28     	; 0x57c6 <__fp_splitA+0x1a>
    57aa:	47 95       	ror	r20

000057ac <__fp_splitA>:
    57ac:	88 0f       	add	r24, r24
    57ae:	97 fb       	bst	r25, 7
    57b0:	99 1f       	adc	r25, r25
    57b2:	61 f0       	breq	.+24     	; 0x57cc <__fp_splitA+0x20>
    57b4:	9f 3f       	cpi	r25, 0xFF	; 255
    57b6:	79 f0       	breq	.+30     	; 0x57d6 <__fp_splitA+0x2a>
    57b8:	87 95       	ror	r24
    57ba:	08 95       	ret
    57bc:	12 16       	cp	r1, r18
    57be:	13 06       	cpc	r1, r19
    57c0:	14 06       	cpc	r1, r20
    57c2:	55 1f       	adc	r21, r21
    57c4:	f2 cf       	rjmp	.-28     	; 0x57aa <__fp_split3+0xe>
    57c6:	46 95       	lsr	r20
    57c8:	f1 df       	rcall	.-30     	; 0x57ac <__fp_splitA>
    57ca:	08 c0       	rjmp	.+16     	; 0x57dc <__fp_splitA+0x30>
    57cc:	16 16       	cp	r1, r22
    57ce:	17 06       	cpc	r1, r23
    57d0:	18 06       	cpc	r1, r24
    57d2:	99 1f       	adc	r25, r25
    57d4:	f1 cf       	rjmp	.-30     	; 0x57b8 <__fp_splitA+0xc>
    57d6:	86 95       	lsr	r24
    57d8:	71 05       	cpc	r23, r1
    57da:	61 05       	cpc	r22, r1
    57dc:	08 94       	sec
    57de:	08 95       	ret

000057e0 <__fp_zero>:
    57e0:	e8 94       	clt

000057e2 <__fp_szero>:
    57e2:	bb 27       	eor	r27, r27
    57e4:	66 27       	eor	r22, r22
    57e6:	77 27       	eor	r23, r23
    57e8:	cb 01       	movw	r24, r22
    57ea:	97 f9       	bld	r25, 7
    57ec:	08 95       	ret

000057ee <__gesf2>:
    57ee:	2c df       	rcall	.-424    	; 0x5648 <__fp_cmp>
    57f0:	08 f4       	brcc	.+2      	; 0x57f4 <__gesf2+0x6>
    57f2:	8f ef       	ldi	r24, 0xFF	; 255
    57f4:	08 95       	ret

000057f6 <inverse>:
    57f6:	9b 01       	movw	r18, r22
    57f8:	ac 01       	movw	r20, r24
    57fa:	60 e0       	ldi	r22, 0x00	; 0
    57fc:	70 e0       	ldi	r23, 0x00	; 0
    57fe:	80 e8       	ldi	r24, 0x80	; 128
    5800:	9f e3       	ldi	r25, 0x3F	; 63
    5802:	4c ce       	rjmp	.-872    	; 0x549c <__divsf3>

00005804 <__mulsf3>:
    5804:	0b d0       	rcall	.+22     	; 0x581c <__mulsf3x>
    5806:	a8 cf       	rjmp	.-176    	; 0x5758 <__fp_round>
    5808:	71 df       	rcall	.-286    	; 0x56ec <__fp_pscA>
    580a:	28 f0       	brcs	.+10     	; 0x5816 <__mulsf3+0x12>
    580c:	76 df       	rcall	.-276    	; 0x56fa <__fp_pscB>
    580e:	18 f0       	brcs	.+6      	; 0x5816 <__mulsf3+0x12>
    5810:	95 23       	and	r25, r21
    5812:	09 f0       	breq	.+2      	; 0x5816 <__mulsf3+0x12>
    5814:	3d cf       	rjmp	.-390    	; 0x5690 <__fp_inf>
    5816:	42 cf       	rjmp	.-380    	; 0x569c <__fp_nan>
    5818:	11 24       	eor	r1, r1
    581a:	e3 cf       	rjmp	.-58     	; 0x57e2 <__fp_szero>

0000581c <__mulsf3x>:
    581c:	bf df       	rcall	.-130    	; 0x579c <__fp_split3>
    581e:	a0 f3       	brcs	.-24     	; 0x5808 <__mulsf3+0x4>

00005820 <__mulsf3_pse>:
    5820:	95 9f       	mul	r25, r21
    5822:	d1 f3       	breq	.-12     	; 0x5818 <__mulsf3+0x14>
    5824:	95 0f       	add	r25, r21
    5826:	50 e0       	ldi	r21, 0x00	; 0
    5828:	55 1f       	adc	r21, r21
    582a:	62 9f       	mul	r22, r18
    582c:	f0 01       	movw	r30, r0
    582e:	72 9f       	mul	r23, r18
    5830:	bb 27       	eor	r27, r27
    5832:	f0 0d       	add	r31, r0
    5834:	b1 1d       	adc	r27, r1
    5836:	63 9f       	mul	r22, r19
    5838:	aa 27       	eor	r26, r26
    583a:	f0 0d       	add	r31, r0
    583c:	b1 1d       	adc	r27, r1
    583e:	aa 1f       	adc	r26, r26
    5840:	64 9f       	mul	r22, r20
    5842:	66 27       	eor	r22, r22
    5844:	b0 0d       	add	r27, r0
    5846:	a1 1d       	adc	r26, r1
    5848:	66 1f       	adc	r22, r22
    584a:	82 9f       	mul	r24, r18
    584c:	22 27       	eor	r18, r18
    584e:	b0 0d       	add	r27, r0
    5850:	a1 1d       	adc	r26, r1
    5852:	62 1f       	adc	r22, r18
    5854:	73 9f       	mul	r23, r19
    5856:	b0 0d       	add	r27, r0
    5858:	a1 1d       	adc	r26, r1
    585a:	62 1f       	adc	r22, r18
    585c:	83 9f       	mul	r24, r19
    585e:	a0 0d       	add	r26, r0
    5860:	61 1d       	adc	r22, r1
    5862:	22 1f       	adc	r18, r18
    5864:	74 9f       	mul	r23, r20
    5866:	33 27       	eor	r19, r19
    5868:	a0 0d       	add	r26, r0
    586a:	61 1d       	adc	r22, r1
    586c:	23 1f       	adc	r18, r19
    586e:	84 9f       	mul	r24, r20
    5870:	60 0d       	add	r22, r0
    5872:	21 1d       	adc	r18, r1
    5874:	82 2f       	mov	r24, r18
    5876:	76 2f       	mov	r23, r22
    5878:	6a 2f       	mov	r22, r26
    587a:	11 24       	eor	r1, r1
    587c:	9f 57       	subi	r25, 0x7F	; 127
    587e:	50 40       	sbci	r21, 0x00	; 0
    5880:	8a f0       	brmi	.+34     	; 0x58a4 <__mulsf3_pse+0x84>
    5882:	e1 f0       	breq	.+56     	; 0x58bc <__mulsf3_pse+0x9c>
    5884:	88 23       	and	r24, r24
    5886:	4a f0       	brmi	.+18     	; 0x589a <__mulsf3_pse+0x7a>
    5888:	ee 0f       	add	r30, r30
    588a:	ff 1f       	adc	r31, r31
    588c:	bb 1f       	adc	r27, r27
    588e:	66 1f       	adc	r22, r22
    5890:	77 1f       	adc	r23, r23
    5892:	88 1f       	adc	r24, r24
    5894:	91 50       	subi	r25, 0x01	; 1
    5896:	50 40       	sbci	r21, 0x00	; 0
    5898:	a9 f7       	brne	.-22     	; 0x5884 <__mulsf3_pse+0x64>
    589a:	9e 3f       	cpi	r25, 0xFE	; 254
    589c:	51 05       	cpc	r21, r1
    589e:	70 f0       	brcs	.+28     	; 0x58bc <__mulsf3_pse+0x9c>
    58a0:	f7 ce       	rjmp	.-530    	; 0x5690 <__fp_inf>
    58a2:	9f cf       	rjmp	.-194    	; 0x57e2 <__fp_szero>
    58a4:	5f 3f       	cpi	r21, 0xFF	; 255
    58a6:	ec f3       	brlt	.-6      	; 0x58a2 <__mulsf3_pse+0x82>
    58a8:	98 3e       	cpi	r25, 0xE8	; 232
    58aa:	dc f3       	brlt	.-10     	; 0x58a2 <__mulsf3_pse+0x82>
    58ac:	86 95       	lsr	r24
    58ae:	77 95       	ror	r23
    58b0:	67 95       	ror	r22
    58b2:	b7 95       	ror	r27
    58b4:	f7 95       	ror	r31
    58b6:	e7 95       	ror	r30
    58b8:	9f 5f       	subi	r25, 0xFF	; 255
    58ba:	c1 f7       	brne	.-16     	; 0x58ac <__mulsf3_pse+0x8c>
    58bc:	fe 2b       	or	r31, r30
    58be:	88 0f       	add	r24, r24
    58c0:	91 1d       	adc	r25, r1
    58c2:	96 95       	lsr	r25
    58c4:	87 95       	ror	r24
    58c6:	97 f9       	bld	r25, 7
    58c8:	08 95       	ret

000058ca <sin>:
    58ca:	9f 93       	push	r25
    58cc:	1e df       	rcall	.-452    	; 0x570a <__fp_rempio2>
    58ce:	0f 90       	pop	r0
    58d0:	07 fc       	sbrc	r0, 7
    58d2:	ee 5f       	subi	r30, 0xFE	; 254
    58d4:	52 cf       	rjmp	.-348    	; 0x577a <__fp_sinus>

000058d6 <square>:
    58d6:	9b 01       	movw	r18, r22
    58d8:	ac 01       	movw	r20, r24
    58da:	94 cf       	rjmp	.-216    	; 0x5804 <__mulsf3>

000058dc <__fp_mpack>:
    58dc:	9f 3f       	cpi	r25, 0xFF	; 255
    58de:	31 f0       	breq	.+12     	; 0x58ec <__fp_mpack_finite+0xc>

000058e0 <__fp_mpack_finite>:
    58e0:	91 50       	subi	r25, 0x01	; 1
    58e2:	20 f4       	brcc	.+8      	; 0x58ec <__fp_mpack_finite+0xc>
    58e4:	87 95       	ror	r24
    58e6:	77 95       	ror	r23
    58e8:	67 95       	ror	r22
    58ea:	b7 95       	ror	r27
    58ec:	88 0f       	add	r24, r24
    58ee:	91 1d       	adc	r25, r1
    58f0:	96 95       	lsr	r25
    58f2:	87 95       	ror	r24
    58f4:	97 f9       	bld	r25, 7
    58f6:	08 95       	ret

000058f8 <__fp_powsodd>:
    58f8:	9f 93       	push	r25
    58fa:	8f 93       	push	r24
    58fc:	7f 93       	push	r23
    58fe:	6f 93       	push	r22
    5900:	ff 93       	push	r31
    5902:	ef 93       	push	r30
    5904:	9b 01       	movw	r18, r22
    5906:	ac 01       	movw	r20, r24
    5908:	7d df       	rcall	.-262    	; 0x5804 <__mulsf3>
    590a:	ef 91       	pop	r30
    590c:	ff 91       	pop	r31
    590e:	c9 de       	rcall	.-622    	; 0x56a2 <__fp_powser>
    5910:	2f 91       	pop	r18
    5912:	3f 91       	pop	r19
    5914:	4f 91       	pop	r20
    5916:	5f 91       	pop	r21
    5918:	75 cf       	rjmp	.-278    	; 0x5804 <__mulsf3>

0000591a <vfprintf>:
    591a:	a3 e1       	ldi	r26, 0x13	; 19
    591c:	b0 e0       	ldi	r27, 0x00	; 0
    591e:	e3 e9       	ldi	r30, 0x93	; 147
    5920:	fc e2       	ldi	r31, 0x2C	; 44
    5922:	0c 94 be 31 	jmp	0x637c	; 0x637c <__prologue_saves__>
    5926:	7c 01       	movw	r14, r24
    5928:	1b 01       	movw	r2, r22
    592a:	6a 01       	movw	r12, r20
    592c:	fc 01       	movw	r30, r24
    592e:	17 82       	std	Z+7, r1	; 0x07
    5930:	16 82       	std	Z+6, r1	; 0x06
    5932:	83 81       	ldd	r24, Z+3	; 0x03
    5934:	81 ff       	sbrs	r24, 1
    5936:	66 c3       	rjmp	.+1740   	; 0x6004 <vfprintf+0x6ea>
    5938:	be 01       	movw	r22, r28
    593a:	6f 5f       	subi	r22, 0xFF	; 255
    593c:	7f 4f       	sbci	r23, 0xFF	; 255
    593e:	4b 01       	movw	r8, r22
    5940:	f7 01       	movw	r30, r14
    5942:	93 81       	ldd	r25, Z+3	; 0x03
    5944:	f1 01       	movw	r30, r2
    5946:	93 fd       	sbrc	r25, 3
    5948:	85 91       	lpm	r24, Z+
    594a:	93 ff       	sbrs	r25, 3
    594c:	81 91       	ld	r24, Z+
    594e:	1f 01       	movw	r2, r30
    5950:	88 23       	and	r24, r24
    5952:	09 f4       	brne	.+2      	; 0x5956 <vfprintf+0x3c>
    5954:	53 c3       	rjmp	.+1702   	; 0x5ffc <vfprintf+0x6e2>
    5956:	85 32       	cpi	r24, 0x25	; 37
    5958:	39 f4       	brne	.+14     	; 0x5968 <vfprintf+0x4e>
    595a:	93 fd       	sbrc	r25, 3
    595c:	85 91       	lpm	r24, Z+
    595e:	93 ff       	sbrs	r25, 3
    5960:	81 91       	ld	r24, Z+
    5962:	1f 01       	movw	r2, r30
    5964:	85 32       	cpi	r24, 0x25	; 37
    5966:	39 f4       	brne	.+14     	; 0x5976 <vfprintf+0x5c>
    5968:	b7 01       	movw	r22, r14
    596a:	90 e0       	ldi	r25, 0x00	; 0
    596c:	0e 94 8b 34 	call	0x6916	; 0x6916 <fputc>
    5970:	56 01       	movw	r10, r12
    5972:	65 01       	movw	r12, r10
    5974:	e5 cf       	rjmp	.-54     	; 0x5940 <vfprintf+0x26>
    5976:	10 e0       	ldi	r17, 0x00	; 0
    5978:	51 2c       	mov	r5, r1
    597a:	20 e0       	ldi	r18, 0x00	; 0
    597c:	20 32       	cpi	r18, 0x20	; 32
    597e:	a0 f4       	brcc	.+40     	; 0x59a8 <vfprintf+0x8e>
    5980:	8b 32       	cpi	r24, 0x2B	; 43
    5982:	69 f0       	breq	.+26     	; 0x599e <vfprintf+0x84>
    5984:	30 f4       	brcc	.+12     	; 0x5992 <vfprintf+0x78>
    5986:	80 32       	cpi	r24, 0x20	; 32
    5988:	59 f0       	breq	.+22     	; 0x59a0 <vfprintf+0x86>
    598a:	83 32       	cpi	r24, 0x23	; 35
    598c:	69 f4       	brne	.+26     	; 0x59a8 <vfprintf+0x8e>
    598e:	20 61       	ori	r18, 0x10	; 16
    5990:	2c c0       	rjmp	.+88     	; 0x59ea <vfprintf+0xd0>
    5992:	8d 32       	cpi	r24, 0x2D	; 45
    5994:	39 f0       	breq	.+14     	; 0x59a4 <vfprintf+0x8a>
    5996:	80 33       	cpi	r24, 0x30	; 48
    5998:	39 f4       	brne	.+14     	; 0x59a8 <vfprintf+0x8e>
    599a:	21 60       	ori	r18, 0x01	; 1
    599c:	26 c0       	rjmp	.+76     	; 0x59ea <vfprintf+0xd0>
    599e:	22 60       	ori	r18, 0x02	; 2
    59a0:	24 60       	ori	r18, 0x04	; 4
    59a2:	23 c0       	rjmp	.+70     	; 0x59ea <vfprintf+0xd0>
    59a4:	28 60       	ori	r18, 0x08	; 8
    59a6:	21 c0       	rjmp	.+66     	; 0x59ea <vfprintf+0xd0>
    59a8:	27 fd       	sbrc	r18, 7
    59aa:	27 c0       	rjmp	.+78     	; 0x59fa <vfprintf+0xe0>
    59ac:	30 ed       	ldi	r19, 0xD0	; 208
    59ae:	38 0f       	add	r19, r24
    59b0:	3a 30       	cpi	r19, 0x0A	; 10
    59b2:	78 f4       	brcc	.+30     	; 0x59d2 <vfprintf+0xb8>
    59b4:	26 ff       	sbrs	r18, 6
    59b6:	06 c0       	rjmp	.+12     	; 0x59c4 <vfprintf+0xaa>
    59b8:	fa e0       	ldi	r31, 0x0A	; 10
    59ba:	1f 9f       	mul	r17, r31
    59bc:	30 0d       	add	r19, r0
    59be:	11 24       	eor	r1, r1
    59c0:	13 2f       	mov	r17, r19
    59c2:	13 c0       	rjmp	.+38     	; 0x59ea <vfprintf+0xd0>
    59c4:	6a e0       	ldi	r22, 0x0A	; 10
    59c6:	56 9e       	mul	r5, r22
    59c8:	30 0d       	add	r19, r0
    59ca:	11 24       	eor	r1, r1
    59cc:	53 2e       	mov	r5, r19
    59ce:	20 62       	ori	r18, 0x20	; 32
    59d0:	0c c0       	rjmp	.+24     	; 0x59ea <vfprintf+0xd0>
    59d2:	8e 32       	cpi	r24, 0x2E	; 46
    59d4:	21 f4       	brne	.+8      	; 0x59de <vfprintf+0xc4>
    59d6:	26 fd       	sbrc	r18, 6
    59d8:	11 c3       	rjmp	.+1570   	; 0x5ffc <vfprintf+0x6e2>
    59da:	20 64       	ori	r18, 0x40	; 64
    59dc:	06 c0       	rjmp	.+12     	; 0x59ea <vfprintf+0xd0>
    59de:	8c 36       	cpi	r24, 0x6C	; 108
    59e0:	11 f4       	brne	.+4      	; 0x59e6 <vfprintf+0xcc>
    59e2:	20 68       	ori	r18, 0x80	; 128
    59e4:	02 c0       	rjmp	.+4      	; 0x59ea <vfprintf+0xd0>
    59e6:	88 36       	cpi	r24, 0x68	; 104
    59e8:	41 f4       	brne	.+16     	; 0x59fa <vfprintf+0xe0>
    59ea:	f1 01       	movw	r30, r2
    59ec:	93 fd       	sbrc	r25, 3
    59ee:	85 91       	lpm	r24, Z+
    59f0:	93 ff       	sbrs	r25, 3
    59f2:	81 91       	ld	r24, Z+
    59f4:	1f 01       	movw	r2, r30
    59f6:	81 11       	cpse	r24, r1
    59f8:	c1 cf       	rjmp	.-126    	; 0x597c <vfprintf+0x62>
    59fa:	9b eb       	ldi	r25, 0xBB	; 187
    59fc:	98 0f       	add	r25, r24
    59fe:	93 30       	cpi	r25, 0x03	; 3
    5a00:	18 f4       	brcc	.+6      	; 0x5a08 <vfprintf+0xee>
    5a02:	20 61       	ori	r18, 0x10	; 16
    5a04:	80 5e       	subi	r24, 0xE0	; 224
    5a06:	06 c0       	rjmp	.+12     	; 0x5a14 <vfprintf+0xfa>
    5a08:	9b e9       	ldi	r25, 0x9B	; 155
    5a0a:	98 0f       	add	r25, r24
    5a0c:	93 30       	cpi	r25, 0x03	; 3
    5a0e:	08 f0       	brcs	.+2      	; 0x5a12 <vfprintf+0xf8>
    5a10:	aa c1       	rjmp	.+852    	; 0x5d66 <vfprintf+0x44c>
    5a12:	2f 7e       	andi	r18, 0xEF	; 239
    5a14:	26 ff       	sbrs	r18, 6
    5a16:	16 e0       	ldi	r17, 0x06	; 6
    5a18:	2f 73       	andi	r18, 0x3F	; 63
    5a1a:	72 2e       	mov	r7, r18
    5a1c:	85 36       	cpi	r24, 0x65	; 101
    5a1e:	21 f4       	brne	.+8      	; 0x5a28 <vfprintf+0x10e>
    5a20:	f2 2f       	mov	r31, r18
    5a22:	f0 64       	ori	r31, 0x40	; 64
    5a24:	7f 2e       	mov	r7, r31
    5a26:	08 c0       	rjmp	.+16     	; 0x5a38 <vfprintf+0x11e>
    5a28:	86 36       	cpi	r24, 0x66	; 102
    5a2a:	21 f4       	brne	.+8      	; 0x5a34 <vfprintf+0x11a>
    5a2c:	62 2f       	mov	r22, r18
    5a2e:	60 68       	ori	r22, 0x80	; 128
    5a30:	76 2e       	mov	r7, r22
    5a32:	02 c0       	rjmp	.+4      	; 0x5a38 <vfprintf+0x11e>
    5a34:	11 11       	cpse	r17, r1
    5a36:	11 50       	subi	r17, 0x01	; 1
    5a38:	77 fe       	sbrs	r7, 7
    5a3a:	07 c0       	rjmp	.+14     	; 0x5a4a <vfprintf+0x130>
    5a3c:	1c 33       	cpi	r17, 0x3C	; 60
    5a3e:	48 f4       	brcc	.+18     	; 0x5a52 <vfprintf+0x138>
    5a40:	44 24       	eor	r4, r4
    5a42:	43 94       	inc	r4
    5a44:	41 0e       	add	r4, r17
    5a46:	27 e0       	ldi	r18, 0x07	; 7
    5a48:	0b c0       	rjmp	.+22     	; 0x5a60 <vfprintf+0x146>
    5a4a:	18 30       	cpi	r17, 0x08	; 8
    5a4c:	30 f4       	brcc	.+12     	; 0x5a5a <vfprintf+0x140>
    5a4e:	21 2f       	mov	r18, r17
    5a50:	06 c0       	rjmp	.+12     	; 0x5a5e <vfprintf+0x144>
    5a52:	27 e0       	ldi	r18, 0x07	; 7
    5a54:	4c e3       	ldi	r20, 0x3C	; 60
    5a56:	44 2e       	mov	r4, r20
    5a58:	03 c0       	rjmp	.+6      	; 0x5a60 <vfprintf+0x146>
    5a5a:	27 e0       	ldi	r18, 0x07	; 7
    5a5c:	17 e0       	ldi	r17, 0x07	; 7
    5a5e:	41 2c       	mov	r4, r1
    5a60:	56 01       	movw	r10, r12
    5a62:	74 e0       	ldi	r23, 0x04	; 4
    5a64:	a7 0e       	add	r10, r23
    5a66:	b1 1c       	adc	r11, r1
    5a68:	f6 01       	movw	r30, r12
    5a6a:	60 81       	ld	r22, Z
    5a6c:	71 81       	ldd	r23, Z+1	; 0x01
    5a6e:	82 81       	ldd	r24, Z+2	; 0x02
    5a70:	93 81       	ldd	r25, Z+3	; 0x03
    5a72:	04 2d       	mov	r16, r4
    5a74:	a4 01       	movw	r20, r8
    5a76:	0e 94 9d 33 	call	0x673a	; 0x673a <__ftoa_engine>
    5a7a:	6c 01       	movw	r12, r24
    5a7c:	09 81       	ldd	r16, Y+1	; 0x01
    5a7e:	00 ff       	sbrs	r16, 0
    5a80:	02 c0       	rjmp	.+4      	; 0x5a86 <vfprintf+0x16c>
    5a82:	03 ff       	sbrs	r16, 3
    5a84:	06 c0       	rjmp	.+12     	; 0x5a92 <vfprintf+0x178>
    5a86:	71 fc       	sbrc	r7, 1
    5a88:	07 c0       	rjmp	.+14     	; 0x5a98 <vfprintf+0x17e>
    5a8a:	72 fc       	sbrc	r7, 2
    5a8c:	08 c0       	rjmp	.+16     	; 0x5a9e <vfprintf+0x184>
    5a8e:	61 2c       	mov	r6, r1
    5a90:	08 c0       	rjmp	.+16     	; 0x5aa2 <vfprintf+0x188>
    5a92:	3d e2       	ldi	r19, 0x2D	; 45
    5a94:	63 2e       	mov	r6, r19
    5a96:	05 c0       	rjmp	.+10     	; 0x5aa2 <vfprintf+0x188>
    5a98:	2b e2       	ldi	r18, 0x2B	; 43
    5a9a:	62 2e       	mov	r6, r18
    5a9c:	02 c0       	rjmp	.+4      	; 0x5aa2 <vfprintf+0x188>
    5a9e:	90 e2       	ldi	r25, 0x20	; 32
    5aa0:	69 2e       	mov	r6, r25
    5aa2:	80 2f       	mov	r24, r16
    5aa4:	8c 70       	andi	r24, 0x0C	; 12
    5aa6:	99 f1       	breq	.+102    	; 0x5b0e <vfprintf+0x1f4>
    5aa8:	66 20       	and	r6, r6
    5aaa:	11 f0       	breq	.+4      	; 0x5ab0 <vfprintf+0x196>
    5aac:	84 e0       	ldi	r24, 0x04	; 4
    5aae:	01 c0       	rjmp	.+2      	; 0x5ab2 <vfprintf+0x198>
    5ab0:	83 e0       	ldi	r24, 0x03	; 3
    5ab2:	85 15       	cp	r24, r5
    5ab4:	10 f0       	brcs	.+4      	; 0x5aba <vfprintf+0x1a0>
    5ab6:	51 2c       	mov	r5, r1
    5ab8:	0b c0       	rjmp	.+22     	; 0x5ad0 <vfprintf+0x1b6>
    5aba:	58 1a       	sub	r5, r24
    5abc:	73 fc       	sbrc	r7, 3
    5abe:	08 c0       	rjmp	.+16     	; 0x5ad0 <vfprintf+0x1b6>
    5ac0:	b7 01       	movw	r22, r14
    5ac2:	80 e2       	ldi	r24, 0x20	; 32
    5ac4:	90 e0       	ldi	r25, 0x00	; 0
    5ac6:	0e 94 8b 34 	call	0x6916	; 0x6916 <fputc>
    5aca:	5a 94       	dec	r5
    5acc:	c9 f7       	brne	.-14     	; 0x5ac0 <vfprintf+0x1a6>
    5ace:	f3 cf       	rjmp	.-26     	; 0x5ab6 <vfprintf+0x19c>
    5ad0:	66 20       	and	r6, r6
    5ad2:	29 f0       	breq	.+10     	; 0x5ade <vfprintf+0x1c4>
    5ad4:	b7 01       	movw	r22, r14
    5ad6:	86 2d       	mov	r24, r6
    5ad8:	90 e0       	ldi	r25, 0x00	; 0
    5ada:	0e 94 8b 34 	call	0x6916	; 0x6916 <fputc>
    5ade:	03 fd       	sbrc	r16, 3
    5ae0:	03 c0       	rjmp	.+6      	; 0x5ae8 <vfprintf+0x1ce>
    5ae2:	0f ea       	ldi	r16, 0xAF	; 175
    5ae4:	15 e0       	ldi	r17, 0x05	; 5
    5ae6:	02 c0       	rjmp	.+4      	; 0x5aec <vfprintf+0x1d2>
    5ae8:	0b ea       	ldi	r16, 0xAB	; 171
    5aea:	15 e0       	ldi	r17, 0x05	; 5
    5aec:	f7 2d       	mov	r31, r7
    5aee:	f0 71       	andi	r31, 0x10	; 16
    5af0:	7f 2e       	mov	r7, r31
    5af2:	f8 01       	movw	r30, r16
    5af4:	84 91       	lpm	r24, Z
    5af6:	88 23       	and	r24, r24
    5af8:	09 f4       	brne	.+2      	; 0x5afc <vfprintf+0x1e2>
    5afa:	76 c2       	rjmp	.+1260   	; 0x5fe8 <vfprintf+0x6ce>
    5afc:	71 10       	cpse	r7, r1
    5afe:	80 52       	subi	r24, 0x20	; 32
    5b00:	b7 01       	movw	r22, r14
    5b02:	90 e0       	ldi	r25, 0x00	; 0
    5b04:	0e 94 8b 34 	call	0x6916	; 0x6916 <fputc>
    5b08:	0f 5f       	subi	r16, 0xFF	; 255
    5b0a:	1f 4f       	sbci	r17, 0xFF	; 255
    5b0c:	f2 cf       	rjmp	.-28     	; 0x5af2 <vfprintf+0x1d8>
    5b0e:	77 fe       	sbrs	r7, 7
    5b10:	0f c0       	rjmp	.+30     	; 0x5b30 <vfprintf+0x216>
    5b12:	4c 0c       	add	r4, r12
    5b14:	04 ff       	sbrs	r16, 4
    5b16:	04 c0       	rjmp	.+8      	; 0x5b20 <vfprintf+0x206>
    5b18:	8a 81       	ldd	r24, Y+2	; 0x02
    5b1a:	81 33       	cpi	r24, 0x31	; 49
    5b1c:	09 f4       	brne	.+2      	; 0x5b20 <vfprintf+0x206>
    5b1e:	4a 94       	dec	r4
    5b20:	14 14       	cp	r1, r4
    5b22:	74 f5       	brge	.+92     	; 0x5b80 <vfprintf+0x266>
    5b24:	f8 e0       	ldi	r31, 0x08	; 8
    5b26:	f4 15       	cp	r31, r4
    5b28:	78 f5       	brcc	.+94     	; 0x5b88 <vfprintf+0x26e>
    5b2a:	88 e0       	ldi	r24, 0x08	; 8
    5b2c:	48 2e       	mov	r4, r24
    5b2e:	2c c0       	rjmp	.+88     	; 0x5b88 <vfprintf+0x26e>
    5b30:	76 fc       	sbrc	r7, 6
    5b32:	2a c0       	rjmp	.+84     	; 0x5b88 <vfprintf+0x26e>
    5b34:	81 2f       	mov	r24, r17
    5b36:	90 e0       	ldi	r25, 0x00	; 0
    5b38:	8c 15       	cp	r24, r12
    5b3a:	9d 05       	cpc	r25, r13
    5b3c:	9c f0       	brlt	.+38     	; 0x5b64 <vfprintf+0x24a>
    5b3e:	6c ef       	ldi	r22, 0xFC	; 252
    5b40:	c6 16       	cp	r12, r22
    5b42:	6f ef       	ldi	r22, 0xFF	; 255
    5b44:	d6 06       	cpc	r13, r22
    5b46:	74 f0       	brlt	.+28     	; 0x5b64 <vfprintf+0x24a>
    5b48:	77 2d       	mov	r23, r7
    5b4a:	70 68       	ori	r23, 0x80	; 128
    5b4c:	77 2e       	mov	r7, r23
    5b4e:	0a c0       	rjmp	.+20     	; 0x5b64 <vfprintf+0x24a>
    5b50:	e2 e0       	ldi	r30, 0x02	; 2
    5b52:	f0 e0       	ldi	r31, 0x00	; 0
    5b54:	ec 0f       	add	r30, r28
    5b56:	fd 1f       	adc	r31, r29
    5b58:	e1 0f       	add	r30, r17
    5b5a:	f1 1d       	adc	r31, r1
    5b5c:	80 81       	ld	r24, Z
    5b5e:	80 33       	cpi	r24, 0x30	; 48
    5b60:	19 f4       	brne	.+6      	; 0x5b68 <vfprintf+0x24e>
    5b62:	11 50       	subi	r17, 0x01	; 1
    5b64:	11 11       	cpse	r17, r1
    5b66:	f4 cf       	rjmp	.-24     	; 0x5b50 <vfprintf+0x236>
    5b68:	77 fe       	sbrs	r7, 7
    5b6a:	0e c0       	rjmp	.+28     	; 0x5b88 <vfprintf+0x26e>
    5b6c:	44 24       	eor	r4, r4
    5b6e:	43 94       	inc	r4
    5b70:	41 0e       	add	r4, r17
    5b72:	81 2f       	mov	r24, r17
    5b74:	90 e0       	ldi	r25, 0x00	; 0
    5b76:	c8 16       	cp	r12, r24
    5b78:	d9 06       	cpc	r13, r25
    5b7a:	2c f4       	brge	.+10     	; 0x5b86 <vfprintf+0x26c>
    5b7c:	1c 19       	sub	r17, r12
    5b7e:	04 c0       	rjmp	.+8      	; 0x5b88 <vfprintf+0x26e>
    5b80:	44 24       	eor	r4, r4
    5b82:	43 94       	inc	r4
    5b84:	01 c0       	rjmp	.+2      	; 0x5b88 <vfprintf+0x26e>
    5b86:	10 e0       	ldi	r17, 0x00	; 0
    5b88:	77 fe       	sbrs	r7, 7
    5b8a:	07 c0       	rjmp	.+14     	; 0x5b9a <vfprintf+0x280>
    5b8c:	1c 14       	cp	r1, r12
    5b8e:	1d 04       	cpc	r1, r13
    5b90:	3c f4       	brge	.+14     	; 0x5ba0 <vfprintf+0x286>
    5b92:	96 01       	movw	r18, r12
    5b94:	2f 5f       	subi	r18, 0xFF	; 255
    5b96:	3f 4f       	sbci	r19, 0xFF	; 255
    5b98:	05 c0       	rjmp	.+10     	; 0x5ba4 <vfprintf+0x28a>
    5b9a:	25 e0       	ldi	r18, 0x05	; 5
    5b9c:	30 e0       	ldi	r19, 0x00	; 0
    5b9e:	02 c0       	rjmp	.+4      	; 0x5ba4 <vfprintf+0x28a>
    5ba0:	21 e0       	ldi	r18, 0x01	; 1
    5ba2:	30 e0       	ldi	r19, 0x00	; 0
    5ba4:	66 20       	and	r6, r6
    5ba6:	11 f0       	breq	.+4      	; 0x5bac <vfprintf+0x292>
    5ba8:	2f 5f       	subi	r18, 0xFF	; 255
    5baa:	3f 4f       	sbci	r19, 0xFF	; 255
    5bac:	11 23       	and	r17, r17
    5bae:	31 f0       	breq	.+12     	; 0x5bbc <vfprintf+0x2a2>
    5bb0:	41 2f       	mov	r20, r17
    5bb2:	50 e0       	ldi	r21, 0x00	; 0
    5bb4:	4f 5f       	subi	r20, 0xFF	; 255
    5bb6:	5f 4f       	sbci	r21, 0xFF	; 255
    5bb8:	24 0f       	add	r18, r20
    5bba:	35 1f       	adc	r19, r21
    5bbc:	45 2d       	mov	r20, r5
    5bbe:	50 e0       	ldi	r21, 0x00	; 0
    5bc0:	24 17       	cp	r18, r20
    5bc2:	35 07       	cpc	r19, r21
    5bc4:	14 f4       	brge	.+4      	; 0x5bca <vfprintf+0x2b0>
    5bc6:	52 1a       	sub	r5, r18
    5bc8:	01 c0       	rjmp	.+2      	; 0x5bcc <vfprintf+0x2b2>
    5bca:	51 2c       	mov	r5, r1
    5bcc:	87 2d       	mov	r24, r7
    5bce:	89 70       	andi	r24, 0x09	; 9
    5bd0:	49 f4       	brne	.+18     	; 0x5be4 <vfprintf+0x2ca>
    5bd2:	55 20       	and	r5, r5
    5bd4:	39 f0       	breq	.+14     	; 0x5be4 <vfprintf+0x2ca>
    5bd6:	b7 01       	movw	r22, r14
    5bd8:	80 e2       	ldi	r24, 0x20	; 32
    5bda:	90 e0       	ldi	r25, 0x00	; 0
    5bdc:	0e 94 8b 34 	call	0x6916	; 0x6916 <fputc>
    5be0:	5a 94       	dec	r5
    5be2:	f7 cf       	rjmp	.-18     	; 0x5bd2 <vfprintf+0x2b8>
    5be4:	66 20       	and	r6, r6
    5be6:	29 f0       	breq	.+10     	; 0x5bf2 <vfprintf+0x2d8>
    5be8:	b7 01       	movw	r22, r14
    5bea:	86 2d       	mov	r24, r6
    5bec:	90 e0       	ldi	r25, 0x00	; 0
    5bee:	0e 94 8b 34 	call	0x6916	; 0x6916 <fputc>
    5bf2:	73 fc       	sbrc	r7, 3
    5bf4:	09 c0       	rjmp	.+18     	; 0x5c08 <vfprintf+0x2ee>
    5bf6:	55 20       	and	r5, r5
    5bf8:	39 f0       	breq	.+14     	; 0x5c08 <vfprintf+0x2ee>
    5bfa:	b7 01       	movw	r22, r14
    5bfc:	80 e3       	ldi	r24, 0x30	; 48
    5bfe:	90 e0       	ldi	r25, 0x00	; 0
    5c00:	0e 94 8b 34 	call	0x6916	; 0x6916 <fputc>
    5c04:	5a 94       	dec	r5
    5c06:	f7 cf       	rjmp	.-18     	; 0x5bf6 <vfprintf+0x2dc>
    5c08:	77 fe       	sbrs	r7, 7
    5c0a:	5f c0       	rjmp	.+190    	; 0x5cca <vfprintf+0x3b0>
    5c0c:	9c 2d       	mov	r25, r12
    5c0e:	8d 2d       	mov	r24, r13
    5c10:	d7 fe       	sbrs	r13, 7
    5c12:	02 c0       	rjmp	.+4      	; 0x5c18 <vfprintf+0x2fe>
    5c14:	90 e0       	ldi	r25, 0x00	; 0
    5c16:	80 e0       	ldi	r24, 0x00	; 0
    5c18:	69 2e       	mov	r6, r25
    5c1a:	78 2e       	mov	r7, r24
    5c1c:	40 e0       	ldi	r20, 0x00	; 0
    5c1e:	50 e0       	ldi	r21, 0x00	; 0
    5c20:	c6 01       	movw	r24, r12
    5c22:	84 19       	sub	r24, r4
    5c24:	91 09       	sbc	r25, r1
    5c26:	9d 87       	std	Y+13, r25	; 0x0d
    5c28:	8c 87       	std	Y+12, r24	; 0x0c
    5c2a:	96 01       	movw	r18, r12
    5c2c:	26 19       	sub	r18, r6
    5c2e:	37 09       	sbc	r19, r7
    5c30:	28 0d       	add	r18, r8
    5c32:	39 1d       	adc	r19, r9
    5c34:	81 2f       	mov	r24, r17
    5c36:	90 e0       	ldi	r25, 0x00	; 0
    5c38:	ee 27       	eor	r30, r30
    5c3a:	ff 27       	eor	r31, r31
    5c3c:	e8 1b       	sub	r30, r24
    5c3e:	f9 0b       	sbc	r31, r25
    5c40:	ff 87       	std	Y+15, r31	; 0x0f
    5c42:	ee 87       	std	Y+14, r30	; 0x0e
    5c44:	ff ef       	ldi	r31, 0xFF	; 255
    5c46:	6f 16       	cp	r6, r31
    5c48:	7f 06       	cpc	r7, r31
    5c4a:	69 f4       	brne	.+26     	; 0x5c66 <vfprintf+0x34c>
    5c4c:	b7 01       	movw	r22, r14
    5c4e:	8e e2       	ldi	r24, 0x2E	; 46
    5c50:	90 e0       	ldi	r25, 0x00	; 0
    5c52:	2b 8b       	std	Y+19, r18	; 0x13
    5c54:	3a 8b       	std	Y+18, r19	; 0x12
    5c56:	48 8b       	std	Y+16, r20	; 0x10
    5c58:	59 8b       	std	Y+17, r21	; 0x11
    5c5a:	0e 94 8b 34 	call	0x6916	; 0x6916 <fputc>
    5c5e:	59 89       	ldd	r21, Y+17	; 0x11
    5c60:	48 89       	ldd	r20, Y+16	; 0x10
    5c62:	3a 89       	ldd	r19, Y+18	; 0x12
    5c64:	2b 89       	ldd	r18, Y+19	; 0x13
    5c66:	c6 14       	cp	r12, r6
    5c68:	d7 04       	cpc	r13, r7
    5c6a:	54 f0       	brlt	.+20     	; 0x5c80 <vfprintf+0x366>
    5c6c:	6c 85       	ldd	r22, Y+12	; 0x0c
    5c6e:	7d 85       	ldd	r23, Y+13	; 0x0d
    5c70:	66 15       	cp	r22, r6
    5c72:	77 05       	cpc	r23, r7
    5c74:	2c f4       	brge	.+10     	; 0x5c80 <vfprintf+0x366>
    5c76:	f9 01       	movw	r30, r18
    5c78:	e4 0f       	add	r30, r20
    5c7a:	f5 1f       	adc	r31, r21
    5c7c:	81 81       	ldd	r24, Z+1	; 0x01
    5c7e:	01 c0       	rjmp	.+2      	; 0x5c82 <vfprintf+0x368>
    5c80:	80 e3       	ldi	r24, 0x30	; 48
    5c82:	71 e0       	ldi	r23, 0x01	; 1
    5c84:	67 1a       	sub	r6, r23
    5c86:	71 08       	sbc	r7, r1
    5c88:	4f 5f       	subi	r20, 0xFF	; 255
    5c8a:	5f 4f       	sbci	r21, 0xFF	; 255
    5c8c:	ee 85       	ldd	r30, Y+14	; 0x0e
    5c8e:	ff 85       	ldd	r31, Y+15	; 0x0f
    5c90:	6e 16       	cp	r6, r30
    5c92:	7f 06       	cpc	r7, r31
    5c94:	6c f0       	brlt	.+26     	; 0x5cb0 <vfprintf+0x396>
    5c96:	b7 01       	movw	r22, r14
    5c98:	90 e0       	ldi	r25, 0x00	; 0
    5c9a:	2b 8b       	std	Y+19, r18	; 0x13
    5c9c:	3a 8b       	std	Y+18, r19	; 0x12
    5c9e:	48 8b       	std	Y+16, r20	; 0x10
    5ca0:	59 8b       	std	Y+17, r21	; 0x11
    5ca2:	0e 94 8b 34 	call	0x6916	; 0x6916 <fputc>
    5ca6:	2b 89       	ldd	r18, Y+19	; 0x13
    5ca8:	3a 89       	ldd	r19, Y+18	; 0x12
    5caa:	48 89       	ldd	r20, Y+16	; 0x10
    5cac:	59 89       	ldd	r21, Y+17	; 0x11
    5cae:	ca cf       	rjmp	.-108    	; 0x5c44 <vfprintf+0x32a>
    5cb0:	6c 14       	cp	r6, r12
    5cb2:	7d 04       	cpc	r7, r13
    5cb4:	39 f4       	brne	.+14     	; 0x5cc4 <vfprintf+0x3aa>
    5cb6:	9a 81       	ldd	r25, Y+2	; 0x02
    5cb8:	96 33       	cpi	r25, 0x36	; 54
    5cba:	18 f4       	brcc	.+6      	; 0x5cc2 <vfprintf+0x3a8>
    5cbc:	95 33       	cpi	r25, 0x35	; 53
    5cbe:	11 f4       	brne	.+4      	; 0x5cc4 <vfprintf+0x3aa>
    5cc0:	04 ff       	sbrs	r16, 4
    5cc2:	81 e3       	ldi	r24, 0x31	; 49
    5cc4:	b7 01       	movw	r22, r14
    5cc6:	90 e0       	ldi	r25, 0x00	; 0
    5cc8:	4b c0       	rjmp	.+150    	; 0x5d60 <vfprintf+0x446>
    5cca:	8a 81       	ldd	r24, Y+2	; 0x02
    5ccc:	81 33       	cpi	r24, 0x31	; 49
    5cce:	09 f0       	breq	.+2      	; 0x5cd2 <vfprintf+0x3b8>
    5cd0:	0f 7e       	andi	r16, 0xEF	; 239
    5cd2:	b7 01       	movw	r22, r14
    5cd4:	90 e0       	ldi	r25, 0x00	; 0
    5cd6:	0e 94 8b 34 	call	0x6916	; 0x6916 <fputc>
    5cda:	11 11       	cpse	r17, r1
    5cdc:	05 c0       	rjmp	.+10     	; 0x5ce8 <vfprintf+0x3ce>
    5cde:	74 fe       	sbrs	r7, 4
    5ce0:	18 c0       	rjmp	.+48     	; 0x5d12 <vfprintf+0x3f8>
    5ce2:	85 e4       	ldi	r24, 0x45	; 69
    5ce4:	90 e0       	ldi	r25, 0x00	; 0
    5ce6:	17 c0       	rjmp	.+46     	; 0x5d16 <vfprintf+0x3fc>
    5ce8:	b7 01       	movw	r22, r14
    5cea:	8e e2       	ldi	r24, 0x2E	; 46
    5cec:	90 e0       	ldi	r25, 0x00	; 0
    5cee:	0e 94 8b 34 	call	0x6916	; 0x6916 <fputc>
    5cf2:	82 e0       	ldi	r24, 0x02	; 2
    5cf4:	66 24       	eor	r6, r6
    5cf6:	63 94       	inc	r6
    5cf8:	68 0e       	add	r6, r24
    5cfa:	f4 01       	movw	r30, r8
    5cfc:	e8 0f       	add	r30, r24
    5cfe:	f1 1d       	adc	r31, r1
    5d00:	80 81       	ld	r24, Z
    5d02:	b7 01       	movw	r22, r14
    5d04:	90 e0       	ldi	r25, 0x00	; 0
    5d06:	0e 94 8b 34 	call	0x6916	; 0x6916 <fputc>
    5d0a:	11 50       	subi	r17, 0x01	; 1
    5d0c:	41 f3       	breq	.-48     	; 0x5cde <vfprintf+0x3c4>
    5d0e:	86 2d       	mov	r24, r6
    5d10:	f1 cf       	rjmp	.-30     	; 0x5cf4 <vfprintf+0x3da>
    5d12:	85 e6       	ldi	r24, 0x65	; 101
    5d14:	90 e0       	ldi	r25, 0x00	; 0
    5d16:	b7 01       	movw	r22, r14
    5d18:	0e 94 8b 34 	call	0x6916	; 0x6916 <fputc>
    5d1c:	d7 fc       	sbrc	r13, 7
    5d1e:	05 c0       	rjmp	.+10     	; 0x5d2a <vfprintf+0x410>
    5d20:	c1 14       	cp	r12, r1
    5d22:	d1 04       	cpc	r13, r1
    5d24:	39 f4       	brne	.+14     	; 0x5d34 <vfprintf+0x41a>
    5d26:	04 ff       	sbrs	r16, 4
    5d28:	05 c0       	rjmp	.+10     	; 0x5d34 <vfprintf+0x41a>
    5d2a:	d1 94       	neg	r13
    5d2c:	c1 94       	neg	r12
    5d2e:	d1 08       	sbc	r13, r1
    5d30:	8d e2       	ldi	r24, 0x2D	; 45
    5d32:	01 c0       	rjmp	.+2      	; 0x5d36 <vfprintf+0x41c>
    5d34:	8b e2       	ldi	r24, 0x2B	; 43
    5d36:	b7 01       	movw	r22, r14
    5d38:	90 e0       	ldi	r25, 0x00	; 0
    5d3a:	0e 94 8b 34 	call	0x6916	; 0x6916 <fputc>
    5d3e:	80 e3       	ldi	r24, 0x30	; 48
    5d40:	6a e0       	ldi	r22, 0x0A	; 10
    5d42:	c6 16       	cp	r12, r22
    5d44:	d1 04       	cpc	r13, r1
    5d46:	2c f0       	brlt	.+10     	; 0x5d52 <vfprintf+0x438>
    5d48:	8f 5f       	subi	r24, 0xFF	; 255
    5d4a:	fa e0       	ldi	r31, 0x0A	; 10
    5d4c:	cf 1a       	sub	r12, r31
    5d4e:	d1 08       	sbc	r13, r1
    5d50:	f7 cf       	rjmp	.-18     	; 0x5d40 <vfprintf+0x426>
    5d52:	b7 01       	movw	r22, r14
    5d54:	90 e0       	ldi	r25, 0x00	; 0
    5d56:	0e 94 8b 34 	call	0x6916	; 0x6916 <fputc>
    5d5a:	b7 01       	movw	r22, r14
    5d5c:	c6 01       	movw	r24, r12
    5d5e:	c0 96       	adiw	r24, 0x30	; 48
    5d60:	0e 94 8b 34 	call	0x6916	; 0x6916 <fputc>
    5d64:	41 c1       	rjmp	.+642    	; 0x5fe8 <vfprintf+0x6ce>
    5d66:	83 36       	cpi	r24, 0x63	; 99
    5d68:	31 f0       	breq	.+12     	; 0x5d76 <vfprintf+0x45c>
    5d6a:	83 37       	cpi	r24, 0x73	; 115
    5d6c:	79 f0       	breq	.+30     	; 0x5d8c <vfprintf+0x472>
    5d6e:	83 35       	cpi	r24, 0x53	; 83
    5d70:	09 f0       	breq	.+2      	; 0x5d74 <vfprintf+0x45a>
    5d72:	58 c0       	rjmp	.+176    	; 0x5e24 <vfprintf+0x50a>
    5d74:	21 c0       	rjmp	.+66     	; 0x5db8 <vfprintf+0x49e>
    5d76:	56 01       	movw	r10, r12
    5d78:	72 e0       	ldi	r23, 0x02	; 2
    5d7a:	a7 0e       	add	r10, r23
    5d7c:	b1 1c       	adc	r11, r1
    5d7e:	f6 01       	movw	r30, r12
    5d80:	80 81       	ld	r24, Z
    5d82:	89 83       	std	Y+1, r24	; 0x01
    5d84:	01 e0       	ldi	r16, 0x01	; 1
    5d86:	10 e0       	ldi	r17, 0x00	; 0
    5d88:	64 01       	movw	r12, r8
    5d8a:	14 c0       	rjmp	.+40     	; 0x5db4 <vfprintf+0x49a>
    5d8c:	56 01       	movw	r10, r12
    5d8e:	f2 e0       	ldi	r31, 0x02	; 2
    5d90:	af 0e       	add	r10, r31
    5d92:	b1 1c       	adc	r11, r1
    5d94:	f6 01       	movw	r30, r12
    5d96:	c0 80       	ld	r12, Z
    5d98:	d1 80       	ldd	r13, Z+1	; 0x01
    5d9a:	26 ff       	sbrs	r18, 6
    5d9c:	03 c0       	rjmp	.+6      	; 0x5da4 <vfprintf+0x48a>
    5d9e:	61 2f       	mov	r22, r17
    5da0:	70 e0       	ldi	r23, 0x00	; 0
    5da2:	02 c0       	rjmp	.+4      	; 0x5da8 <vfprintf+0x48e>
    5da4:	6f ef       	ldi	r22, 0xFF	; 255
    5da6:	7f ef       	ldi	r23, 0xFF	; 255
    5da8:	c6 01       	movw	r24, r12
    5daa:	2b 8b       	std	Y+19, r18	; 0x13
    5dac:	0e 94 80 34 	call	0x6900	; 0x6900 <strnlen>
    5db0:	8c 01       	movw	r16, r24
    5db2:	2b 89       	ldd	r18, Y+19	; 0x13
    5db4:	2f 77       	andi	r18, 0x7F	; 127
    5db6:	15 c0       	rjmp	.+42     	; 0x5de2 <vfprintf+0x4c8>
    5db8:	56 01       	movw	r10, r12
    5dba:	f2 e0       	ldi	r31, 0x02	; 2
    5dbc:	af 0e       	add	r10, r31
    5dbe:	b1 1c       	adc	r11, r1
    5dc0:	f6 01       	movw	r30, r12
    5dc2:	c0 80       	ld	r12, Z
    5dc4:	d1 80       	ldd	r13, Z+1	; 0x01
    5dc6:	26 ff       	sbrs	r18, 6
    5dc8:	03 c0       	rjmp	.+6      	; 0x5dd0 <vfprintf+0x4b6>
    5dca:	61 2f       	mov	r22, r17
    5dcc:	70 e0       	ldi	r23, 0x00	; 0
    5dce:	02 c0       	rjmp	.+4      	; 0x5dd4 <vfprintf+0x4ba>
    5dd0:	6f ef       	ldi	r22, 0xFF	; 255
    5dd2:	7f ef       	ldi	r23, 0xFF	; 255
    5dd4:	c6 01       	movw	r24, r12
    5dd6:	2b 8b       	std	Y+19, r18	; 0x13
    5dd8:	0e 94 75 34 	call	0x68ea	; 0x68ea <strnlen_P>
    5ddc:	8c 01       	movw	r16, r24
    5dde:	2b 89       	ldd	r18, Y+19	; 0x13
    5de0:	20 68       	ori	r18, 0x80	; 128
    5de2:	72 2e       	mov	r7, r18
    5de4:	23 fd       	sbrc	r18, 3
    5de6:	1a c0       	rjmp	.+52     	; 0x5e1c <vfprintf+0x502>
    5de8:	85 2d       	mov	r24, r5
    5dea:	90 e0       	ldi	r25, 0x00	; 0
    5dec:	08 17       	cp	r16, r24
    5dee:	19 07       	cpc	r17, r25
    5df0:	a8 f4       	brcc	.+42     	; 0x5e1c <vfprintf+0x502>
    5df2:	b7 01       	movw	r22, r14
    5df4:	80 e2       	ldi	r24, 0x20	; 32
    5df6:	90 e0       	ldi	r25, 0x00	; 0
    5df8:	0e 94 8b 34 	call	0x6916	; 0x6916 <fputc>
    5dfc:	5a 94       	dec	r5
    5dfe:	f4 cf       	rjmp	.-24     	; 0x5de8 <vfprintf+0x4ce>
    5e00:	f6 01       	movw	r30, r12
    5e02:	77 fc       	sbrc	r7, 7
    5e04:	85 91       	lpm	r24, Z+
    5e06:	77 fe       	sbrs	r7, 7
    5e08:	81 91       	ld	r24, Z+
    5e0a:	6f 01       	movw	r12, r30
    5e0c:	b7 01       	movw	r22, r14
    5e0e:	90 e0       	ldi	r25, 0x00	; 0
    5e10:	0e 94 8b 34 	call	0x6916	; 0x6916 <fputc>
    5e14:	51 10       	cpse	r5, r1
    5e16:	5a 94       	dec	r5
    5e18:	01 50       	subi	r16, 0x01	; 1
    5e1a:	11 09       	sbc	r17, r1
    5e1c:	01 15       	cp	r16, r1
    5e1e:	11 05       	cpc	r17, r1
    5e20:	79 f7       	brne	.-34     	; 0x5e00 <vfprintf+0x4e6>
    5e22:	e2 c0       	rjmp	.+452    	; 0x5fe8 <vfprintf+0x6ce>
    5e24:	84 36       	cpi	r24, 0x64	; 100
    5e26:	11 f0       	breq	.+4      	; 0x5e2c <vfprintf+0x512>
    5e28:	89 36       	cpi	r24, 0x69	; 105
    5e2a:	51 f5       	brne	.+84     	; 0x5e80 <vfprintf+0x566>
    5e2c:	56 01       	movw	r10, r12
    5e2e:	27 ff       	sbrs	r18, 7
    5e30:	09 c0       	rjmp	.+18     	; 0x5e44 <vfprintf+0x52a>
    5e32:	f4 e0       	ldi	r31, 0x04	; 4
    5e34:	af 0e       	add	r10, r31
    5e36:	b1 1c       	adc	r11, r1
    5e38:	f6 01       	movw	r30, r12
    5e3a:	60 81       	ld	r22, Z
    5e3c:	71 81       	ldd	r23, Z+1	; 0x01
    5e3e:	82 81       	ldd	r24, Z+2	; 0x02
    5e40:	93 81       	ldd	r25, Z+3	; 0x03
    5e42:	0a c0       	rjmp	.+20     	; 0x5e58 <vfprintf+0x53e>
    5e44:	f2 e0       	ldi	r31, 0x02	; 2
    5e46:	af 0e       	add	r10, r31
    5e48:	b1 1c       	adc	r11, r1
    5e4a:	f6 01       	movw	r30, r12
    5e4c:	60 81       	ld	r22, Z
    5e4e:	71 81       	ldd	r23, Z+1	; 0x01
    5e50:	88 27       	eor	r24, r24
    5e52:	77 fd       	sbrc	r23, 7
    5e54:	80 95       	com	r24
    5e56:	98 2f       	mov	r25, r24
    5e58:	02 2f       	mov	r16, r18
    5e5a:	0f 76       	andi	r16, 0x6F	; 111
    5e5c:	97 ff       	sbrs	r25, 7
    5e5e:	08 c0       	rjmp	.+16     	; 0x5e70 <vfprintf+0x556>
    5e60:	90 95       	com	r25
    5e62:	80 95       	com	r24
    5e64:	70 95       	com	r23
    5e66:	61 95       	neg	r22
    5e68:	7f 4f       	sbci	r23, 0xFF	; 255
    5e6a:	8f 4f       	sbci	r24, 0xFF	; 255
    5e6c:	9f 4f       	sbci	r25, 0xFF	; 255
    5e6e:	00 68       	ori	r16, 0x80	; 128
    5e70:	2a e0       	ldi	r18, 0x0A	; 10
    5e72:	30 e0       	ldi	r19, 0x00	; 0
    5e74:	a4 01       	movw	r20, r8
    5e76:	0e 94 fe 34 	call	0x69fc	; 0x69fc <__ultoa_invert>
    5e7a:	c8 2e       	mov	r12, r24
    5e7c:	c8 18       	sub	r12, r8
    5e7e:	3e c0       	rjmp	.+124    	; 0x5efc <vfprintf+0x5e2>
    5e80:	02 2f       	mov	r16, r18
    5e82:	85 37       	cpi	r24, 0x75	; 117
    5e84:	21 f4       	brne	.+8      	; 0x5e8e <vfprintf+0x574>
    5e86:	0f 7e       	andi	r16, 0xEF	; 239
    5e88:	2a e0       	ldi	r18, 0x0A	; 10
    5e8a:	30 e0       	ldi	r19, 0x00	; 0
    5e8c:	1d c0       	rjmp	.+58     	; 0x5ec8 <vfprintf+0x5ae>
    5e8e:	09 7f       	andi	r16, 0xF9	; 249
    5e90:	8f 36       	cpi	r24, 0x6F	; 111
    5e92:	91 f0       	breq	.+36     	; 0x5eb8 <vfprintf+0x59e>
    5e94:	18 f4       	brcc	.+6      	; 0x5e9c <vfprintf+0x582>
    5e96:	88 35       	cpi	r24, 0x58	; 88
    5e98:	59 f0       	breq	.+22     	; 0x5eb0 <vfprintf+0x596>
    5e9a:	b0 c0       	rjmp	.+352    	; 0x5ffc <vfprintf+0x6e2>
    5e9c:	80 37       	cpi	r24, 0x70	; 112
    5e9e:	19 f0       	breq	.+6      	; 0x5ea6 <vfprintf+0x58c>
    5ea0:	88 37       	cpi	r24, 0x78	; 120
    5ea2:	11 f0       	breq	.+4      	; 0x5ea8 <vfprintf+0x58e>
    5ea4:	ab c0       	rjmp	.+342    	; 0x5ffc <vfprintf+0x6e2>
    5ea6:	00 61       	ori	r16, 0x10	; 16
    5ea8:	04 ff       	sbrs	r16, 4
    5eaa:	09 c0       	rjmp	.+18     	; 0x5ebe <vfprintf+0x5a4>
    5eac:	04 60       	ori	r16, 0x04	; 4
    5eae:	07 c0       	rjmp	.+14     	; 0x5ebe <vfprintf+0x5a4>
    5eb0:	24 ff       	sbrs	r18, 4
    5eb2:	08 c0       	rjmp	.+16     	; 0x5ec4 <vfprintf+0x5aa>
    5eb4:	06 60       	ori	r16, 0x06	; 6
    5eb6:	06 c0       	rjmp	.+12     	; 0x5ec4 <vfprintf+0x5aa>
    5eb8:	28 e0       	ldi	r18, 0x08	; 8
    5eba:	30 e0       	ldi	r19, 0x00	; 0
    5ebc:	05 c0       	rjmp	.+10     	; 0x5ec8 <vfprintf+0x5ae>
    5ebe:	20 e1       	ldi	r18, 0x10	; 16
    5ec0:	30 e0       	ldi	r19, 0x00	; 0
    5ec2:	02 c0       	rjmp	.+4      	; 0x5ec8 <vfprintf+0x5ae>
    5ec4:	20 e1       	ldi	r18, 0x10	; 16
    5ec6:	32 e0       	ldi	r19, 0x02	; 2
    5ec8:	56 01       	movw	r10, r12
    5eca:	07 ff       	sbrs	r16, 7
    5ecc:	09 c0       	rjmp	.+18     	; 0x5ee0 <vfprintf+0x5c6>
    5ece:	f4 e0       	ldi	r31, 0x04	; 4
    5ed0:	af 0e       	add	r10, r31
    5ed2:	b1 1c       	adc	r11, r1
    5ed4:	f6 01       	movw	r30, r12
    5ed6:	60 81       	ld	r22, Z
    5ed8:	71 81       	ldd	r23, Z+1	; 0x01
    5eda:	82 81       	ldd	r24, Z+2	; 0x02
    5edc:	93 81       	ldd	r25, Z+3	; 0x03
    5ede:	08 c0       	rjmp	.+16     	; 0x5ef0 <vfprintf+0x5d6>
    5ee0:	f2 e0       	ldi	r31, 0x02	; 2
    5ee2:	af 0e       	add	r10, r31
    5ee4:	b1 1c       	adc	r11, r1
    5ee6:	f6 01       	movw	r30, r12
    5ee8:	60 81       	ld	r22, Z
    5eea:	71 81       	ldd	r23, Z+1	; 0x01
    5eec:	80 e0       	ldi	r24, 0x00	; 0
    5eee:	90 e0       	ldi	r25, 0x00	; 0
    5ef0:	a4 01       	movw	r20, r8
    5ef2:	0e 94 fe 34 	call	0x69fc	; 0x69fc <__ultoa_invert>
    5ef6:	c8 2e       	mov	r12, r24
    5ef8:	c8 18       	sub	r12, r8
    5efa:	0f 77       	andi	r16, 0x7F	; 127
    5efc:	06 ff       	sbrs	r16, 6
    5efe:	0b c0       	rjmp	.+22     	; 0x5f16 <vfprintf+0x5fc>
    5f00:	20 2f       	mov	r18, r16
    5f02:	2e 7f       	andi	r18, 0xFE	; 254
    5f04:	c1 16       	cp	r12, r17
    5f06:	50 f4       	brcc	.+20     	; 0x5f1c <vfprintf+0x602>
    5f08:	04 ff       	sbrs	r16, 4
    5f0a:	0a c0       	rjmp	.+20     	; 0x5f20 <vfprintf+0x606>
    5f0c:	02 fd       	sbrc	r16, 2
    5f0e:	08 c0       	rjmp	.+16     	; 0x5f20 <vfprintf+0x606>
    5f10:	20 2f       	mov	r18, r16
    5f12:	2e 7e       	andi	r18, 0xEE	; 238
    5f14:	05 c0       	rjmp	.+10     	; 0x5f20 <vfprintf+0x606>
    5f16:	dc 2c       	mov	r13, r12
    5f18:	20 2f       	mov	r18, r16
    5f1a:	03 c0       	rjmp	.+6      	; 0x5f22 <vfprintf+0x608>
    5f1c:	dc 2c       	mov	r13, r12
    5f1e:	01 c0       	rjmp	.+2      	; 0x5f22 <vfprintf+0x608>
    5f20:	d1 2e       	mov	r13, r17
    5f22:	24 ff       	sbrs	r18, 4
    5f24:	0d c0       	rjmp	.+26     	; 0x5f40 <vfprintf+0x626>
    5f26:	fe 01       	movw	r30, r28
    5f28:	ec 0d       	add	r30, r12
    5f2a:	f1 1d       	adc	r31, r1
    5f2c:	80 81       	ld	r24, Z
    5f2e:	80 33       	cpi	r24, 0x30	; 48
    5f30:	11 f4       	brne	.+4      	; 0x5f36 <vfprintf+0x61c>
    5f32:	29 7e       	andi	r18, 0xE9	; 233
    5f34:	09 c0       	rjmp	.+18     	; 0x5f48 <vfprintf+0x62e>
    5f36:	22 ff       	sbrs	r18, 2
    5f38:	06 c0       	rjmp	.+12     	; 0x5f46 <vfprintf+0x62c>
    5f3a:	d3 94       	inc	r13
    5f3c:	d3 94       	inc	r13
    5f3e:	04 c0       	rjmp	.+8      	; 0x5f48 <vfprintf+0x62e>
    5f40:	82 2f       	mov	r24, r18
    5f42:	86 78       	andi	r24, 0x86	; 134
    5f44:	09 f0       	breq	.+2      	; 0x5f48 <vfprintf+0x62e>
    5f46:	d3 94       	inc	r13
    5f48:	23 fd       	sbrc	r18, 3
    5f4a:	13 c0       	rjmp	.+38     	; 0x5f72 <vfprintf+0x658>
    5f4c:	20 ff       	sbrs	r18, 0
    5f4e:	06 c0       	rjmp	.+12     	; 0x5f5c <vfprintf+0x642>
    5f50:	1c 2d       	mov	r17, r12
    5f52:	d5 14       	cp	r13, r5
    5f54:	18 f4       	brcc	.+6      	; 0x5f5c <vfprintf+0x642>
    5f56:	15 0d       	add	r17, r5
    5f58:	1d 19       	sub	r17, r13
    5f5a:	d5 2c       	mov	r13, r5
    5f5c:	d5 14       	cp	r13, r5
    5f5e:	68 f4       	brcc	.+26     	; 0x5f7a <vfprintf+0x660>
    5f60:	b7 01       	movw	r22, r14
    5f62:	80 e2       	ldi	r24, 0x20	; 32
    5f64:	90 e0       	ldi	r25, 0x00	; 0
    5f66:	2b 8b       	std	Y+19, r18	; 0x13
    5f68:	0e 94 8b 34 	call	0x6916	; 0x6916 <fputc>
    5f6c:	d3 94       	inc	r13
    5f6e:	2b 89       	ldd	r18, Y+19	; 0x13
    5f70:	f5 cf       	rjmp	.-22     	; 0x5f5c <vfprintf+0x642>
    5f72:	d5 14       	cp	r13, r5
    5f74:	10 f4       	brcc	.+4      	; 0x5f7a <vfprintf+0x660>
    5f76:	5d 18       	sub	r5, r13
    5f78:	01 c0       	rjmp	.+2      	; 0x5f7c <vfprintf+0x662>
    5f7a:	51 2c       	mov	r5, r1
    5f7c:	24 ff       	sbrs	r18, 4
    5f7e:	12 c0       	rjmp	.+36     	; 0x5fa4 <vfprintf+0x68a>
    5f80:	b7 01       	movw	r22, r14
    5f82:	80 e3       	ldi	r24, 0x30	; 48
    5f84:	90 e0       	ldi	r25, 0x00	; 0
    5f86:	2b 8b       	std	Y+19, r18	; 0x13
    5f88:	0e 94 8b 34 	call	0x6916	; 0x6916 <fputc>
    5f8c:	2b 89       	ldd	r18, Y+19	; 0x13
    5f8e:	22 ff       	sbrs	r18, 2
    5f90:	17 c0       	rjmp	.+46     	; 0x5fc0 <vfprintf+0x6a6>
    5f92:	21 ff       	sbrs	r18, 1
    5f94:	03 c0       	rjmp	.+6      	; 0x5f9c <vfprintf+0x682>
    5f96:	88 e5       	ldi	r24, 0x58	; 88
    5f98:	90 e0       	ldi	r25, 0x00	; 0
    5f9a:	02 c0       	rjmp	.+4      	; 0x5fa0 <vfprintf+0x686>
    5f9c:	88 e7       	ldi	r24, 0x78	; 120
    5f9e:	90 e0       	ldi	r25, 0x00	; 0
    5fa0:	b7 01       	movw	r22, r14
    5fa2:	0c c0       	rjmp	.+24     	; 0x5fbc <vfprintf+0x6a2>
    5fa4:	82 2f       	mov	r24, r18
    5fa6:	86 78       	andi	r24, 0x86	; 134
    5fa8:	59 f0       	breq	.+22     	; 0x5fc0 <vfprintf+0x6a6>
    5faa:	21 fd       	sbrc	r18, 1
    5fac:	02 c0       	rjmp	.+4      	; 0x5fb2 <vfprintf+0x698>
    5fae:	80 e2       	ldi	r24, 0x20	; 32
    5fb0:	01 c0       	rjmp	.+2      	; 0x5fb4 <vfprintf+0x69a>
    5fb2:	8b e2       	ldi	r24, 0x2B	; 43
    5fb4:	27 fd       	sbrc	r18, 7
    5fb6:	8d e2       	ldi	r24, 0x2D	; 45
    5fb8:	b7 01       	movw	r22, r14
    5fba:	90 e0       	ldi	r25, 0x00	; 0
    5fbc:	0e 94 8b 34 	call	0x6916	; 0x6916 <fputc>
    5fc0:	c1 16       	cp	r12, r17
    5fc2:	38 f4       	brcc	.+14     	; 0x5fd2 <vfprintf+0x6b8>
    5fc4:	b7 01       	movw	r22, r14
    5fc6:	80 e3       	ldi	r24, 0x30	; 48
    5fc8:	90 e0       	ldi	r25, 0x00	; 0
    5fca:	0e 94 8b 34 	call	0x6916	; 0x6916 <fputc>
    5fce:	11 50       	subi	r17, 0x01	; 1
    5fd0:	f7 cf       	rjmp	.-18     	; 0x5fc0 <vfprintf+0x6a6>
    5fd2:	ca 94       	dec	r12
    5fd4:	f4 01       	movw	r30, r8
    5fd6:	ec 0d       	add	r30, r12
    5fd8:	f1 1d       	adc	r31, r1
    5fda:	80 81       	ld	r24, Z
    5fdc:	b7 01       	movw	r22, r14
    5fde:	90 e0       	ldi	r25, 0x00	; 0
    5fe0:	0e 94 8b 34 	call	0x6916	; 0x6916 <fputc>
    5fe4:	c1 10       	cpse	r12, r1
    5fe6:	f5 cf       	rjmp	.-22     	; 0x5fd2 <vfprintf+0x6b8>
    5fe8:	55 20       	and	r5, r5
    5fea:	09 f4       	brne	.+2      	; 0x5fee <vfprintf+0x6d4>
    5fec:	c2 cc       	rjmp	.-1660   	; 0x5972 <vfprintf+0x58>
    5fee:	b7 01       	movw	r22, r14
    5ff0:	80 e2       	ldi	r24, 0x20	; 32
    5ff2:	90 e0       	ldi	r25, 0x00	; 0
    5ff4:	0e 94 8b 34 	call	0x6916	; 0x6916 <fputc>
    5ff8:	5a 94       	dec	r5
    5ffa:	f6 cf       	rjmp	.-20     	; 0x5fe8 <vfprintf+0x6ce>
    5ffc:	f7 01       	movw	r30, r14
    5ffe:	86 81       	ldd	r24, Z+6	; 0x06
    6000:	97 81       	ldd	r25, Z+7	; 0x07
    6002:	02 c0       	rjmp	.+4      	; 0x6008 <vfprintf+0x6ee>
    6004:	8f ef       	ldi	r24, 0xFF	; 255
    6006:	9f ef       	ldi	r25, 0xFF	; 255
    6008:	63 96       	adiw	r28, 0x13	; 19
    600a:	e2 e1       	ldi	r30, 0x12	; 18
    600c:	0c 94 da 31 	jmp	0x63b4	; 0x63b4 <__epilogue_restores__>

00006010 <lrint>:
    6010:	cd db       	rcall	.-2150   	; 0x57ac <__fp_splitA>
    6012:	a8 f1       	brcs	.+106    	; 0x607e <lrint+0x6e>
    6014:	9e 57       	subi	r25, 0x7E	; 126
    6016:	a8 f1       	brcs	.+106    	; 0x6082 <lrint+0x72>
    6018:	98 51       	subi	r25, 0x18	; 24
    601a:	60 f0       	brcs	.+24     	; 0x6034 <lrint+0x24>
    601c:	39 f1       	breq	.+78     	; 0x606c <lrint+0x5c>
    601e:	98 30       	cpi	r25, 0x08	; 8
    6020:	70 f5       	brcc	.+92     	; 0x607e <lrint+0x6e>
    6022:	09 2e       	mov	r0, r25
    6024:	99 27       	eor	r25, r25
    6026:	66 0f       	add	r22, r22
    6028:	77 1f       	adc	r23, r23
    602a:	88 1f       	adc	r24, r24
    602c:	99 1f       	adc	r25, r25
    602e:	0a 94       	dec	r0
    6030:	d1 f7       	brne	.-12     	; 0x6026 <lrint+0x16>
    6032:	1c c0       	rjmp	.+56     	; 0x606c <lrint+0x5c>
    6034:	bb 27       	eor	r27, r27
    6036:	99 3f       	cpi	r25, 0xF9	; 249
    6038:	4c f4       	brge	.+18     	; 0x604c <lrint+0x3c>
    603a:	b1 11       	cpse	r27, r1
    603c:	b1 e0       	ldi	r27, 0x01	; 1
    603e:	b6 2b       	or	r27, r22
    6040:	67 2f       	mov	r22, r23
    6042:	78 2f       	mov	r23, r24
    6044:	88 27       	eor	r24, r24
    6046:	98 5f       	subi	r25, 0xF8	; 248
    6048:	b1 f7       	brne	.-20     	; 0x6036 <lrint+0x26>
    604a:	08 c0       	rjmp	.+16     	; 0x605c <lrint+0x4c>
    604c:	86 95       	lsr	r24
    604e:	77 95       	ror	r23
    6050:	67 95       	ror	r22
    6052:	b7 95       	ror	r27
    6054:	08 f4       	brcc	.+2      	; 0x6058 <lrint+0x48>
    6056:	b1 60       	ori	r27, 0x01	; 1
    6058:	93 95       	inc	r25
    605a:	c1 f7       	brne	.-16     	; 0x604c <lrint+0x3c>
    605c:	bb 0f       	add	r27, r27
    605e:	30 f4       	brcc	.+12     	; 0x606c <lrint+0x5c>
    6060:	11 f4       	brne	.+4      	; 0x6066 <lrint+0x56>
    6062:	60 ff       	sbrs	r22, 0
    6064:	03 c0       	rjmp	.+6      	; 0x606c <lrint+0x5c>
    6066:	6f 5f       	subi	r22, 0xFF	; 255
    6068:	7f 4f       	sbci	r23, 0xFF	; 255
    606a:	8f 4f       	sbci	r24, 0xFF	; 255
    606c:	3e f4       	brtc	.+14     	; 0x607c <lrint+0x6c>
    606e:	90 95       	com	r25
    6070:	80 95       	com	r24
    6072:	70 95       	com	r23
    6074:	61 95       	neg	r22
    6076:	7f 4f       	sbci	r23, 0xFF	; 255
    6078:	8f 4f       	sbci	r24, 0xFF	; 255
    607a:	9f 4f       	sbci	r25, 0xFF	; 255
    607c:	08 95       	ret
    607e:	68 94       	set
    6080:	b0 cb       	rjmp	.-2208   	; 0x57e2 <__fp_szero>
    6082:	ae cb       	rjmp	.-2212   	; 0x57e0 <__fp_zero>

00006084 <pow>:
    6084:	fa 01       	movw	r30, r20
    6086:	ee 0f       	add	r30, r30
    6088:	ff 1f       	adc	r31, r31
    608a:	30 96       	adiw	r30, 0x00	; 0
    608c:	21 05       	cpc	r18, r1
    608e:	31 05       	cpc	r19, r1
    6090:	99 f1       	breq	.+102    	; 0x60f8 <pow+0x74>
    6092:	61 15       	cp	r22, r1
    6094:	71 05       	cpc	r23, r1
    6096:	61 f4       	brne	.+24     	; 0x60b0 <pow+0x2c>
    6098:	80 38       	cpi	r24, 0x80	; 128
    609a:	bf e3       	ldi	r27, 0x3F	; 63
    609c:	9b 07       	cpc	r25, r27
    609e:	49 f1       	breq	.+82     	; 0x60f2 <pow+0x6e>
    60a0:	68 94       	set
    60a2:	90 38       	cpi	r25, 0x80	; 128
    60a4:	81 05       	cpc	r24, r1
    60a6:	61 f0       	breq	.+24     	; 0x60c0 <pow+0x3c>
    60a8:	80 38       	cpi	r24, 0x80	; 128
    60aa:	bf ef       	ldi	r27, 0xFF	; 255
    60ac:	9b 07       	cpc	r25, r27
    60ae:	41 f0       	breq	.+16     	; 0x60c0 <pow+0x3c>
    60b0:	99 23       	and	r25, r25
    60b2:	42 f5       	brpl	.+80     	; 0x6104 <pow+0x80>
    60b4:	ff 3f       	cpi	r31, 0xFF	; 255
    60b6:	e1 05       	cpc	r30, r1
    60b8:	31 05       	cpc	r19, r1
    60ba:	21 05       	cpc	r18, r1
    60bc:	11 f1       	breq	.+68     	; 0x6102 <pow+0x7e>
    60be:	e8 94       	clt
    60c0:	08 94       	sec
    60c2:	e7 95       	ror	r30
    60c4:	d9 01       	movw	r26, r18
    60c6:	aa 23       	and	r26, r26
    60c8:	29 f4       	brne	.+10     	; 0x60d4 <pow+0x50>
    60ca:	ab 2f       	mov	r26, r27
    60cc:	be 2f       	mov	r27, r30
    60ce:	f8 5f       	subi	r31, 0xF8	; 248
    60d0:	d0 f3       	brcs	.-12     	; 0x60c6 <pow+0x42>
    60d2:	10 c0       	rjmp	.+32     	; 0x60f4 <pow+0x70>
    60d4:	ff 5f       	subi	r31, 0xFF	; 255
    60d6:	70 f4       	brcc	.+28     	; 0x60f4 <pow+0x70>
    60d8:	a6 95       	lsr	r26
    60da:	e0 f7       	brcc	.-8      	; 0x60d4 <pow+0x50>
    60dc:	f7 39       	cpi	r31, 0x97	; 151
    60de:	50 f0       	brcs	.+20     	; 0x60f4 <pow+0x70>
    60e0:	19 f0       	breq	.+6      	; 0x60e8 <pow+0x64>
    60e2:	ff 3a       	cpi	r31, 0xAF	; 175
    60e4:	38 f4       	brcc	.+14     	; 0x60f4 <pow+0x70>
    60e6:	9f 77       	andi	r25, 0x7F	; 127
    60e8:	9f 93       	push	r25
    60ea:	0c d0       	rcall	.+24     	; 0x6104 <pow+0x80>
    60ec:	0f 90       	pop	r0
    60ee:	07 fc       	sbrc	r0, 7
    60f0:	90 58       	subi	r25, 0x80	; 128
    60f2:	08 95       	ret
    60f4:	3e f0       	brts	.+14     	; 0x6104 <pow+0x80>
    60f6:	d2 ca       	rjmp	.-2652   	; 0x569c <__fp_nan>
    60f8:	60 e0       	ldi	r22, 0x00	; 0
    60fa:	70 e0       	ldi	r23, 0x00	; 0
    60fc:	80 e8       	ldi	r24, 0x80	; 128
    60fe:	9f e3       	ldi	r25, 0x3F	; 63
    6100:	08 95       	ret
    6102:	4f e7       	ldi	r20, 0x7F	; 127
    6104:	9f 77       	andi	r25, 0x7F	; 127
    6106:	5f 93       	push	r21
    6108:	4f 93       	push	r20
    610a:	3f 93       	push	r19
    610c:	2f 93       	push	r18
    610e:	72 d0       	rcall	.+228    	; 0x61f4 <log>
    6110:	2f 91       	pop	r18
    6112:	3f 91       	pop	r19
    6114:	4f 91       	pop	r20
    6116:	5f 91       	pop	r21
    6118:	75 db       	rcall	.-2326   	; 0x5804 <__mulsf3>
    611a:	05 c0       	rjmp	.+10     	; 0x6126 <exp>
    611c:	19 f4       	brne	.+6      	; 0x6124 <pow+0xa0>
    611e:	0e f0       	brts	.+2      	; 0x6122 <pow+0x9e>
    6120:	b7 ca       	rjmp	.-2706   	; 0x5690 <__fp_inf>
    6122:	5e cb       	rjmp	.-2372   	; 0x57e0 <__fp_zero>
    6124:	bb ca       	rjmp	.-2698   	; 0x569c <__fp_nan>

00006126 <exp>:
    6126:	42 db       	rcall	.-2428   	; 0x57ac <__fp_splitA>
    6128:	c8 f3       	brcs	.-14     	; 0x611c <pow+0x98>
    612a:	96 38       	cpi	r25, 0x86	; 134
    612c:	c0 f7       	brcc	.-16     	; 0x611e <pow+0x9a>
    612e:	07 f8       	bld	r0, 7
    6130:	0f 92       	push	r0
    6132:	e8 94       	clt
    6134:	2b e3       	ldi	r18, 0x3B	; 59
    6136:	3a ea       	ldi	r19, 0xAA	; 170
    6138:	48 eb       	ldi	r20, 0xB8	; 184
    613a:	5f e7       	ldi	r21, 0x7F	; 127
    613c:	71 db       	rcall	.-2334   	; 0x5820 <__mulsf3_pse>
    613e:	0f 92       	push	r0
    6140:	0f 92       	push	r0
    6142:	0f 92       	push	r0
    6144:	4d b7       	in	r20, 0x3d	; 61
    6146:	5e b7       	in	r21, 0x3e	; 62
    6148:	0f 92       	push	r0
    614a:	94 d0       	rcall	.+296    	; 0x6274 <modf>
    614c:	e4 e1       	ldi	r30, 0x14	; 20
    614e:	f1 e0       	ldi	r31, 0x01	; 1
    6150:	a8 da       	rcall	.-2736   	; 0x56a2 <__fp_powser>
    6152:	4f 91       	pop	r20
    6154:	5f 91       	pop	r21
    6156:	ef 91       	pop	r30
    6158:	ff 91       	pop	r31
    615a:	e5 95       	asr	r30
    615c:	ee 1f       	adc	r30, r30
    615e:	ff 1f       	adc	r31, r31
    6160:	49 f0       	breq	.+18     	; 0x6174 <exp+0x4e>
    6162:	fe 57       	subi	r31, 0x7E	; 126
    6164:	e0 68       	ori	r30, 0x80	; 128
    6166:	44 27       	eor	r20, r20
    6168:	ee 0f       	add	r30, r30
    616a:	44 1f       	adc	r20, r20
    616c:	fa 95       	dec	r31
    616e:	e1 f7       	brne	.-8      	; 0x6168 <exp+0x42>
    6170:	41 95       	neg	r20
    6172:	55 0b       	sbc	r21, r21
    6174:	06 d0       	rcall	.+12     	; 0x6182 <ldexp>
    6176:	0f 90       	pop	r0
    6178:	07 fe       	sbrs	r0, 7
    617a:	3d cb       	rjmp	.-2438   	; 0x57f6 <inverse>
    617c:	08 95       	ret
    617e:	88 ca       	rjmp	.-2800   	; 0x5690 <__fp_inf>
    6180:	ad cb       	rjmp	.-2214   	; 0x58dc <__fp_mpack>

00006182 <ldexp>:
    6182:	14 db       	rcall	.-2520   	; 0x57ac <__fp_splitA>
    6184:	e8 f3       	brcs	.-6      	; 0x6180 <exp+0x5a>
    6186:	99 23       	and	r25, r25
    6188:	d9 f3       	breq	.-10     	; 0x6180 <exp+0x5a>
    618a:	94 0f       	add	r25, r20
    618c:	51 1d       	adc	r21, r1
    618e:	bb f3       	brvs	.-18     	; 0x617e <exp+0x58>
    6190:	91 50       	subi	r25, 0x01	; 1
    6192:	50 40       	sbci	r21, 0x00	; 0
    6194:	94 f0       	brlt	.+36     	; 0x61ba <ldexp+0x38>
    6196:	59 f0       	breq	.+22     	; 0x61ae <ldexp+0x2c>
    6198:	88 23       	and	r24, r24
    619a:	32 f0       	brmi	.+12     	; 0x61a8 <ldexp+0x26>
    619c:	66 0f       	add	r22, r22
    619e:	77 1f       	adc	r23, r23
    61a0:	88 1f       	adc	r24, r24
    61a2:	91 50       	subi	r25, 0x01	; 1
    61a4:	50 40       	sbci	r21, 0x00	; 0
    61a6:	c1 f7       	brne	.-16     	; 0x6198 <ldexp+0x16>
    61a8:	9e 3f       	cpi	r25, 0xFE	; 254
    61aa:	51 05       	cpc	r21, r1
    61ac:	44 f7       	brge	.-48     	; 0x617e <exp+0x58>
    61ae:	88 0f       	add	r24, r24
    61b0:	91 1d       	adc	r25, r1
    61b2:	96 95       	lsr	r25
    61b4:	87 95       	ror	r24
    61b6:	97 f9       	bld	r25, 7
    61b8:	08 95       	ret
    61ba:	5f 3f       	cpi	r21, 0xFF	; 255
    61bc:	ac f0       	brlt	.+42     	; 0x61e8 <ldexp+0x66>
    61be:	98 3e       	cpi	r25, 0xE8	; 232
    61c0:	9c f0       	brlt	.+38     	; 0x61e8 <ldexp+0x66>
    61c2:	bb 27       	eor	r27, r27
    61c4:	86 95       	lsr	r24
    61c6:	77 95       	ror	r23
    61c8:	67 95       	ror	r22
    61ca:	b7 95       	ror	r27
    61cc:	08 f4       	brcc	.+2      	; 0x61d0 <ldexp+0x4e>
    61ce:	b1 60       	ori	r27, 0x01	; 1
    61d0:	93 95       	inc	r25
    61d2:	c1 f7       	brne	.-16     	; 0x61c4 <ldexp+0x42>
    61d4:	bb 0f       	add	r27, r27
    61d6:	58 f7       	brcc	.-42     	; 0x61ae <ldexp+0x2c>
    61d8:	11 f4       	brne	.+4      	; 0x61de <ldexp+0x5c>
    61da:	60 ff       	sbrs	r22, 0
    61dc:	e8 cf       	rjmp	.-48     	; 0x61ae <ldexp+0x2c>
    61de:	6f 5f       	subi	r22, 0xFF	; 255
    61e0:	7f 4f       	sbci	r23, 0xFF	; 255
    61e2:	8f 4f       	sbci	r24, 0xFF	; 255
    61e4:	9f 4f       	sbci	r25, 0xFF	; 255
    61e6:	e3 cf       	rjmp	.-58     	; 0x61ae <ldexp+0x2c>
    61e8:	fc ca       	rjmp	.-2568   	; 0x57e2 <__fp_szero>
    61ea:	0e f0       	brts	.+2      	; 0x61ee <ldexp+0x6c>
    61ec:	77 cb       	rjmp	.-2322   	; 0x58dc <__fp_mpack>
    61ee:	56 ca       	rjmp	.-2900   	; 0x569c <__fp_nan>
    61f0:	68 94       	set
    61f2:	4e ca       	rjmp	.-2916   	; 0x5690 <__fp_inf>

000061f4 <log>:
    61f4:	db da       	rcall	.-2634   	; 0x57ac <__fp_splitA>
    61f6:	c8 f3       	brcs	.-14     	; 0x61ea <ldexp+0x68>
    61f8:	99 23       	and	r25, r25
    61fa:	d1 f3       	breq	.-12     	; 0x61f0 <ldexp+0x6e>
    61fc:	c6 f3       	brts	.-16     	; 0x61ee <ldexp+0x6c>
    61fe:	df 93       	push	r29
    6200:	cf 93       	push	r28
    6202:	1f 93       	push	r17
    6204:	0f 93       	push	r16
    6206:	ff 92       	push	r15
    6208:	c9 2f       	mov	r28, r25
    620a:	dd 27       	eor	r29, r29
    620c:	88 23       	and	r24, r24
    620e:	2a f0       	brmi	.+10     	; 0x621a <log+0x26>
    6210:	21 97       	sbiw	r28, 0x01	; 1
    6212:	66 0f       	add	r22, r22
    6214:	77 1f       	adc	r23, r23
    6216:	88 1f       	adc	r24, r24
    6218:	da f7       	brpl	.-10     	; 0x6210 <log+0x1c>
    621a:	20 e0       	ldi	r18, 0x00	; 0
    621c:	30 e0       	ldi	r19, 0x00	; 0
    621e:	40 e8       	ldi	r20, 0x80	; 128
    6220:	5f eb       	ldi	r21, 0xBF	; 191
    6222:	9f e3       	ldi	r25, 0x3F	; 63
    6224:	88 39       	cpi	r24, 0x98	; 152
    6226:	20 f0       	brcs	.+8      	; 0x6230 <log+0x3c>
    6228:	80 3e       	cpi	r24, 0xE0	; 224
    622a:	30 f0       	brcs	.+12     	; 0x6238 <log+0x44>
    622c:	21 96       	adiw	r28, 0x01	; 1
    622e:	8f 77       	andi	r24, 0x7F	; 127
    6230:	68 d8       	rcall	.-3888   	; 0x5302 <__addsf3>
    6232:	ec e3       	ldi	r30, 0x3C	; 60
    6234:	f1 e0       	ldi	r31, 0x01	; 1
    6236:	03 c0       	rjmp	.+6      	; 0x623e <log+0x4a>
    6238:	64 d8       	rcall	.-3896   	; 0x5302 <__addsf3>
    623a:	e9 e6       	ldi	r30, 0x69	; 105
    623c:	f1 e0       	ldi	r31, 0x01	; 1
    623e:	31 da       	rcall	.-2974   	; 0x56a2 <__fp_powser>
    6240:	8b 01       	movw	r16, r22
    6242:	be 01       	movw	r22, r28
    6244:	ec 01       	movw	r28, r24
    6246:	fb 2e       	mov	r15, r27
    6248:	6f 57       	subi	r22, 0x7F	; 127
    624a:	71 09       	sbc	r23, r1
    624c:	75 95       	asr	r23
    624e:	77 1f       	adc	r23, r23
    6250:	88 0b       	sbc	r24, r24
    6252:	99 0b       	sbc	r25, r25
    6254:	be d9       	rcall	.-3204   	; 0x55d2 <__floatsisf>
    6256:	28 e1       	ldi	r18, 0x18	; 24
    6258:	32 e7       	ldi	r19, 0x72	; 114
    625a:	41 e3       	ldi	r20, 0x31	; 49
    625c:	5f e3       	ldi	r21, 0x3F	; 63
    625e:	de da       	rcall	.-2628   	; 0x581c <__mulsf3x>
    6260:	af 2d       	mov	r26, r15
    6262:	98 01       	movw	r18, r16
    6264:	ae 01       	movw	r20, r28
    6266:	ff 90       	pop	r15
    6268:	0f 91       	pop	r16
    626a:	1f 91       	pop	r17
    626c:	cf 91       	pop	r28
    626e:	df 91       	pop	r29
    6270:	59 d8       	rcall	.-3918   	; 0x5324 <__addsf3x>
    6272:	72 ca       	rjmp	.-2844   	; 0x5758 <__fp_round>

00006274 <modf>:
    6274:	fa 01       	movw	r30, r20
    6276:	dc 01       	movw	r26, r24
    6278:	aa 0f       	add	r26, r26
    627a:	bb 1f       	adc	r27, r27
    627c:	9b 01       	movw	r18, r22
    627e:	ac 01       	movw	r20, r24
    6280:	bf 57       	subi	r27, 0x7F	; 127
    6282:	28 f4       	brcc	.+10     	; 0x628e <modf+0x1a>
    6284:	22 27       	eor	r18, r18
    6286:	33 27       	eor	r19, r19
    6288:	44 27       	eor	r20, r20
    628a:	50 78       	andi	r21, 0x80	; 128
    628c:	1f c0       	rjmp	.+62     	; 0x62cc <modf+0x58>
    628e:	b7 51       	subi	r27, 0x17	; 23
    6290:	88 f4       	brcc	.+34     	; 0x62b4 <modf+0x40>
    6292:	ab 2f       	mov	r26, r27
    6294:	00 24       	eor	r0, r0
    6296:	46 95       	lsr	r20
    6298:	37 95       	ror	r19
    629a:	27 95       	ror	r18
    629c:	01 1c       	adc	r0, r1
    629e:	a3 95       	inc	r26
    62a0:	d2 f3       	brmi	.-12     	; 0x6296 <modf+0x22>
    62a2:	00 20       	and	r0, r0
    62a4:	69 f0       	breq	.+26     	; 0x62c0 <modf+0x4c>
    62a6:	22 0f       	add	r18, r18
    62a8:	33 1f       	adc	r19, r19
    62aa:	44 1f       	adc	r20, r20
    62ac:	b3 95       	inc	r27
    62ae:	da f3       	brmi	.-10     	; 0x62a6 <modf+0x32>
    62b0:	0d d0       	rcall	.+26     	; 0x62cc <modf+0x58>
    62b2:	26 c8       	rjmp	.-4020   	; 0x5300 <__subsf3>
    62b4:	61 30       	cpi	r22, 0x01	; 1
    62b6:	71 05       	cpc	r23, r1
    62b8:	a0 e8       	ldi	r26, 0x80	; 128
    62ba:	8a 07       	cpc	r24, r26
    62bc:	b9 46       	sbci	r27, 0x69	; 105
    62be:	30 f4       	brcc	.+12     	; 0x62cc <modf+0x58>
    62c0:	9b 01       	movw	r18, r22
    62c2:	ac 01       	movw	r20, r24
    62c4:	66 27       	eor	r22, r22
    62c6:	77 27       	eor	r23, r23
    62c8:	88 27       	eor	r24, r24
    62ca:	90 78       	andi	r25, 0x80	; 128
    62cc:	30 96       	adiw	r30, 0x00	; 0
    62ce:	21 f0       	breq	.+8      	; 0x62d8 <modf+0x64>
    62d0:	20 83       	st	Z, r18
    62d2:	31 83       	std	Z+1, r19	; 0x01
    62d4:	42 83       	std	Z+2, r20	; 0x02
    62d6:	53 83       	std	Z+3, r21	; 0x03
    62d8:	08 95       	ret

000062da <__mulsi3>:
    62da:	db 01       	movw	r26, r22
    62dc:	8f 93       	push	r24
    62de:	9f 93       	push	r25
    62e0:	0e 94 b3 31 	call	0x6366	; 0x6366 <__muluhisi3>
    62e4:	bf 91       	pop	r27
    62e6:	af 91       	pop	r26
    62e8:	a2 9f       	mul	r26, r18
    62ea:	80 0d       	add	r24, r0
    62ec:	91 1d       	adc	r25, r1
    62ee:	a3 9f       	mul	r26, r19
    62f0:	90 0d       	add	r25, r0
    62f2:	b2 9f       	mul	r27, r18
    62f4:	90 0d       	add	r25, r0
    62f6:	11 24       	eor	r1, r1
    62f8:	08 95       	ret

000062fa <__divmodhi4>:
    62fa:	97 fb       	bst	r25, 7
    62fc:	07 2e       	mov	r0, r23
    62fe:	16 f4       	brtc	.+4      	; 0x6304 <__divmodhi4+0xa>
    6300:	00 94       	com	r0
    6302:	07 d0       	rcall	.+14     	; 0x6312 <__divmodhi4_neg1>
    6304:	77 fd       	sbrc	r23, 7
    6306:	09 d0       	rcall	.+18     	; 0x631a <__divmodhi4_neg2>
    6308:	0e 94 f5 31 	call	0x63ea	; 0x63ea <__udivmodhi4>
    630c:	07 fc       	sbrc	r0, 7
    630e:	05 d0       	rcall	.+10     	; 0x631a <__divmodhi4_neg2>
    6310:	3e f4       	brtc	.+14     	; 0x6320 <__divmodhi4_exit>

00006312 <__divmodhi4_neg1>:
    6312:	90 95       	com	r25
    6314:	81 95       	neg	r24
    6316:	9f 4f       	sbci	r25, 0xFF	; 255
    6318:	08 95       	ret

0000631a <__divmodhi4_neg2>:
    631a:	70 95       	com	r23
    631c:	61 95       	neg	r22
    631e:	7f 4f       	sbci	r23, 0xFF	; 255

00006320 <__divmodhi4_exit>:
    6320:	08 95       	ret

00006322 <__udivmodsi4>:
    6322:	a1 e2       	ldi	r26, 0x21	; 33
    6324:	1a 2e       	mov	r1, r26
    6326:	aa 1b       	sub	r26, r26
    6328:	bb 1b       	sub	r27, r27
    632a:	fd 01       	movw	r30, r26
    632c:	0d c0       	rjmp	.+26     	; 0x6348 <__udivmodsi4_ep>

0000632e <__udivmodsi4_loop>:
    632e:	aa 1f       	adc	r26, r26
    6330:	bb 1f       	adc	r27, r27
    6332:	ee 1f       	adc	r30, r30
    6334:	ff 1f       	adc	r31, r31
    6336:	a2 17       	cp	r26, r18
    6338:	b3 07       	cpc	r27, r19
    633a:	e4 07       	cpc	r30, r20
    633c:	f5 07       	cpc	r31, r21
    633e:	20 f0       	brcs	.+8      	; 0x6348 <__udivmodsi4_ep>
    6340:	a2 1b       	sub	r26, r18
    6342:	b3 0b       	sbc	r27, r19
    6344:	e4 0b       	sbc	r30, r20
    6346:	f5 0b       	sbc	r31, r21

00006348 <__udivmodsi4_ep>:
    6348:	66 1f       	adc	r22, r22
    634a:	77 1f       	adc	r23, r23
    634c:	88 1f       	adc	r24, r24
    634e:	99 1f       	adc	r25, r25
    6350:	1a 94       	dec	r1
    6352:	69 f7       	brne	.-38     	; 0x632e <__udivmodsi4_loop>
    6354:	60 95       	com	r22
    6356:	70 95       	com	r23
    6358:	80 95       	com	r24
    635a:	90 95       	com	r25
    635c:	9b 01       	movw	r18, r22
    635e:	ac 01       	movw	r20, r24
    6360:	bd 01       	movw	r22, r26
    6362:	cf 01       	movw	r24, r30
    6364:	08 95       	ret

00006366 <__muluhisi3>:
    6366:	0e 94 09 32 	call	0x6412	; 0x6412 <__umulhisi3>
    636a:	a5 9f       	mul	r26, r21
    636c:	90 0d       	add	r25, r0
    636e:	b4 9f       	mul	r27, r20
    6370:	90 0d       	add	r25, r0
    6372:	a4 9f       	mul	r26, r20
    6374:	80 0d       	add	r24, r0
    6376:	91 1d       	adc	r25, r1
    6378:	11 24       	eor	r1, r1
    637a:	08 95       	ret

0000637c <__prologue_saves__>:
    637c:	2f 92       	push	r2
    637e:	3f 92       	push	r3
    6380:	4f 92       	push	r4
    6382:	5f 92       	push	r5
    6384:	6f 92       	push	r6
    6386:	7f 92       	push	r7
    6388:	8f 92       	push	r8
    638a:	9f 92       	push	r9
    638c:	af 92       	push	r10
    638e:	bf 92       	push	r11
    6390:	cf 92       	push	r12
    6392:	df 92       	push	r13
    6394:	ef 92       	push	r14
    6396:	ff 92       	push	r15
    6398:	0f 93       	push	r16
    639a:	1f 93       	push	r17
    639c:	cf 93       	push	r28
    639e:	df 93       	push	r29
    63a0:	cd b7       	in	r28, 0x3d	; 61
    63a2:	de b7       	in	r29, 0x3e	; 62
    63a4:	ca 1b       	sub	r28, r26
    63a6:	db 0b       	sbc	r29, r27
    63a8:	0f b6       	in	r0, 0x3f	; 63
    63aa:	f8 94       	cli
    63ac:	de bf       	out	0x3e, r29	; 62
    63ae:	0f be       	out	0x3f, r0	; 63
    63b0:	cd bf       	out	0x3d, r28	; 61
    63b2:	09 94       	ijmp

000063b4 <__epilogue_restores__>:
    63b4:	2a 88       	ldd	r2, Y+18	; 0x12
    63b6:	39 88       	ldd	r3, Y+17	; 0x11
    63b8:	48 88       	ldd	r4, Y+16	; 0x10
    63ba:	5f 84       	ldd	r5, Y+15	; 0x0f
    63bc:	6e 84       	ldd	r6, Y+14	; 0x0e
    63be:	7d 84       	ldd	r7, Y+13	; 0x0d
    63c0:	8c 84       	ldd	r8, Y+12	; 0x0c
    63c2:	9b 84       	ldd	r9, Y+11	; 0x0b
    63c4:	aa 84       	ldd	r10, Y+10	; 0x0a
    63c6:	b9 84       	ldd	r11, Y+9	; 0x09
    63c8:	c8 84       	ldd	r12, Y+8	; 0x08
    63ca:	df 80       	ldd	r13, Y+7	; 0x07
    63cc:	ee 80       	ldd	r14, Y+6	; 0x06
    63ce:	fd 80       	ldd	r15, Y+5	; 0x05
    63d0:	0c 81       	ldd	r16, Y+4	; 0x04
    63d2:	1b 81       	ldd	r17, Y+3	; 0x03
    63d4:	aa 81       	ldd	r26, Y+2	; 0x02
    63d6:	b9 81       	ldd	r27, Y+1	; 0x01
    63d8:	ce 0f       	add	r28, r30
    63da:	d1 1d       	adc	r29, r1
    63dc:	0f b6       	in	r0, 0x3f	; 63
    63de:	f8 94       	cli
    63e0:	de bf       	out	0x3e, r29	; 62
    63e2:	0f be       	out	0x3f, r0	; 63
    63e4:	cd bf       	out	0x3d, r28	; 61
    63e6:	ed 01       	movw	r28, r26
    63e8:	08 95       	ret

000063ea <__udivmodhi4>:
    63ea:	aa 1b       	sub	r26, r26
    63ec:	bb 1b       	sub	r27, r27
    63ee:	51 e1       	ldi	r21, 0x11	; 17
    63f0:	07 c0       	rjmp	.+14     	; 0x6400 <__udivmodhi4_ep>

000063f2 <__udivmodhi4_loop>:
    63f2:	aa 1f       	adc	r26, r26
    63f4:	bb 1f       	adc	r27, r27
    63f6:	a6 17       	cp	r26, r22
    63f8:	b7 07       	cpc	r27, r23
    63fa:	10 f0       	brcs	.+4      	; 0x6400 <__udivmodhi4_ep>
    63fc:	a6 1b       	sub	r26, r22
    63fe:	b7 0b       	sbc	r27, r23

00006400 <__udivmodhi4_ep>:
    6400:	88 1f       	adc	r24, r24
    6402:	99 1f       	adc	r25, r25
    6404:	5a 95       	dec	r21
    6406:	a9 f7       	brne	.-22     	; 0x63f2 <__udivmodhi4_loop>
    6408:	80 95       	com	r24
    640a:	90 95       	com	r25
    640c:	bc 01       	movw	r22, r24
    640e:	cd 01       	movw	r24, r26
    6410:	08 95       	ret

00006412 <__umulhisi3>:
    6412:	a2 9f       	mul	r26, r18
    6414:	b0 01       	movw	r22, r0
    6416:	b3 9f       	mul	r27, r19
    6418:	c0 01       	movw	r24, r0
    641a:	a3 9f       	mul	r26, r19
    641c:	70 0d       	add	r23, r0
    641e:	81 1d       	adc	r24, r1
    6420:	11 24       	eor	r1, r1
    6422:	91 1d       	adc	r25, r1
    6424:	b2 9f       	mul	r27, r18
    6426:	70 0d       	add	r23, r0
    6428:	81 1d       	adc	r24, r1
    642a:	11 24       	eor	r1, r1
    642c:	91 1d       	adc	r25, r1
    642e:	08 95       	ret

00006430 <malloc>:
    6430:	cf 93       	push	r28
    6432:	df 93       	push	r29
    6434:	82 30       	cpi	r24, 0x02	; 2
    6436:	91 05       	cpc	r25, r1
    6438:	10 f4       	brcc	.+4      	; 0x643e <malloc+0xe>
    643a:	82 e0       	ldi	r24, 0x02	; 2
    643c:	90 e0       	ldi	r25, 0x00	; 0
    643e:	e0 91 88 04 	lds	r30, 0x0488
    6442:	f0 91 89 04 	lds	r31, 0x0489
    6446:	20 e0       	ldi	r18, 0x00	; 0
    6448:	30 e0       	ldi	r19, 0x00	; 0
    644a:	a0 e0       	ldi	r26, 0x00	; 0
    644c:	b0 e0       	ldi	r27, 0x00	; 0
    644e:	30 97       	sbiw	r30, 0x00	; 0
    6450:	39 f1       	breq	.+78     	; 0x64a0 <malloc+0x70>
    6452:	40 81       	ld	r20, Z
    6454:	51 81       	ldd	r21, Z+1	; 0x01
    6456:	48 17       	cp	r20, r24
    6458:	59 07       	cpc	r21, r25
    645a:	b8 f0       	brcs	.+46     	; 0x648a <malloc+0x5a>
    645c:	48 17       	cp	r20, r24
    645e:	59 07       	cpc	r21, r25
    6460:	71 f4       	brne	.+28     	; 0x647e <malloc+0x4e>
    6462:	82 81       	ldd	r24, Z+2	; 0x02
    6464:	93 81       	ldd	r25, Z+3	; 0x03
    6466:	10 97       	sbiw	r26, 0x00	; 0
    6468:	29 f0       	breq	.+10     	; 0x6474 <malloc+0x44>
    646a:	13 96       	adiw	r26, 0x03	; 3
    646c:	9c 93       	st	X, r25
    646e:	8e 93       	st	-X, r24
    6470:	12 97       	sbiw	r26, 0x02	; 2
    6472:	2c c0       	rjmp	.+88     	; 0x64cc <malloc+0x9c>
    6474:	90 93 89 04 	sts	0x0489, r25
    6478:	80 93 88 04 	sts	0x0488, r24
    647c:	27 c0       	rjmp	.+78     	; 0x64cc <malloc+0x9c>
    647e:	21 15       	cp	r18, r1
    6480:	31 05       	cpc	r19, r1
    6482:	31 f0       	breq	.+12     	; 0x6490 <malloc+0x60>
    6484:	42 17       	cp	r20, r18
    6486:	53 07       	cpc	r21, r19
    6488:	18 f0       	brcs	.+6      	; 0x6490 <malloc+0x60>
    648a:	a9 01       	movw	r20, r18
    648c:	db 01       	movw	r26, r22
    648e:	01 c0       	rjmp	.+2      	; 0x6492 <malloc+0x62>
    6490:	ef 01       	movw	r28, r30
    6492:	9a 01       	movw	r18, r20
    6494:	bd 01       	movw	r22, r26
    6496:	df 01       	movw	r26, r30
    6498:	02 80       	ldd	r0, Z+2	; 0x02
    649a:	f3 81       	ldd	r31, Z+3	; 0x03
    649c:	e0 2d       	mov	r30, r0
    649e:	d7 cf       	rjmp	.-82     	; 0x644e <malloc+0x1e>
    64a0:	21 15       	cp	r18, r1
    64a2:	31 05       	cpc	r19, r1
    64a4:	f9 f0       	breq	.+62     	; 0x64e4 <malloc+0xb4>
    64a6:	28 1b       	sub	r18, r24
    64a8:	39 0b       	sbc	r19, r25
    64aa:	24 30       	cpi	r18, 0x04	; 4
    64ac:	31 05       	cpc	r19, r1
    64ae:	80 f4       	brcc	.+32     	; 0x64d0 <malloc+0xa0>
    64b0:	8a 81       	ldd	r24, Y+2	; 0x02
    64b2:	9b 81       	ldd	r25, Y+3	; 0x03
    64b4:	61 15       	cp	r22, r1
    64b6:	71 05       	cpc	r23, r1
    64b8:	21 f0       	breq	.+8      	; 0x64c2 <malloc+0x92>
    64ba:	fb 01       	movw	r30, r22
    64bc:	93 83       	std	Z+3, r25	; 0x03
    64be:	82 83       	std	Z+2, r24	; 0x02
    64c0:	04 c0       	rjmp	.+8      	; 0x64ca <malloc+0x9a>
    64c2:	90 93 89 04 	sts	0x0489, r25
    64c6:	80 93 88 04 	sts	0x0488, r24
    64ca:	fe 01       	movw	r30, r28
    64cc:	32 96       	adiw	r30, 0x02	; 2
    64ce:	44 c0       	rjmp	.+136    	; 0x6558 <malloc+0x128>
    64d0:	fe 01       	movw	r30, r28
    64d2:	e2 0f       	add	r30, r18
    64d4:	f3 1f       	adc	r31, r19
    64d6:	81 93       	st	Z+, r24
    64d8:	91 93       	st	Z+, r25
    64da:	22 50       	subi	r18, 0x02	; 2
    64dc:	31 09       	sbc	r19, r1
    64de:	39 83       	std	Y+1, r19	; 0x01
    64e0:	28 83       	st	Y, r18
    64e2:	3a c0       	rjmp	.+116    	; 0x6558 <malloc+0x128>
    64e4:	20 91 86 04 	lds	r18, 0x0486
    64e8:	30 91 87 04 	lds	r19, 0x0487
    64ec:	23 2b       	or	r18, r19
    64ee:	41 f4       	brne	.+16     	; 0x6500 <malloc+0xd0>
    64f0:	20 91 1f 01 	lds	r18, 0x011F
    64f4:	30 91 20 01 	lds	r19, 0x0120
    64f8:	30 93 87 04 	sts	0x0487, r19
    64fc:	20 93 86 04 	sts	0x0486, r18
    6500:	20 91 1d 01 	lds	r18, 0x011D
    6504:	30 91 1e 01 	lds	r19, 0x011E
    6508:	21 15       	cp	r18, r1
    650a:	31 05       	cpc	r19, r1
    650c:	41 f4       	brne	.+16     	; 0x651e <malloc+0xee>
    650e:	2d b7       	in	r18, 0x3d	; 61
    6510:	3e b7       	in	r19, 0x3e	; 62
    6512:	40 91 21 01 	lds	r20, 0x0121
    6516:	50 91 22 01 	lds	r21, 0x0122
    651a:	24 1b       	sub	r18, r20
    651c:	35 0b       	sbc	r19, r21
    651e:	e0 91 86 04 	lds	r30, 0x0486
    6522:	f0 91 87 04 	lds	r31, 0x0487
    6526:	e2 17       	cp	r30, r18
    6528:	f3 07       	cpc	r31, r19
    652a:	a0 f4       	brcc	.+40     	; 0x6554 <malloc+0x124>
    652c:	2e 1b       	sub	r18, r30
    652e:	3f 0b       	sbc	r19, r31
    6530:	28 17       	cp	r18, r24
    6532:	39 07       	cpc	r19, r25
    6534:	78 f0       	brcs	.+30     	; 0x6554 <malloc+0x124>
    6536:	ac 01       	movw	r20, r24
    6538:	4e 5f       	subi	r20, 0xFE	; 254
    653a:	5f 4f       	sbci	r21, 0xFF	; 255
    653c:	24 17       	cp	r18, r20
    653e:	35 07       	cpc	r19, r21
    6540:	48 f0       	brcs	.+18     	; 0x6554 <malloc+0x124>
    6542:	4e 0f       	add	r20, r30
    6544:	5f 1f       	adc	r21, r31
    6546:	50 93 87 04 	sts	0x0487, r21
    654a:	40 93 86 04 	sts	0x0486, r20
    654e:	81 93       	st	Z+, r24
    6550:	91 93       	st	Z+, r25
    6552:	02 c0       	rjmp	.+4      	; 0x6558 <malloc+0x128>
    6554:	e0 e0       	ldi	r30, 0x00	; 0
    6556:	f0 e0       	ldi	r31, 0x00	; 0
    6558:	cf 01       	movw	r24, r30
    655a:	df 91       	pop	r29
    655c:	cf 91       	pop	r28
    655e:	08 95       	ret

00006560 <free>:
    6560:	cf 93       	push	r28
    6562:	df 93       	push	r29
    6564:	00 97       	sbiw	r24, 0x00	; 0
    6566:	09 f4       	brne	.+2      	; 0x656a <free+0xa>
    6568:	87 c0       	rjmp	.+270    	; 0x6678 <free+0x118>
    656a:	fc 01       	movw	r30, r24
    656c:	32 97       	sbiw	r30, 0x02	; 2
    656e:	13 82       	std	Z+3, r1	; 0x03
    6570:	12 82       	std	Z+2, r1	; 0x02
    6572:	c0 91 88 04 	lds	r28, 0x0488
    6576:	d0 91 89 04 	lds	r29, 0x0489
    657a:	20 97       	sbiw	r28, 0x00	; 0
    657c:	81 f4       	brne	.+32     	; 0x659e <free+0x3e>
    657e:	20 81       	ld	r18, Z
    6580:	31 81       	ldd	r19, Z+1	; 0x01
    6582:	28 0f       	add	r18, r24
    6584:	39 1f       	adc	r19, r25
    6586:	80 91 86 04 	lds	r24, 0x0486
    658a:	90 91 87 04 	lds	r25, 0x0487
    658e:	82 17       	cp	r24, r18
    6590:	93 07       	cpc	r25, r19
    6592:	79 f5       	brne	.+94     	; 0x65f2 <free+0x92>
    6594:	f0 93 87 04 	sts	0x0487, r31
    6598:	e0 93 86 04 	sts	0x0486, r30
    659c:	6d c0       	rjmp	.+218    	; 0x6678 <free+0x118>
    659e:	de 01       	movw	r26, r28
    65a0:	20 e0       	ldi	r18, 0x00	; 0
    65a2:	30 e0       	ldi	r19, 0x00	; 0
    65a4:	ae 17       	cp	r26, r30
    65a6:	bf 07       	cpc	r27, r31
    65a8:	50 f4       	brcc	.+20     	; 0x65be <free+0x5e>
    65aa:	12 96       	adiw	r26, 0x02	; 2
    65ac:	4d 91       	ld	r20, X+
    65ae:	5c 91       	ld	r21, X
    65b0:	13 97       	sbiw	r26, 0x03	; 3
    65b2:	9d 01       	movw	r18, r26
    65b4:	41 15       	cp	r20, r1
    65b6:	51 05       	cpc	r21, r1
    65b8:	09 f1       	breq	.+66     	; 0x65fc <free+0x9c>
    65ba:	da 01       	movw	r26, r20
    65bc:	f3 cf       	rjmp	.-26     	; 0x65a4 <free+0x44>
    65be:	b3 83       	std	Z+3, r27	; 0x03
    65c0:	a2 83       	std	Z+2, r26	; 0x02
    65c2:	40 81       	ld	r20, Z
    65c4:	51 81       	ldd	r21, Z+1	; 0x01
    65c6:	84 0f       	add	r24, r20
    65c8:	95 1f       	adc	r25, r21
    65ca:	8a 17       	cp	r24, r26
    65cc:	9b 07       	cpc	r25, r27
    65ce:	71 f4       	brne	.+28     	; 0x65ec <free+0x8c>
    65d0:	8d 91       	ld	r24, X+
    65d2:	9c 91       	ld	r25, X
    65d4:	11 97       	sbiw	r26, 0x01	; 1
    65d6:	84 0f       	add	r24, r20
    65d8:	95 1f       	adc	r25, r21
    65da:	02 96       	adiw	r24, 0x02	; 2
    65dc:	91 83       	std	Z+1, r25	; 0x01
    65de:	80 83       	st	Z, r24
    65e0:	12 96       	adiw	r26, 0x02	; 2
    65e2:	8d 91       	ld	r24, X+
    65e4:	9c 91       	ld	r25, X
    65e6:	13 97       	sbiw	r26, 0x03	; 3
    65e8:	93 83       	std	Z+3, r25	; 0x03
    65ea:	82 83       	std	Z+2, r24	; 0x02
    65ec:	21 15       	cp	r18, r1
    65ee:	31 05       	cpc	r19, r1
    65f0:	29 f4       	brne	.+10     	; 0x65fc <free+0x9c>
    65f2:	f0 93 89 04 	sts	0x0489, r31
    65f6:	e0 93 88 04 	sts	0x0488, r30
    65fa:	3e c0       	rjmp	.+124    	; 0x6678 <free+0x118>
    65fc:	d9 01       	movw	r26, r18
    65fe:	13 96       	adiw	r26, 0x03	; 3
    6600:	fc 93       	st	X, r31
    6602:	ee 93       	st	-X, r30
    6604:	12 97       	sbiw	r26, 0x02	; 2
    6606:	4d 91       	ld	r20, X+
    6608:	5d 91       	ld	r21, X+
    660a:	a4 0f       	add	r26, r20
    660c:	b5 1f       	adc	r27, r21
    660e:	ea 17       	cp	r30, r26
    6610:	fb 07       	cpc	r31, r27
    6612:	79 f4       	brne	.+30     	; 0x6632 <free+0xd2>
    6614:	80 81       	ld	r24, Z
    6616:	91 81       	ldd	r25, Z+1	; 0x01
    6618:	84 0f       	add	r24, r20
    661a:	95 1f       	adc	r25, r21
    661c:	02 96       	adiw	r24, 0x02	; 2
    661e:	d9 01       	movw	r26, r18
    6620:	11 96       	adiw	r26, 0x01	; 1
    6622:	9c 93       	st	X, r25
    6624:	8e 93       	st	-X, r24
    6626:	82 81       	ldd	r24, Z+2	; 0x02
    6628:	93 81       	ldd	r25, Z+3	; 0x03
    662a:	13 96       	adiw	r26, 0x03	; 3
    662c:	9c 93       	st	X, r25
    662e:	8e 93       	st	-X, r24
    6630:	12 97       	sbiw	r26, 0x02	; 2
    6632:	e0 e0       	ldi	r30, 0x00	; 0
    6634:	f0 e0       	ldi	r31, 0x00	; 0
    6636:	8a 81       	ldd	r24, Y+2	; 0x02
    6638:	9b 81       	ldd	r25, Y+3	; 0x03
    663a:	00 97       	sbiw	r24, 0x00	; 0
    663c:	19 f0       	breq	.+6      	; 0x6644 <free+0xe4>
    663e:	fe 01       	movw	r30, r28
    6640:	ec 01       	movw	r28, r24
    6642:	f9 cf       	rjmp	.-14     	; 0x6636 <free+0xd6>
    6644:	ce 01       	movw	r24, r28
    6646:	02 96       	adiw	r24, 0x02	; 2
    6648:	28 81       	ld	r18, Y
    664a:	39 81       	ldd	r19, Y+1	; 0x01
    664c:	82 0f       	add	r24, r18
    664e:	93 1f       	adc	r25, r19
    6650:	20 91 86 04 	lds	r18, 0x0486
    6654:	30 91 87 04 	lds	r19, 0x0487
    6658:	28 17       	cp	r18, r24
    665a:	39 07       	cpc	r19, r25
    665c:	69 f4       	brne	.+26     	; 0x6678 <free+0x118>
    665e:	30 97       	sbiw	r30, 0x00	; 0
    6660:	29 f4       	brne	.+10     	; 0x666c <free+0x10c>
    6662:	10 92 89 04 	sts	0x0489, r1
    6666:	10 92 88 04 	sts	0x0488, r1
    666a:	02 c0       	rjmp	.+4      	; 0x6670 <free+0x110>
    666c:	13 82       	std	Z+3, r1	; 0x03
    666e:	12 82       	std	Z+2, r1	; 0x02
    6670:	d0 93 87 04 	sts	0x0487, r29
    6674:	c0 93 86 04 	sts	0x0486, r28
    6678:	df 91       	pop	r29
    667a:	cf 91       	pop	r28
    667c:	08 95       	ret

0000667e <do_rand>:
    667e:	8f 92       	push	r8
    6680:	9f 92       	push	r9
    6682:	af 92       	push	r10
    6684:	bf 92       	push	r11
    6686:	cf 92       	push	r12
    6688:	df 92       	push	r13
    668a:	ef 92       	push	r14
    668c:	ff 92       	push	r15
    668e:	cf 93       	push	r28
    6690:	df 93       	push	r29
    6692:	ec 01       	movw	r28, r24
    6694:	68 81       	ld	r22, Y
    6696:	79 81       	ldd	r23, Y+1	; 0x01
    6698:	8a 81       	ldd	r24, Y+2	; 0x02
    669a:	9b 81       	ldd	r25, Y+3	; 0x03
    669c:	61 15       	cp	r22, r1
    669e:	71 05       	cpc	r23, r1
    66a0:	81 05       	cpc	r24, r1
    66a2:	91 05       	cpc	r25, r1
    66a4:	21 f4       	brne	.+8      	; 0x66ae <do_rand+0x30>
    66a6:	64 e2       	ldi	r22, 0x24	; 36
    66a8:	79 ed       	ldi	r23, 0xD9	; 217
    66aa:	8b e5       	ldi	r24, 0x5B	; 91
    66ac:	97 e0       	ldi	r25, 0x07	; 7
    66ae:	2d e1       	ldi	r18, 0x1D	; 29
    66b0:	33 ef       	ldi	r19, 0xF3	; 243
    66b2:	41 e0       	ldi	r20, 0x01	; 1
    66b4:	50 e0       	ldi	r21, 0x00	; 0
    66b6:	0e 94 5c 35 	call	0x6ab8	; 0x6ab8 <__divmodsi4>
    66ba:	49 01       	movw	r8, r18
    66bc:	5a 01       	movw	r10, r20
    66be:	9b 01       	movw	r18, r22
    66c0:	ac 01       	movw	r20, r24
    66c2:	a7 ea       	ldi	r26, 0xA7	; 167
    66c4:	b1 e4       	ldi	r27, 0x41	; 65
    66c6:	0e 94 b3 31 	call	0x6366	; 0x6366 <__muluhisi3>
    66ca:	6b 01       	movw	r12, r22
    66cc:	7c 01       	movw	r14, r24
    66ce:	ac ee       	ldi	r26, 0xEC	; 236
    66d0:	b4 ef       	ldi	r27, 0xF4	; 244
    66d2:	a5 01       	movw	r20, r10
    66d4:	94 01       	movw	r18, r8
    66d6:	0e 94 7e 35 	call	0x6afc	; 0x6afc <__mulohisi3>
    66da:	c6 0e       	add	r12, r22
    66dc:	d7 1e       	adc	r13, r23
    66de:	e8 1e       	adc	r14, r24
    66e0:	f9 1e       	adc	r15, r25
    66e2:	f7 fe       	sbrs	r15, 7
    66e4:	06 c0       	rjmp	.+12     	; 0x66f2 <do_rand+0x74>
    66e6:	81 e0       	ldi	r24, 0x01	; 1
    66e8:	c8 1a       	sub	r12, r24
    66ea:	d1 08       	sbc	r13, r1
    66ec:	e1 08       	sbc	r14, r1
    66ee:	80 e8       	ldi	r24, 0x80	; 128
    66f0:	f8 0a       	sbc	r15, r24
    66f2:	c8 82       	st	Y, r12
    66f4:	d9 82       	std	Y+1, r13	; 0x01
    66f6:	ea 82       	std	Y+2, r14	; 0x02
    66f8:	fb 82       	std	Y+3, r15	; 0x03
    66fa:	c6 01       	movw	r24, r12
    66fc:	9f 77       	andi	r25, 0x7F	; 127
    66fe:	df 91       	pop	r29
    6700:	cf 91       	pop	r28
    6702:	ff 90       	pop	r15
    6704:	ef 90       	pop	r14
    6706:	df 90       	pop	r13
    6708:	cf 90       	pop	r12
    670a:	bf 90       	pop	r11
    670c:	af 90       	pop	r10
    670e:	9f 90       	pop	r9
    6710:	8f 90       	pop	r8
    6712:	08 95       	ret

00006714 <rand_r>:
    6714:	0e 94 3f 33 	call	0x667e	; 0x667e <do_rand>
    6718:	08 95       	ret

0000671a <rand>:
    671a:	83 e2       	ldi	r24, 0x23	; 35
    671c:	91 e0       	ldi	r25, 0x01	; 1
    671e:	0e 94 3f 33 	call	0x667e	; 0x667e <do_rand>
    6722:	08 95       	ret

00006724 <srand>:
    6724:	a0 e0       	ldi	r26, 0x00	; 0
    6726:	b0 e0       	ldi	r27, 0x00	; 0
    6728:	80 93 23 01 	sts	0x0123, r24
    672c:	90 93 24 01 	sts	0x0124, r25
    6730:	a0 93 25 01 	sts	0x0125, r26
    6734:	b0 93 26 01 	sts	0x0126, r27
    6738:	08 95       	ret

0000673a <__ftoa_engine>:
    673a:	28 30       	cpi	r18, 0x08	; 8
    673c:	08 f0       	brcs	.+2      	; 0x6740 <__ftoa_engine+0x6>
    673e:	27 e0       	ldi	r18, 0x07	; 7
    6740:	33 27       	eor	r19, r19
    6742:	da 01       	movw	r26, r20
    6744:	99 0f       	add	r25, r25
    6746:	31 1d       	adc	r19, r1
    6748:	87 fd       	sbrc	r24, 7
    674a:	91 60       	ori	r25, 0x01	; 1
    674c:	00 96       	adiw	r24, 0x00	; 0
    674e:	61 05       	cpc	r22, r1
    6750:	71 05       	cpc	r23, r1
    6752:	39 f4       	brne	.+14     	; 0x6762 <__ftoa_engine+0x28>
    6754:	32 60       	ori	r19, 0x02	; 2
    6756:	2e 5f       	subi	r18, 0xFE	; 254
    6758:	3d 93       	st	X+, r19
    675a:	30 e3       	ldi	r19, 0x30	; 48
    675c:	2a 95       	dec	r18
    675e:	e1 f7       	brne	.-8      	; 0x6758 <__ftoa_engine+0x1e>
    6760:	08 95       	ret
    6762:	9f 3f       	cpi	r25, 0xFF	; 255
    6764:	30 f0       	brcs	.+12     	; 0x6772 <__ftoa_engine+0x38>
    6766:	80 38       	cpi	r24, 0x80	; 128
    6768:	71 05       	cpc	r23, r1
    676a:	61 05       	cpc	r22, r1
    676c:	09 f0       	breq	.+2      	; 0x6770 <__ftoa_engine+0x36>
    676e:	3c 5f       	subi	r19, 0xFC	; 252
    6770:	3c 5f       	subi	r19, 0xFC	; 252
    6772:	3d 93       	st	X+, r19
    6774:	91 30       	cpi	r25, 0x01	; 1
    6776:	08 f0       	brcs	.+2      	; 0x677a <__ftoa_engine+0x40>
    6778:	80 68       	ori	r24, 0x80	; 128
    677a:	91 1d       	adc	r25, r1
    677c:	df 93       	push	r29
    677e:	cf 93       	push	r28
    6780:	1f 93       	push	r17
    6782:	0f 93       	push	r16
    6784:	ff 92       	push	r15
    6786:	ef 92       	push	r14
    6788:	19 2f       	mov	r17, r25
    678a:	98 7f       	andi	r25, 0xF8	; 248
    678c:	96 95       	lsr	r25
    678e:	e9 2f       	mov	r30, r25
    6790:	96 95       	lsr	r25
    6792:	96 95       	lsr	r25
    6794:	e9 0f       	add	r30, r25
    6796:	ff 27       	eor	r31, r31
    6798:	e3 5f       	subi	r30, 0xF3	; 243
    679a:	f9 4f       	sbci	r31, 0xF9	; 249
    679c:	99 27       	eor	r25, r25
    679e:	33 27       	eor	r19, r19
    67a0:	ee 24       	eor	r14, r14
    67a2:	ff 24       	eor	r15, r15
    67a4:	a7 01       	movw	r20, r14
    67a6:	e7 01       	movw	r28, r14
    67a8:	05 90       	lpm	r0, Z+
    67aa:	08 94       	sec
    67ac:	07 94       	ror	r0
    67ae:	28 f4       	brcc	.+10     	; 0x67ba <__ftoa_engine+0x80>
    67b0:	36 0f       	add	r19, r22
    67b2:	e7 1e       	adc	r14, r23
    67b4:	f8 1e       	adc	r15, r24
    67b6:	49 1f       	adc	r20, r25
    67b8:	51 1d       	adc	r21, r1
    67ba:	66 0f       	add	r22, r22
    67bc:	77 1f       	adc	r23, r23
    67be:	88 1f       	adc	r24, r24
    67c0:	99 1f       	adc	r25, r25
    67c2:	06 94       	lsr	r0
    67c4:	a1 f7       	brne	.-24     	; 0x67ae <__ftoa_engine+0x74>
    67c6:	05 90       	lpm	r0, Z+
    67c8:	07 94       	ror	r0
    67ca:	28 f4       	brcc	.+10     	; 0x67d6 <__ftoa_engine+0x9c>
    67cc:	e7 0e       	add	r14, r23
    67ce:	f8 1e       	adc	r15, r24
    67d0:	49 1f       	adc	r20, r25
    67d2:	56 1f       	adc	r21, r22
    67d4:	c1 1d       	adc	r28, r1
    67d6:	77 0f       	add	r23, r23
    67d8:	88 1f       	adc	r24, r24
    67da:	99 1f       	adc	r25, r25
    67dc:	66 1f       	adc	r22, r22
    67de:	06 94       	lsr	r0
    67e0:	a1 f7       	brne	.-24     	; 0x67ca <__ftoa_engine+0x90>
    67e2:	05 90       	lpm	r0, Z+
    67e4:	07 94       	ror	r0
    67e6:	28 f4       	brcc	.+10     	; 0x67f2 <__ftoa_engine+0xb8>
    67e8:	f8 0e       	add	r15, r24
    67ea:	49 1f       	adc	r20, r25
    67ec:	56 1f       	adc	r21, r22
    67ee:	c7 1f       	adc	r28, r23
    67f0:	d1 1d       	adc	r29, r1
    67f2:	88 0f       	add	r24, r24
    67f4:	99 1f       	adc	r25, r25
    67f6:	66 1f       	adc	r22, r22
    67f8:	77 1f       	adc	r23, r23
    67fa:	06 94       	lsr	r0
    67fc:	a1 f7       	brne	.-24     	; 0x67e6 <__ftoa_engine+0xac>
    67fe:	05 90       	lpm	r0, Z+
    6800:	07 94       	ror	r0
    6802:	20 f4       	brcc	.+8      	; 0x680c <__ftoa_engine+0xd2>
    6804:	49 0f       	add	r20, r25
    6806:	56 1f       	adc	r21, r22
    6808:	c7 1f       	adc	r28, r23
    680a:	d8 1f       	adc	r29, r24
    680c:	99 0f       	add	r25, r25
    680e:	66 1f       	adc	r22, r22
    6810:	77 1f       	adc	r23, r23
    6812:	88 1f       	adc	r24, r24
    6814:	06 94       	lsr	r0
    6816:	a9 f7       	brne	.-22     	; 0x6802 <__ftoa_engine+0xc8>
    6818:	84 91       	lpm	r24, Z
    681a:	10 95       	com	r17
    681c:	17 70       	andi	r17, 0x07	; 7
    681e:	41 f0       	breq	.+16     	; 0x6830 <__ftoa_engine+0xf6>
    6820:	d6 95       	lsr	r29
    6822:	c7 95       	ror	r28
    6824:	57 95       	ror	r21
    6826:	47 95       	ror	r20
    6828:	f7 94       	ror	r15
    682a:	e7 94       	ror	r14
    682c:	1a 95       	dec	r17
    682e:	c1 f7       	brne	.-16     	; 0x6820 <__ftoa_engine+0xe6>
    6830:	e3 eb       	ldi	r30, 0xB3	; 179
    6832:	f5 e0       	ldi	r31, 0x05	; 5
    6834:	68 94       	set
    6836:	15 90       	lpm	r1, Z+
    6838:	15 91       	lpm	r17, Z+
    683a:	35 91       	lpm	r19, Z+
    683c:	65 91       	lpm	r22, Z+
    683e:	95 91       	lpm	r25, Z+
    6840:	05 90       	lpm	r0, Z+
    6842:	7f e2       	ldi	r23, 0x2F	; 47
    6844:	73 95       	inc	r23
    6846:	e1 18       	sub	r14, r1
    6848:	f1 0a       	sbc	r15, r17
    684a:	43 0b       	sbc	r20, r19
    684c:	56 0b       	sbc	r21, r22
    684e:	c9 0b       	sbc	r28, r25
    6850:	d0 09       	sbc	r29, r0
    6852:	c0 f7       	brcc	.-16     	; 0x6844 <__ftoa_engine+0x10a>
    6854:	e1 0c       	add	r14, r1
    6856:	f1 1e       	adc	r15, r17
    6858:	43 1f       	adc	r20, r19
    685a:	56 1f       	adc	r21, r22
    685c:	c9 1f       	adc	r28, r25
    685e:	d0 1d       	adc	r29, r0
    6860:	7e f4       	brtc	.+30     	; 0x6880 <__ftoa_engine+0x146>
    6862:	70 33       	cpi	r23, 0x30	; 48
    6864:	11 f4       	brne	.+4      	; 0x686a <__ftoa_engine+0x130>
    6866:	8a 95       	dec	r24
    6868:	e6 cf       	rjmp	.-52     	; 0x6836 <__ftoa_engine+0xfc>
    686a:	e8 94       	clt
    686c:	01 50       	subi	r16, 0x01	; 1
    686e:	30 f0       	brcs	.+12     	; 0x687c <__ftoa_engine+0x142>
    6870:	08 0f       	add	r16, r24
    6872:	0a f4       	brpl	.+2      	; 0x6876 <__ftoa_engine+0x13c>
    6874:	00 27       	eor	r16, r16
    6876:	02 17       	cp	r16, r18
    6878:	08 f4       	brcc	.+2      	; 0x687c <__ftoa_engine+0x142>
    687a:	20 2f       	mov	r18, r16
    687c:	23 95       	inc	r18
    687e:	02 2f       	mov	r16, r18
    6880:	7a 33       	cpi	r23, 0x3A	; 58
    6882:	28 f0       	brcs	.+10     	; 0x688e <__ftoa_engine+0x154>
    6884:	79 e3       	ldi	r23, 0x39	; 57
    6886:	7d 93       	st	X+, r23
    6888:	2a 95       	dec	r18
    688a:	e9 f7       	brne	.-6      	; 0x6886 <__ftoa_engine+0x14c>
    688c:	10 c0       	rjmp	.+32     	; 0x68ae <__ftoa_engine+0x174>
    688e:	7d 93       	st	X+, r23
    6890:	2a 95       	dec	r18
    6892:	89 f6       	brne	.-94     	; 0x6836 <__ftoa_engine+0xfc>
    6894:	06 94       	lsr	r0
    6896:	97 95       	ror	r25
    6898:	67 95       	ror	r22
    689a:	37 95       	ror	r19
    689c:	17 95       	ror	r17
    689e:	17 94       	ror	r1
    68a0:	e1 18       	sub	r14, r1
    68a2:	f1 0a       	sbc	r15, r17
    68a4:	43 0b       	sbc	r20, r19
    68a6:	56 0b       	sbc	r21, r22
    68a8:	c9 0b       	sbc	r28, r25
    68aa:	d0 09       	sbc	r29, r0
    68ac:	98 f0       	brcs	.+38     	; 0x68d4 <__ftoa_engine+0x19a>
    68ae:	23 95       	inc	r18
    68b0:	7e 91       	ld	r23, -X
    68b2:	73 95       	inc	r23
    68b4:	7a 33       	cpi	r23, 0x3A	; 58
    68b6:	08 f0       	brcs	.+2      	; 0x68ba <__ftoa_engine+0x180>
    68b8:	70 e3       	ldi	r23, 0x30	; 48
    68ba:	7c 93       	st	X, r23
    68bc:	20 13       	cpse	r18, r16
    68be:	b8 f7       	brcc	.-18     	; 0x68ae <__ftoa_engine+0x174>
    68c0:	7e 91       	ld	r23, -X
    68c2:	70 61       	ori	r23, 0x10	; 16
    68c4:	7d 93       	st	X+, r23
    68c6:	30 f0       	brcs	.+12     	; 0x68d4 <__ftoa_engine+0x19a>
    68c8:	83 95       	inc	r24
    68ca:	71 e3       	ldi	r23, 0x31	; 49
    68cc:	7d 93       	st	X+, r23
    68ce:	70 e3       	ldi	r23, 0x30	; 48
    68d0:	2a 95       	dec	r18
    68d2:	e1 f7       	brne	.-8      	; 0x68cc <__ftoa_engine+0x192>
    68d4:	11 24       	eor	r1, r1
    68d6:	ef 90       	pop	r14
    68d8:	ff 90       	pop	r15
    68da:	0f 91       	pop	r16
    68dc:	1f 91       	pop	r17
    68de:	cf 91       	pop	r28
    68e0:	df 91       	pop	r29
    68e2:	99 27       	eor	r25, r25
    68e4:	87 fd       	sbrc	r24, 7
    68e6:	90 95       	com	r25
    68e8:	08 95       	ret

000068ea <strnlen_P>:
    68ea:	fc 01       	movw	r30, r24
    68ec:	05 90       	lpm	r0, Z+
    68ee:	61 50       	subi	r22, 0x01	; 1
    68f0:	70 40       	sbci	r23, 0x00	; 0
    68f2:	01 10       	cpse	r0, r1
    68f4:	d8 f7       	brcc	.-10     	; 0x68ec <strnlen_P+0x2>
    68f6:	80 95       	com	r24
    68f8:	90 95       	com	r25
    68fa:	8e 0f       	add	r24, r30
    68fc:	9f 1f       	adc	r25, r31
    68fe:	08 95       	ret

00006900 <strnlen>:
    6900:	fc 01       	movw	r30, r24
    6902:	61 50       	subi	r22, 0x01	; 1
    6904:	70 40       	sbci	r23, 0x00	; 0
    6906:	01 90       	ld	r0, Z+
    6908:	01 10       	cpse	r0, r1
    690a:	d8 f7       	brcc	.-10     	; 0x6902 <strnlen+0x2>
    690c:	80 95       	com	r24
    690e:	90 95       	com	r25
    6910:	8e 0f       	add	r24, r30
    6912:	9f 1f       	adc	r25, r31
    6914:	08 95       	ret

00006916 <fputc>:
    6916:	0f 93       	push	r16
    6918:	1f 93       	push	r17
    691a:	cf 93       	push	r28
    691c:	df 93       	push	r29
    691e:	18 2f       	mov	r17, r24
    6920:	09 2f       	mov	r16, r25
    6922:	eb 01       	movw	r28, r22
    6924:	8b 81       	ldd	r24, Y+3	; 0x03
    6926:	81 fd       	sbrc	r24, 1
    6928:	03 c0       	rjmp	.+6      	; 0x6930 <fputc+0x1a>
    692a:	8f ef       	ldi	r24, 0xFF	; 255
    692c:	9f ef       	ldi	r25, 0xFF	; 255
    692e:	20 c0       	rjmp	.+64     	; 0x6970 <fputc+0x5a>
    6930:	82 ff       	sbrs	r24, 2
    6932:	10 c0       	rjmp	.+32     	; 0x6954 <fputc+0x3e>
    6934:	4e 81       	ldd	r20, Y+6	; 0x06
    6936:	5f 81       	ldd	r21, Y+7	; 0x07
    6938:	2c 81       	ldd	r18, Y+4	; 0x04
    693a:	3d 81       	ldd	r19, Y+5	; 0x05
    693c:	42 17       	cp	r20, r18
    693e:	53 07       	cpc	r21, r19
    6940:	7c f4       	brge	.+30     	; 0x6960 <fputc+0x4a>
    6942:	e8 81       	ld	r30, Y
    6944:	f9 81       	ldd	r31, Y+1	; 0x01
    6946:	9f 01       	movw	r18, r30
    6948:	2f 5f       	subi	r18, 0xFF	; 255
    694a:	3f 4f       	sbci	r19, 0xFF	; 255
    694c:	39 83       	std	Y+1, r19	; 0x01
    694e:	28 83       	st	Y, r18
    6950:	10 83       	st	Z, r17
    6952:	06 c0       	rjmp	.+12     	; 0x6960 <fputc+0x4a>
    6954:	e8 85       	ldd	r30, Y+8	; 0x08
    6956:	f9 85       	ldd	r31, Y+9	; 0x09
    6958:	81 2f       	mov	r24, r17
    695a:	09 95       	icall
    695c:	89 2b       	or	r24, r25
    695e:	29 f7       	brne	.-54     	; 0x692a <fputc+0x14>
    6960:	2e 81       	ldd	r18, Y+6	; 0x06
    6962:	3f 81       	ldd	r19, Y+7	; 0x07
    6964:	2f 5f       	subi	r18, 0xFF	; 255
    6966:	3f 4f       	sbci	r19, 0xFF	; 255
    6968:	3f 83       	std	Y+7, r19	; 0x07
    696a:	2e 83       	std	Y+6, r18	; 0x06
    696c:	81 2f       	mov	r24, r17
    696e:	90 2f       	mov	r25, r16
    6970:	df 91       	pop	r29
    6972:	cf 91       	pop	r28
    6974:	1f 91       	pop	r17
    6976:	0f 91       	pop	r16
    6978:	08 95       	ret

0000697a <printf>:
    697a:	a0 e0       	ldi	r26, 0x00	; 0
    697c:	b0 e0       	ldi	r27, 0x00	; 0
    697e:	e3 ec       	ldi	r30, 0xC3	; 195
    6980:	f4 e3       	ldi	r31, 0x34	; 52
    6982:	0c 94 ce 31 	jmp	0x639c	; 0x639c <__prologue_saves__+0x20>
    6986:	fe 01       	movw	r30, r28
    6988:	35 96       	adiw	r30, 0x05	; 5
    698a:	61 91       	ld	r22, Z+
    698c:	71 91       	ld	r23, Z+
    698e:	af 01       	movw	r20, r30
    6990:	80 91 8c 04 	lds	r24, 0x048C
    6994:	90 91 8d 04 	lds	r25, 0x048D
    6998:	0e 94 8d 2c 	call	0x591a	; 0x591a <vfprintf>
    699c:	e2 e0       	ldi	r30, 0x02	; 2
    699e:	0c 94 ea 31 	jmp	0x63d4	; 0x63d4 <__epilogue_restores__+0x20>

000069a2 <puts>:
    69a2:	0f 93       	push	r16
    69a4:	1f 93       	push	r17
    69a6:	cf 93       	push	r28
    69a8:	df 93       	push	r29
    69aa:	e0 91 8c 04 	lds	r30, 0x048C
    69ae:	f0 91 8d 04 	lds	r31, 0x048D
    69b2:	23 81       	ldd	r18, Z+3	; 0x03
    69b4:	21 ff       	sbrs	r18, 1
    69b6:	1b c0       	rjmp	.+54     	; 0x69ee <puts+0x4c>
    69b8:	ec 01       	movw	r28, r24
    69ba:	00 e0       	ldi	r16, 0x00	; 0
    69bc:	10 e0       	ldi	r17, 0x00	; 0
    69be:	89 91       	ld	r24, Y+
    69c0:	60 91 8c 04 	lds	r22, 0x048C
    69c4:	70 91 8d 04 	lds	r23, 0x048D
    69c8:	db 01       	movw	r26, r22
    69ca:	18 96       	adiw	r26, 0x08	; 8
    69cc:	ed 91       	ld	r30, X+
    69ce:	fc 91       	ld	r31, X
    69d0:	19 97       	sbiw	r26, 0x09	; 9
    69d2:	88 23       	and	r24, r24
    69d4:	31 f0       	breq	.+12     	; 0x69e2 <puts+0x40>
    69d6:	09 95       	icall
    69d8:	89 2b       	or	r24, r25
    69da:	89 f3       	breq	.-30     	; 0x69be <puts+0x1c>
    69dc:	0f ef       	ldi	r16, 0xFF	; 255
    69de:	1f ef       	ldi	r17, 0xFF	; 255
    69e0:	ee cf       	rjmp	.-36     	; 0x69be <puts+0x1c>
    69e2:	8a e0       	ldi	r24, 0x0A	; 10
    69e4:	09 95       	icall
    69e6:	89 2b       	or	r24, r25
    69e8:	11 f4       	brne	.+4      	; 0x69ee <puts+0x4c>
    69ea:	c8 01       	movw	r24, r16
    69ec:	02 c0       	rjmp	.+4      	; 0x69f2 <puts+0x50>
    69ee:	8f ef       	ldi	r24, 0xFF	; 255
    69f0:	9f ef       	ldi	r25, 0xFF	; 255
    69f2:	df 91       	pop	r29
    69f4:	cf 91       	pop	r28
    69f6:	1f 91       	pop	r17
    69f8:	0f 91       	pop	r16
    69fa:	08 95       	ret

000069fc <__ultoa_invert>:
    69fc:	fa 01       	movw	r30, r20
    69fe:	aa 27       	eor	r26, r26
    6a00:	28 30       	cpi	r18, 0x08	; 8
    6a02:	51 f1       	breq	.+84     	; 0x6a58 <__ultoa_invert+0x5c>
    6a04:	20 31       	cpi	r18, 0x10	; 16
    6a06:	81 f1       	breq	.+96     	; 0x6a68 <__ultoa_invert+0x6c>
    6a08:	e8 94       	clt
    6a0a:	6f 93       	push	r22
    6a0c:	6e 7f       	andi	r22, 0xFE	; 254
    6a0e:	6e 5f       	subi	r22, 0xFE	; 254
    6a10:	7f 4f       	sbci	r23, 0xFF	; 255
    6a12:	8f 4f       	sbci	r24, 0xFF	; 255
    6a14:	9f 4f       	sbci	r25, 0xFF	; 255
    6a16:	af 4f       	sbci	r26, 0xFF	; 255
    6a18:	b1 e0       	ldi	r27, 0x01	; 1
    6a1a:	3e d0       	rcall	.+124    	; 0x6a98 <__ultoa_invert+0x9c>
    6a1c:	b4 e0       	ldi	r27, 0x04	; 4
    6a1e:	3c d0       	rcall	.+120    	; 0x6a98 <__ultoa_invert+0x9c>
    6a20:	67 0f       	add	r22, r23
    6a22:	78 1f       	adc	r23, r24
    6a24:	89 1f       	adc	r24, r25
    6a26:	9a 1f       	adc	r25, r26
    6a28:	a1 1d       	adc	r26, r1
    6a2a:	68 0f       	add	r22, r24
    6a2c:	79 1f       	adc	r23, r25
    6a2e:	8a 1f       	adc	r24, r26
    6a30:	91 1d       	adc	r25, r1
    6a32:	a1 1d       	adc	r26, r1
    6a34:	6a 0f       	add	r22, r26
    6a36:	71 1d       	adc	r23, r1
    6a38:	81 1d       	adc	r24, r1
    6a3a:	91 1d       	adc	r25, r1
    6a3c:	a1 1d       	adc	r26, r1
    6a3e:	20 d0       	rcall	.+64     	; 0x6a80 <__ultoa_invert+0x84>
    6a40:	09 f4       	brne	.+2      	; 0x6a44 <__ultoa_invert+0x48>
    6a42:	68 94       	set
    6a44:	3f 91       	pop	r19
    6a46:	2a e0       	ldi	r18, 0x0A	; 10
    6a48:	26 9f       	mul	r18, r22
    6a4a:	11 24       	eor	r1, r1
    6a4c:	30 19       	sub	r19, r0
    6a4e:	30 5d       	subi	r19, 0xD0	; 208
    6a50:	31 93       	st	Z+, r19
    6a52:	de f6       	brtc	.-74     	; 0x6a0a <__ultoa_invert+0xe>
    6a54:	cf 01       	movw	r24, r30
    6a56:	08 95       	ret
    6a58:	46 2f       	mov	r20, r22
    6a5a:	47 70       	andi	r20, 0x07	; 7
    6a5c:	40 5d       	subi	r20, 0xD0	; 208
    6a5e:	41 93       	st	Z+, r20
    6a60:	b3 e0       	ldi	r27, 0x03	; 3
    6a62:	0f d0       	rcall	.+30     	; 0x6a82 <__ultoa_invert+0x86>
    6a64:	c9 f7       	brne	.-14     	; 0x6a58 <__ultoa_invert+0x5c>
    6a66:	f6 cf       	rjmp	.-20     	; 0x6a54 <__ultoa_invert+0x58>
    6a68:	46 2f       	mov	r20, r22
    6a6a:	4f 70       	andi	r20, 0x0F	; 15
    6a6c:	40 5d       	subi	r20, 0xD0	; 208
    6a6e:	4a 33       	cpi	r20, 0x3A	; 58
    6a70:	18 f0       	brcs	.+6      	; 0x6a78 <__ultoa_invert+0x7c>
    6a72:	49 5d       	subi	r20, 0xD9	; 217
    6a74:	31 fd       	sbrc	r19, 1
    6a76:	40 52       	subi	r20, 0x20	; 32
    6a78:	41 93       	st	Z+, r20
    6a7a:	02 d0       	rcall	.+4      	; 0x6a80 <__ultoa_invert+0x84>
    6a7c:	a9 f7       	brne	.-22     	; 0x6a68 <__ultoa_invert+0x6c>
    6a7e:	ea cf       	rjmp	.-44     	; 0x6a54 <__ultoa_invert+0x58>
    6a80:	b4 e0       	ldi	r27, 0x04	; 4
    6a82:	a6 95       	lsr	r26
    6a84:	97 95       	ror	r25
    6a86:	87 95       	ror	r24
    6a88:	77 95       	ror	r23
    6a8a:	67 95       	ror	r22
    6a8c:	ba 95       	dec	r27
    6a8e:	c9 f7       	brne	.-14     	; 0x6a82 <__ultoa_invert+0x86>
    6a90:	00 97       	sbiw	r24, 0x00	; 0
    6a92:	61 05       	cpc	r22, r1
    6a94:	71 05       	cpc	r23, r1
    6a96:	08 95       	ret
    6a98:	9b 01       	movw	r18, r22
    6a9a:	ac 01       	movw	r20, r24
    6a9c:	0a 2e       	mov	r0, r26
    6a9e:	06 94       	lsr	r0
    6aa0:	57 95       	ror	r21
    6aa2:	47 95       	ror	r20
    6aa4:	37 95       	ror	r19
    6aa6:	27 95       	ror	r18
    6aa8:	ba 95       	dec	r27
    6aaa:	c9 f7       	brne	.-14     	; 0x6a9e <__ultoa_invert+0xa2>
    6aac:	62 0f       	add	r22, r18
    6aae:	73 1f       	adc	r23, r19
    6ab0:	84 1f       	adc	r24, r20
    6ab2:	95 1f       	adc	r25, r21
    6ab4:	a0 1d       	adc	r26, r0
    6ab6:	08 95       	ret

00006ab8 <__divmodsi4>:
    6ab8:	05 2e       	mov	r0, r21
    6aba:	97 fb       	bst	r25, 7
    6abc:	1e f4       	brtc	.+6      	; 0x6ac4 <__divmodsi4+0xc>
    6abe:	00 94       	com	r0
    6ac0:	0e 94 73 35 	call	0x6ae6	; 0x6ae6 <__negsi2>
    6ac4:	57 fd       	sbrc	r21, 7
    6ac6:	07 d0       	rcall	.+14     	; 0x6ad6 <__divmodsi4_neg2>
    6ac8:	0e 94 91 31 	call	0x6322	; 0x6322 <__udivmodsi4>
    6acc:	07 fc       	sbrc	r0, 7
    6ace:	03 d0       	rcall	.+6      	; 0x6ad6 <__divmodsi4_neg2>
    6ad0:	4e f4       	brtc	.+18     	; 0x6ae4 <__divmodsi4_exit>
    6ad2:	0c 94 73 35 	jmp	0x6ae6	; 0x6ae6 <__negsi2>

00006ad6 <__divmodsi4_neg2>:
    6ad6:	50 95       	com	r21
    6ad8:	40 95       	com	r20
    6ada:	30 95       	com	r19
    6adc:	21 95       	neg	r18
    6ade:	3f 4f       	sbci	r19, 0xFF	; 255
    6ae0:	4f 4f       	sbci	r20, 0xFF	; 255
    6ae2:	5f 4f       	sbci	r21, 0xFF	; 255

00006ae4 <__divmodsi4_exit>:
    6ae4:	08 95       	ret

00006ae6 <__negsi2>:
    6ae6:	90 95       	com	r25
    6ae8:	80 95       	com	r24
    6aea:	70 95       	com	r23
    6aec:	61 95       	neg	r22
    6aee:	7f 4f       	sbci	r23, 0xFF	; 255
    6af0:	8f 4f       	sbci	r24, 0xFF	; 255
    6af2:	9f 4f       	sbci	r25, 0xFF	; 255
    6af4:	08 95       	ret

00006af6 <__mulshisi3>:
    6af6:	b7 ff       	sbrs	r27, 7
    6af8:	0c 94 b3 31 	jmp	0x6366	; 0x6366 <__muluhisi3>

00006afc <__mulohisi3>:
    6afc:	0e 94 b3 31 	call	0x6366	; 0x6366 <__muluhisi3>
    6b00:	82 1b       	sub	r24, r18
    6b02:	93 0b       	sbc	r25, r19
    6b04:	08 95       	ret

00006b06 <_exit>:
    6b06:	f8 94       	cli

00006b08 <__stop_program>:
    6b08:	ff cf       	rjmp	.-2      	; 0x6b08 <__stop_program>
